(lp0
((I22
I174
tp1
(dp2
S'instr-utt'
p3
(dp4
S'1'
p5
(dp6
S'piece'
p7
(lp8
(S'dis dritte'
p9
(I29
I30
tp10
S'def_np'
p11
tp12
a(S'dis'
p13
(I36
I36
tp14
S'def_np'
p15
tp16
a(S'dis'
p17
(I39
I39
tp18
S'def_np'
p19
tp20
a(S'dis'
p21
(I111
I111
tp22
S'def_np'
p23
tp24
asS'location'
p25
(lp26
g12
ag16
ag20
ag24
asssS'player-utt'
p27
(dp28
g5
(dp29
S'piece'
p30
(lp31
(S'dritte vion links'
p32
(I32
I34
tp33
S'def_np'
p34
tp35
asS'location'
p36
(lp37
g35
assstp38
a((I175
I217
tp39
(dp40
g3
(dp41
S'2'
p42
(dp43
S'piece'
p44
(lp45
(S'das kreuz'
p46
(I178
I179
tp47
S'def_np'
p48
tp49
a(S'das dritte von oben'
p50
(I181
I184
tp51
S'def_np'
p52
tp53
a(S'dis'
p54
(I187
I187
tp55
S'def_np'
p56
tp57
asS'location'
p58
(lp59
g49
ag53
ag57
assstp60
a((I218
I292
tp61
(dp62
g3
(dp63
S'3'
p64
(dp65
S'piece'
p66
(lp67
(S'rechts'
p68
(I267
I267
tp69
S'pp'
p70
tp71
a(S'in diese zickzacke-ecke'
p72
(I269
I271
tp73
S'pp'
p74
tp75
asS'location'
p76
(lp77
g71
ag75
asssg27
(dp78
g64
(dp79
S'piece'
p80
(lp81
(S'das da'
p82
(I227
I228
tp83
S'def_np'
p84
tp85
assstp86
a((I293
I371
tp87
(dp88
g3
(dp89
g64
(dp90
S'piece'
p91
(lp92
(S'dis'
p93
(I332
I332
tp94
S'def_np'
p95
tp96
asS'location'
p97
(lp98
(S'von unten die gn   dis zweite'
p99
(I295
I302
tp100
S'pp'
p101
tp102
assS'4'
p103
(dp104
S'location'
p105
(lp106
(S'runter'
p107
(I338
I338
tp108
S'pp'
p109
tp110
a(S'runter'
p111
(I340
I340
tp112
S'pp'
p113
tp114
a(S'rechts'
p115
(I342
I342
tp116
S'pp'
p117
tp118
a(S'da hin'
p119
(I345
I346
tp120
S'other'
p121
tp122
a(S'da hin'
p123
(I349
I350
tp124
S'other'
p125
tp126
assstp127
a((I372
I453
tp128
(dp129
g3
(dp130
g64
(dp131
S'piece'
p132
(lp133
(S'das komische w'
p134
(I410
I412
tp135
S'def_np'
p136
tp137
assS'5'
p138
(dp139
S'piece'
p140
(lp141
(S'neben das komische w ,'
p142
(I409
I413
tp143
S'pp'
p144
tp145
a(S'in die ecke'
p146
(I415
I417
tp147
S'pp'
p148
tp149
a(S'rechts'
p150
(I422
I422
tp151
S'pp'
p152
tp153
a(S'rechts jetzt'
p154
(I424
I425
tp155
S'pp'
p156
tp157
a(S'rechts hoch'
p158
(I428
I429
tp159
S'pp'
p160
tp161
a(S'hoch'
p162
(I431
I431
tp163
S'pp'
p164
tp165
asS'location'
p166
(lp167
g145
ag149
ag153
ag157
ag161
ag165
asssg27
(dp168
g138
(dp169
S'piece'
p170
(lp171
(S'es'
p172
(I397
I397
tp173
S'pronoun'
p174
tp175
assstp176
a((I454
I513
tp177
(dp178
g3
(dp179
S'6'
p180
(dp181
S'piece'
p182
(lp183
(S'6'
p184
(I456
I456
tp185
S'def_np'
p186
tp187
a(S'dis unten rechts ,'
p188
(I460
I463
tp189
S'def_np'
p190
tp191
a(S'dis letzte'
p192
(I464
I465
tp193
S'def_np'
p194
tp195
asS'location'
p196
(lp197
g187
ag191
ag195
assstp198
a((I514
I636
tp199
(dp200
g3
(dp201
S'12'
p202
(dp203
S'piece'
p204
(lp205
(S'die oberste reihe , das vorletzte jetzt'
p206
(I518
I524
tp207
S'def_np'
p208
tp209
assS'7'
p210
(dp211
S'piece'
p212
(lp213
(S'das letzte'
p214
(I544
I545
tp215
S'def_np'
p216
tp217
a(S'dis'
p218
(I557
I557
tp219
S'def_np'
p220
tp221
a(S'dis'
p222
(I559
I559
tp223
S'def_np'
p224
tp225
a(S'in der obersten reihe , das letzte'
p226
(I563
I569
tp227
S'def_np'
p228
tp229
asS'location'
p230
(lp231
g217
ag221
ag225
ag229
asssg27
(dp232
g210
(dp233
S'piece'
p234
(lp235
(S'dis in der letzten reihe'
p236
(I549
I553
tp237
S'def_np'
p238
tp239
assstp240
a((I637
I659
tp241
(dp242
g3
(dp243
S'8'
p244
(dp245
S'piece'
p246
(lp247
(S'oben rechts'
p248
(I650
I651
tp249
S'pp'
p250
tp251
asS'location'
p252
(lp253
g251
assstp254
a((I660
I704
tp255
(dp256
g3
(dp257
g244
(dp258
S'piece'
p259
(lp260
(S'dis'
p261
(I679
I679
tp262
S'def_np'
p263
tp264
asS'location'
p265
(lp266
g264
assstp267
a((I705
I825
tp268
(dp269
g3
(dp270
S'9'
p271
(dp272
S'part_of_piece'
p273
(lp274
(S'dis t'
p275
(I707
I708
tp276
S'def_np'
p277
tp278
a(S'dis t'
p279
(I717
I718
tp280
S'def_np'
p281
tp282
a(S'es'
p283
(I736
I736
tp284
S'pronoun'
p285
tp286
a(S'dis'
p287
(I743
I743
tp288
S'def_np'
p289
tp290
asS'piece'
p291
(lp292
g278
ag282
ag286
ag290
asssg27
(dp293
g271
(dp294
S'piece'
p295
(lp296
(S'kriegs'
p297
(I822
I822
tp298
S'pronoun'
p299
tp300
assstp301
a.