(lp0
((I4
I251
tp1
(dp2
S'p-utts'
p3
(dp4
S'1l'
p5
(dp6
S'part_of_piece'
p7
(lp8
(S'the short l bottom bit'
p9
(I29
I33
tp10
S'def_np'
p11
tp12
a(S'two squares'
p13
(I36
I37
tp14
S'quant_np'
p15
tp16
a(S'the short bit'
p17
(I44
I46
tp18
S'def_np'
p19
tp20
asS'location'
p21
(lp22
g12
ag16
ag20
asS'desc_piece'
p23
(lp24
g12
ag16
ag20
asS'piece'
p25
(lp26
g12
ag16
ag20
asssS'e-utts'
p27
(dp28
g5
(dp29
S'part_of_piece'
p30
(lp31
(S'a short bit'
p32
(I61
I63
tp33
S'indef_np'
p34
tp35
a(S'the short bit'
p36
(I70
I72
tp37
S'def_np'
p38
tp39
a(S'a block of four'
p40
(I224
I227
tp41
S'indef_np'
p42
tp43
asS'piece'
p44
(lp45
g35
ag39
ag43
asS'location'
p46
(lp47
g35
ag39
ag43
assstp48
a((I252
I595
tp49
(dp50
g3
(dp51
S'0z'
p52
(dp53
S'part_of_piece'
p54
(lp55
(S'the  four block bit'
p56
(I478
I482
tp57
S'def_np'
p58
tp59
a(S'the block of four'
p60
(I528
I531
tp61
S'def_np'
p62
tp63
asS'location'
p64
(lp65
(S'on the  left hand side'
p66
(I459
I464
tp67
S'pp'
p68
tp69
asS'piece'
p70
(lp71
(S'it'
p72
(I548
I548
tp73
S'pronoun'
p74
tp75
a(S'your block that you had s- originally on the screen'
p76
(I439
I448
tp77
S'def_np'
p78
tp79
a(S'it'
p80
(I495
I495
tp81
S'pronoun'
p82
tp83
assS'2n'
p84
(dp85
S'part_of_piece'
p86
(lp87
(S'an extra bit'
p88
(I315
I317
tp89
S'indef_np'
p90
tp91
a(S'the two'
p92
(I421
I422
tp93
S'def_np'
p94
tp95
a(S'an extra bit'
p96
(I332
I334
tp97
S'indef_np'
p98
tp99
a(S'a length of three blocks'
p100
(I349
I353
tp101
S'indef_np'
p102
tp103
a(S'a length of two'
p104
(I271
I274
tp105
S'indef_np'
p106
tp107
a(S'two tagged on to the end'
p108
(I363
I368
tp109
S'quant_np'
p110
tp111
a(S'the three'
p112
(I403
I404
tp113
S'def_np'
p114
tp115
a(S'the three'
p116
(I389
I390
tp117
S'def_np'
p118
tp119
asS'comp_piece'
p120
(lp121
(S'the same sort of shape as the other one'
p122
(I320
I328
tp123
S'def_np'
p124
tp125
asS'location'
p126
(lp127
(S'into  four block bit'
p128
(I467
I482
tp129
S'pp'
p130
tp131
a(S'on the left hand side of it'
p132
(I489
I495
tp133
S'pp'
p134
tp135
asS'desc_piece'
p136
(lp137
(S"it's the same sort of shape as the other one"
p138
(I319
I328
tp139
S'other_sent'
p140
tp141
a(S"it's just got an extra bit"
p142
(I329
I334
tp143
S'attribution_sent'
p144
tp145
asS'piece'
p146
(lp147
(S'that'
p148
(I413
I413
tp149
S'def_np'
p150
tp151
a(S'it'
p152
(I329
I329
tp153
S'pronoun'
p154
tp155
a(S'it'
p156
(I280
I280
tp157
S'pronoun'
p158
tp159
a(S'it'
p160
(I506
I506
tp161
S'pronoun'
p162
tp163
a(S'it'
p164
(I504
I504
tp165
S'pronoun'
p166
tp167
a(S'it'
p168
(I261
I261
tp169
S'pronoun'
p170
tp171
a(S'n:ext one'
p172
(I255
I256
tp173
S'def_np'
p174
tp175
a(S'an l with an extra bit'
p176
(I312
I317
tp177
S'indef_np'
p178
tp179
a(S'that'
p180
(I589
I589
tp181
S'def_np'
p182
tp183
a(S'it'
p184
(I385
I385
tp185
S'pronoun'
p186
tp187
a(S'it'
p188
(I319
I319
tp189
S'pronoun'
p190
tp191
assg5
(dp192
S'piece'
p193
(lp194
(S'the other one'
p195
(I326
I328
tp196
S'def_np'
p197
tp198
asssg27
(dp199
g52
(dp200
S'piece'
p201
(lp202
(S'it'
p203
(I502
I502
tp204
S'pronoun'
p205
tp206
a(S'it'
p207
(I453
I453
tp208
S'pronoun'
p209
tp210
a(S'it'
p211
(I556
I556
tp212
S'pronoun'
p213
tp214
a(S'it'
p215
(I515
I515
tp216
S'pronoun'
p217
tp218
assg84
(dp219
S'part_of_piece'
p220
(lp221
(S'it'
p222
(I299
I299
tp223
S'pronoun'
p224
tp225
a(S'it'
p226
(I381
I381
tp227
S'pronoun'
p228
tp229
a(S'it'
p230
(I500
I500
tp231
S'pronoun'
p232
tp233
a(S'it'
p234
(I510
I510
tp235
S'pronoun'
p236
tp237
asS'piece'
p238
(lp239
g225
ag229
ag233
ag237
assstp240
a((I596
I657
tp241
(dp242
g3
(dp243
g84
(dp244
S'piece'
p245
(lp246
(S'the one i meant'
p247
(I648
I651
tp248
S'def_np'
p249
tp250
assS'3v'
p251
(dp252
S'piece'
p253
(lp254
(S'next one'
p255
(I598
I599
tp256
S'def_np'
p257
tp258
a(S'another   l shape'
p259
(I604
I608
tp260
S'indef_np'
p261
tp262
a(S'it'
p263
(I610
I610
tp264
S'pronoun'
p265
tp266
a(S'it'
p267
(I614
I614
tp268
S'pronoun'
p269
tp270
a(S'that`s'
p271
(I629
I629
tp272
S'def_np'
p273
tp274
a(S'that one'
p275
(I640
I641
tp276
S'def_np'
p277
tp278
asssg27
(dp279
g251
(dp280
S'piece'
p281
(lp282
(S'that one'
p283
(I634
I635
tp284
S'def_np'
p285
tp286
assstp287
a((I658
I1315
tp288
(dp289
g3
(dp290
g52
(dp291
S'part_of_piece'
p292
(lp293
(S'the block of  kind'
p294
(I1228
I1232
tp295
S'def_np'
p296
tp297
a(S'the block of four'
p298
(I1214
I1217
tp299
S'def_np'
p300
tp301
a(S'block of four'
p302
(I1249
I1251
tp303
S'def_np'
p304
tp305
a(S'the four'
p306
(I1261
I1262
tp307
S'def_np'
p308
tp309
asS'piece'
p310
(lp311
(S'the one that was originally there'
p312
(I933
I938
tp313
S'def_np'
p314
tp315
a(S'the one that was originally there'
p316
(I920
I925
tp317
S'def_np'
p318
tp319
assg84
(dp320
S'part_of_piece'
p321
(lp322
(S'the length of   two'
p323
(I1158
I1163
tp324
S'def_np'
p325
tp326
a(S'the two'
p327
(I1189
I1190
tp328
S'def_np'
p329
tp330
a(S'the three'
p331
(I1167
I1168
tp332
S'def_np'
p333
tp334
a(S'the lenght of three'
p335
(I1153
I1156
tp336
S'def_np'
p337
tp338
asS'piece'
p339
(lp340
(S'the lenght of three with the length of   two'
p341
(I1153
I1163
tp342
S'def_np'
p343
tp344
a(S'the next one'
p345
(I1147
I1149
tp346
S'def_np'
p347
tp348
assg251
(dp349
S'part_of_piece'
p350
(lp351
(S'the block of two'
p352
(I882
I885
tp353
S'def_np'
p354
tp355
a(S'the block of three'
p356
(I864
I867
tp357
S'def_np'
p358
tp359
a(S'the block of three'
p360
(I893
I896
tp361
S'def_np'
p362
tp363
a(S'the block of two'
p364
(I874
I877
tp365
S'def_np'
p366
tp367
a(S"they're"
p368
(I809
I809
tp369
S'pronoun'
p370
tp371
a(S'a block of three'
p372
(I668
I671
tp373
S'indef_np'
p374
tp375
a(S'two  blocks'
p376
(I784
I786
tp377
S'quant_np'
p378
tp379
a(S'a block of two'
p380
(I689
I692
tp381
S'indef_np'
p382
tp383
a(S'it'
p384
(I720
I720
tp385
S'pronoun'
p386
tp387
a(S'a length of three  blocks'
p388
(I768
I773
tp389
S'indef_np'
p390
tp391
asS'piece'
p392
(lp393
(S'the symmetrical l thing'
p394
(I1058
I1061
tp395
S'def_np'
p396
tp397
a(S'it'
p398
(I1254
I1254
tp399
S'pronoun'
p400
tp401
a(S'it'
p402
(I660
I660
tp403
S'pronoun'
p404
tp405
a(S'symmetrical l'
p406
(I1105
I1106
tp407
S'def_np'
p408
tp409
a(S'that'
p410
(I860
I860
tp411
S'def_np'
p412
tp413
a(S'it'
p414
(I749
I749
tp415
S'pronoun'
p416
tp417
a(S'the next one'
p418
(I1311
I1313
tp419
S'def_np'
p420
tp421
a(S'it'
p422
(I1044
I1044
tp423
S'pronoun'
p424
tp425
a(S'that'
p426
(I903
I903
tp427
S'def_np'
p428
tp429
a(S'it'
p430
(I717
I717
tp431
S'pronoun'
p432
tp433
a(S'it'
p434
(I1034
I1034
tp435
S'pronoun'
p436
tp437
a(S'it'
p438
(I699
I699
tp439
S'pronoun'
p440
tp441
a(S'symmetrical l thing'
p442
(I1028
I1030
tp443
S'indef_np'
p444
tp445
a(S'it'
p446
(I730
I730
tp447
S'pronoun'
p448
tp449
a(S'that'
p450
(I1195
I1195
tp451
S'def_np'
p452
tp453
asS'location'
p454
(lp455
(S'to the left'
p456
(I1197
I1199
tp457
S'pp'
p458
tp459
a(S'in the space   u:hm to the: left hand side of the one that was originally there'
p460
(I908
I925
tp461
S'pp'
p462
tp463
assg5
(dp464
S'piece'
p465
(lp466
(S'the one we put in'
p467
(I927
I931
tp468
S'def_np'
p469
tp470
a(S'the first ! one'
p471
(I1097
I1100
tp472
S'def_np'
p473
tp474
a(S"the one that's not symmetrical l"
p475
(I1101
I1106
tp476
S'def_np'
p477
tp478
asssg27
(dp479
g52
(dp480
S'part_of_piece'
p481
(lp482
(S'the two of the one that was already there'
p483
(I1296
I1304
tp484
S'def_np'
p485
tp486
asS'piece'
p487
(lp488
(S'it'
p489
(I976
I976
tp490
S'pronoun'
p491
tp492
a(S'the one that was originally there'
p493
(I950
I955
tp494
S'def_np'
p495
tp496
a(S'this one that was originally there'
p497
(I960
I965
tp498
S'def_np'
p499
tp500
a(S'a three by one'
p501
(I970
I973
tp502
S'indef_np'
p503
tp504
a(S'the one that was already there'
p505
(I1299
I1304
tp506
S'def_np'
p507
tp508
asS'desc_piece'
p509
(lp510
(S"it's like a three bit and then there's one on top on one end an one on top of  the other end   on at the bottom"
p511
(I976
I1004
tp512
S'attribution_sent'
p513
tp514
assg84
(dp515
S'part_of_piece'
p516
(lp517
(S'they'
p518
(I1293
I1293
tp519
S'pronoun'
p520
tp521
a(S'the three'
p522
(I1291
I1292
tp523
S'def_np'
p524
tp525
a(S'the two that are going up'
p526
(I1276
I1281
tp527
S'def_np'
p528
tp529
assg251
(dp530
S'part_of_piece'
p531
(lp532
(S'on the top one'
p533
(I831
I834
tp534
S'indef_np'
p535
tp536
a(S'a block of two'
p537
(I847
I850
tp538
S'indef_np'
p539
tp540
a(S'a block of three'
p541
(I825
I828
tp542
S'indef_np'
p543
tp544
asS'piece'
p545
(lp546
(S'that'
p547
(I1096
I1096
tp548
S'def_np'
p549
tp550
a(S'it'
p551
(I1014
I1014
tp552
S'pronoun'
p553
tp554
a(S'it'
p555
(I820
I820
tp556
S'pronoun'
p557
tp558
a(S'one'
p559
(I1088
I1088
tp560
S'indef_np'
p561
tp562
a(S'that'
p563
(I900
I900
tp564
S'def_np'
p565
tp566
a(S'it'
p567
(I823
I823
tp568
S'pronoun'
p569
tp570
a(S'symmetrical l  thing'
p571
(I1024
I1027
tp572
S'indef_np'
p573
tp574
a(S'this'
p575
(I1053
I1053
tp576
S'pronoun'
p577
tp578
a(S'it'
p579
(I761
I761
tp580
S'pronoun'
p581
tp582
a(S'it'
p583
(I734
I734
tp584
S'pronoun'
p585
tp586
a(S'it'
p587
(I743
I743
tp588
S'pronoun'
p589
tp590
asS'comp_piece'
p591
(lp592
(S'an l'
p593
(I737
I738
tp594
S'indef_np'
p595
tp596
assg5
(dp597
S'part_of_piece'
p598
(lp599
(S'in the bottom right hand corner'
p600
(I1126
I1131
tp601
S'pp'
p602
tp603
asS'piece'
p604
(lp605
g603
asS'location'
p606
(lp607
g603
assstp608
a((I1316
I1491
tp609
(dp610
g3
(dp611
g251
(dp612
S'part_of_piece'
p613
(lp614
(S'at the bottom'
p615
(I1360
I1362
tp616
S'pp'
p617
tp618
a(S'on the f:ar left hand of the grid'
p619
(I1453
I1460
tp620
S'pp'
p621
tp622
a(S'a  space'
p623
(I1463
I1465
tp624
S'indef_np'
p625
tp626
asS'location'
p627
(lp628
g618
ag622
ag626
asS'piece'
p629
(lp630
g618
ag622
ag626
asssg27
(dp631
g251
(dp632
S'part_of_piece'
p633
(lp634
(S"it's got three up and then  two across"
p635
(I1415
I1423
tp636
S'attribution_sent'
p637
tp638
asS'piece'
p639
(lp640
g638
asS'desc_piece'
p641
(lp642
g638
assstp643
a((I1492
I1559
tp644
(dp645
g3
(dp646
g52
(dp647
S'piece'
p648
(lp649
(S'the one that was already there#'
p650
(I1520
I1525
tp651
S'def_np'
p652
tp653
assS'4t'
p654
(dp655
S'piece'
p656
(lp657
(S'the next one'
p658
(I1492
I1494
tp659
S'def_np'
p660
tp661
a(S'a t'
p662
(I1498
I1499
tp663
S'indef_np'
p664
tp665
a(S'that'
p666
(I1507
I1507
tp667
S'def_np'
p668
tp669
asS'location'
p670
(lp671
(S'whe:re  we had our first one'
p672
(I1512
I1518
tp673
S'pp'
p674
tp675
assS'5y'
p676
(dp677
S'piece'
p678
(lp679
(S'the next one'
p680
(I1556
I1558
tp681
S'def_np'
p682
tp683
assg5
(dp684
S'piece'
p685
(lp686
(S'our first one'
p687
(I1516
I1518
tp688
S'def_np'
p689
tp690
asssg27
(dp691
g654
(dp692
S'piece'
p693
(lp694
(S'that'
p695
(I1502
I1502
tp696
S'def_np'
p697
tp698
a(S'it'
p699
(I1536
I1536
tp700
S'pronoun'
p701
tp702
a(S'this t'
p703
(I1540
I1541
tp704
S'def_np'
p705
tp706
a(S'its'
p707
(I1543
I1543
tp708
S'pronoun'
p709
tp710
assstp711
a((I1560
I1785
tp712
(dp713
g3
(dp714
g676
(dp715
S'part_of_piece'
p716
(lp717
(S'it'
p718
(I1585
I1585
tp719
S'pronoun'
p720
tp721
a(S'it'
p722
(I1589
I1589
tp723
S'pronoun'
p724
tp725
a(S'that'
p726
(I1613
I1613
tp727
S'def_np'
p728
tp729
a(S'it'
p730
(I1618
I1618
tp731
S'pronoun'
p732
tp733
a(S'that'
p734
(I1667
I1667
tp735
S'def_np'
p736
tp737
a(S'it'
p738
(I1689
I1689
tp739
S'pronoun'
p740
tp741
a(S'to uh    next level kind of thing'
p742
(I1694
I1704
tp743
S'pp'
p744
tp745
a(S'it'
p746
(I1737
I1737
tp747
S'pronoun'
p748
tp749
a(S'it'
p750
(I1778
I1778
tp751
S'pronoun'
p752
tp753
asS'location'
p754
(lp755
g721
ag725
ag729
ag733
ag737
ag741
ag745
ag749
ag753
asS'piece'
p756
(lp757
g721
ag725
ag729
ag733
ag737
ag741
ag745
ag749
ag753
asssg27
(dp758
g676
(dp759
S'part_of_piece'
p760
(lp761
(S'one jutting out'
p762
(I1574
I1576
tp763
S'quant_np'
p764
tp765
asS'piece'
p766
(lp767
g765
asS'location'
p768
(lp769
g765
assstp770
a((I1786
I2114
tp771
(dp772
g3
(dp773
g52
(dp774
S'piece'
p775
(lp776
(S'the original one'
p777
(I2075
I2077
tp778
S'def_np'
p779
tp780
a(S'the one that was originally there'
p781
(I2086
I2091
tp782
S'def_np'
p783
tp784
asS'location'
p785
(lp786
(S'on the right hand side of the screen'
p787
(I2092
I2099
tp788
S'pp'
p789
tp790
assS'6w'
p791
(dp792
S'part_of_piece'
p793
(lp794
(S'a block of three'
p795
(I1796
I1799
tp796
S'indef_np'
p797
tp798
a(S'one tagged on  to the edge'
p799
(I1803
I1809
tp800
S'quant_np'
p801
tp802
a(S'another two blocks'
p803
(I1820
I1822
tp804
S'indef_np'
p805
tp806
a(S'two blocks'
p807
(I1844
I1845
tp808
S'quant_np'
p809
tp810
a(S'those two blocks'
p811
(I1854
I1856
tp812
S'def_np'
p813
tp814
a(S'another  block'
p815
(I1862
I1864
tp816
S'indef_np'
p817
tp818
a(S'that block'
p819
(I1881
I1882
tp820
S'def_np'
p821
tp822
a(S"one block that's been taken out"
p823
(I1987
I1992
tp824
S'quant_np'
p825
tp826
a(S'it'
p827
(I1994
I1994
tp828
S'pronoun'
p829
tp830
asS'comp_piece'
p831
(lp832
g798
ag802
ag806
ag810
ag814
ag818
ag822
ag826
ag830
asS'location'
p833
(lp834
g798
ag802
ag806
ag810
ag814
ag818
ag822
ag826
ag830
asS'desc_piece'
p835
(lp836
g798
ag802
ag806
ag810
ag814
ag818
ag822
ag826
ag830
asS'piece'
p837
(lp838
g798
ag802
ag806
ag810
ag814
ag818
ag822
ag826
ag830
assg251
(dp839
S'part_of_piece'
p840
(lp841
(S'the back of it'
p842
(I1961
I1964
tp843
S'def_np'
p844
tp845
asS'piece'
p846
(lp847
(S'it'
p848
(I1964
I1964
tp849
S'pronoun'
p850
tp851
a(S'the symmetrical   l  that we had before'
p852
(I1944
I1953
tp853
S'def_np'
p854
tp855
assS'7x'
p856
(dp857
S'piece'
p858
(lp859
(S'the next one'
p860
(I2108
I2110
tp861
S'def_np'
p862
tp863
asssg27
(dp864
g791
(dp865
S'part_of_piece'
p866
(lp867
(S'it'
p868
(I1900
I1900
tp869
S'pronoun'
p870
tp871
a(S'this'
p872
(I1999
I1999
tp873
S'pronoun'
p874
tp875
a(S'it'
p876
(I2017
I2017
tp877
S'pronoun'
p878
tp879
a(S'that'
p880
(I2022
I2022
tp881
S'def_np'
p882
tp883
a(S'it'
p884
(I2029
I2029
tp885
S'pronoun'
p886
tp887
a(S'it'
p888
(I2039
I2039
tp889
S'pronoun'
p890
tp891
a(S'an l'
p892
(I2041
I2042
tp893
S'indef_np'
p894
tp895
asS'piece'
p896
(lp897
g871
ag875
ag879
ag883
ag887
ag891
ag895
assstp898
a((I2115
I2406
tp899
(dp900
g3
(dp901
g676
(dp902
S'part_of_piece'
p903
(lp904
(S'the length'
p905
(I2164
I2165
tp906
S'def_np'
p907
tp908
a(S'the   uh the bit down'
p909
(I2167
I2173
tp910
S'def_np'
p911
tp912
a(S'the side of it'
p913
(I2202
I2205
tp914
S'def_np'
p915
tp916
asS'piece'
p917
(lp918
(S'it'
p919
(I2205
I2205
tp920
S'pronoun'
p921
tp922
a(S'the one   we had before'
p923
(I2154
I2160
tp924
S'def_np'
p925
tp926
assS'8f'
p927
(dp928
S'piece'
p929
(lp930
(S'the next one'
p931
(I2402
I2404
tp932
S'def_np'
p933
tp934
assg856
(dp935
S'piece'
p936
(lp937
(S'up in  the   left hand side of the screen'
p938
(I2127
I2138
tp939
S'pp'
p940
tp941
a(S'a bit where it kind of jumps out'
p942
(I2141
I2148
tp943
S'indef_np'
p944
tp945
a(S'on top of the one   we had before'
p946
(I2151
I2160
tp947
S'pp'
p948
tp949
a(S'to the side of it'
p950
(I2201
I2205
tp951
S'pp'
p952
tp953
a(S'the second block down from the top'
p954
(I2239
I2245
tp955
S'def_np'
p956
tp957
asS'location'
p958
(lp959
g941
ag945
ag949
ag953
ag957
asssg27
(dp960
g676
(dp961
S'part_of_piece'
p962
(lp963
(S'the side of it'
p964
(I2196
I2199
tp965
S'def_np'
p966
tp967
asS'piece'
p968
(lp969
(S'it'
p970
(I2181
I2181
tp971
S'pronoun'
p972
tp973
a(S'it'
p974
(I2199
I2199
tp975
S'pronoun'
p976
tp977
assg856
(dp978
S'piece'
p979
(lp980
(S'on top ! of it ?'
p981
(I2177
I2182
tp982
S'pp'
p983
tp984
asS'location'
p985
(lp986
g984
assstp987
a((I2407
I2542
tp988
(dp989
g3
(dp990
S'9c'
p991
(dp992
S'piece'
p993
(lp994
(S'the next one'
p995
(I2538
I2540
tp996
S'def_np'
p997
tp998
assg927
(dp999
S'part_of_piece'
p1000
(lp1001
(S'the long side'
p1002
(I2416
I2418
tp1003
S'def_np'
p1004
tp1005
a(S'a block out'
p1006
(I2427
I2429
tp1007
S'indef_np'
p1008
tp1009
a(S'the l'
p1010
(I2443
I2444
tp1011
S'def_np'
p1012
tp1013
a(S'the long side'
p1014
(I2452
I2454
tp1015
S'def_np'
p1016
tp1017
a(S'the  short side'
p1018
(I2459
I2462
tp1019
S'def_np'
p1020
tp1021
a(S'the block out'
p1022
(I2480
I2482
tp1023
S'def_np'
p1024
tp1025
asS'desc_piece'
p1026
(lp1027
g1005
ag1009
ag1013
ag1017
ag1021
ag1025
asssg27
(dp1028
g676
(dp1029
S'part_of_piece'
p1030
(lp1031
(S' blocks'
p1032
(I2521
I2524
tp1033
S'quant_np'
p1034
tp1035
a(S'one sticking below'
p1036
(I2527
I2529
tp1037
S'quant_np'
p1038
tp1039
asS'piece'
p1040
(lp1041
g1035
ag1039
assg927
(dp1042
S'piece'
p1043
(lp1044
(S'it'
p1045
(I2433
I2433
tp1046
S'pronoun'
p1047
tp1048
a(S'it'
p1049
(I2513
I2513
tp1050
S'pronoun'
p1051
tp1052
a(S'it'
p1053
(I2437
I2437
tp1054
S'pronoun'
p1055
tp1056
a(S'it'
p1057
(I2508
I2508
tp1058
S'pronoun'
p1059
tp1060
asS'location'
p1061
(lp1062
(S'below  blocks and the one sticking below'
p1063
(I2514
I2529
tp1064
S'pp'
p1065
tp1066
assstp1067
a((I2543
I2563
tp1068
(dp1069
g3
(dp1070
g991
(dp1071
S'piece'
p1072
(lp1073
(S'top left'
p1074
(I2561
I2562
tp1075
S'pp'
p1076
tp1077
asS'location'
p1078
(lp1079
g1077
asssg27
(dp1080
g991
(dp1081
S'piece'
p1082
(lp1083
(S'this'
p1084
(I2557
I2557
tp1085
S'def_np'
p1086
tp1087
asS'location'
p1088
(lp1089
g1087
assstp1090
a((I2564
I2592
tp1091
(dp1092
g3
(dp1093
S'10p'
p1094
(dp1095
S'part_of_piece'
p1096
(lp1097
(S'block floor'
p1098
(I2569
I2570
tp1099
S'indef_np'
p1100
tp1101
a(S'a block'
p1102
(I2575
I2576
tp1103
S'indef_np'
p1104
tp1105
a(S'one on top'
p1106
(I2577
I2579
tp1107
S'quant_np'
p1108
tp1109
asS'piece'
p1110
(lp1111
g1101
ag1105
ag1109
asssg27
(dp1112
g1094
(dp1113
S'piece'
p1114
(lp1115
(S'that'
p1116
(I2586
I2586
tp1117
S'def_np'
p1118
tp1119
assstp1120
a((I2593
I2616
tp1121
(dp1122
g3
(dp1123
S'11i'
p1124
(dp1125
S'piece'
p1126
(lp1127
(S'the last one'
p1128
(I2595
I2597
tp1129
S'def_np'
p1130
tp1131
a(S'the  long'
p1132
(I2599
I2604
tp1133
S'def_np'
p1134
tp1135
asssg27
(dp1136
g1124
(dp1137
S'piece'
p1138
(lp1139
(S'last one:'
p1140
(I2605
I2606
tp1141
S'def_np'
p1142
tp1143
assstp1144
a.