(dp0
S'alignment e'
p1
(dp2
S'FTT_2006-06-22pair1_refexps.p(2820, 3210)'
p3
(F1.0
S'correct'
p4
tp5
sS'PTT_2006-03-27Pair2a_refexps.p(175, 230)'
p6
(F1.0
S'correct'
p7
tp8
sS'FTT_2006-03-28pair2_refexps.p(2905, 2931)'
p9
(F1.0
S'not_moved'
p10
tp11
sS'PTT_2006-03-27Pair2a_refexps.p(408, 588)'
p12
(F0.0
S'correct'
p13
tp14
sS'PTT_2006-03-28pair1_refexps.p(1827, 1955)'
p15
(F1.0
S'not_moved'
p16
tp17
sS'FTT_2006-03-28pair2_refexps.p(527, 892)'
p18
(F0.0
S'not_moved'
p19
tp20
sS'FTT_2006-03-28pair2_refexps.p(2567, 2617)'
p21
(F0.0
S'not_moved'
p22
tp23
sS'PTT_2006-03-27Pair2a_refexps.p(640, 829)'
p24
(F0.0
S'not_moved'
p25
tp26
sS'PTT_2006-02-13pair2a_refexps.p(794, 1433)'
p27
(F1.0
S'correct'
p28
tp29
sS'PTT_2006-03-28pair1_refexps.p(325, 393)'
p30
(F0.0
S'correct'
p31
tp32
sS'FTT_2006-03-27Pair1_refexps.p(411, 600)'
p33
(F0.0
S'correct'
p34
tp35
sS'PTT_2006-06-22pair3a_refexps.p(1400, 1581)'
p36
(F1.0
S'correct'
p37
tp38
sS'FTT_2006-06-22pair1_refexps.p(261, 332)'
p39
(F0.0
S'incorrect'
p40
tp41
sS'FTT_2006-03-28pair2_refexps.p(940, 1355)'
p42
(F0.0
S'incorrect'
p43
tp44
sS'FTT_2006-03-28pair2_refexps.p(2618, 2680)'
p45
(F1.0
S'not_moved'
p46
tp47
sS'FTT_2006-06-22pair1_refexps.p(505, 549)'
p48
(F1.0
S'correct'
p49
tp50
sS'FTT_2006-03-27Pair1_refexps.p(760, 945)'
p51
(F0.0
S'correct'
p52
tp53
sS'FTT_2006-06-22pair2_refexps.p(2583, 2844)'
p54
(F0.6666666666666666
S'correct'
p55
tp56
sS'PTT_2006-06-22pair3a_refexps.p(1582, 1715)'
p57
(F1.0
S'correct'
p58
tp59
sS'FTT_2006-03-28pair2_refexps.p(1696, 1944)'
p60
(F0.0
S'not_moved'
p61
tp62
sS'PTT_2006-03-28pair1_refexps.p(3290, 3353)'
p63
(F1.0
S'correct'
p64
tp65
sS'FTT_2006-06-22pair2_refexps.p(3295, 3456)'
p66
(F1.0
S'incorrect'
p67
tp68
sS'FTT_2006-03-27Pair1_refexps.p(2553, 2749)'
p69
(F1.0
S'incorrect'
p70
tp71
sS'FTT_2006-03-27Pair1_refexps.p(1117, 1518)'
p72
(F0.0
S'not_moved'
p73
tp74
sS'PTT_2006-03-28pair1_refexps.p(1277, 1323)'
p75
(F1.0
S'incorrect'
p76
tp77
sS'PTT_2006-03-27pair3a_refexps.p(1948, 2340)'
p78
(F1.0
S'correct'
p79
tp80
sS'PTT_2006-02-13pair2a_refexps.p(415, 526)'
p81
(F0.0
S'correct'
p82
tp83
sS'FTT_2006-06-22pair2_refexps.p(2845, 3294)'
p84
(F0.0
S'correct'
p85
tp86
sS'FTT_2006-06-22pair1_refexps.p(4879, 5032)'
p87
(F1.0
S'correct'
p88
tp89
sS'PTT_2006-03-28pair1_refexps.p(732, 913)'
p90
(F1.0
S'incorrect'
p91
tp92
sS'FTT_2006-06-22pair2_refexps.p(3764, 3963)'
p93
(F0.0
S'correct'
p94
tp95
sS'FTT_2006-03-28pair2_refexps.p(2681, 2723)'
p96
(F1.0
S'not_moved'
p97
tp98
sS'PTT_2006-03-28pair1_refexps.p(2255, 2478)'
p99
(F0.0
S'correct'
p100
tp101
sS'PTT_2006-03-28pair1_refexps.p(1101, 1238)'
p102
(F1.0
S'not_moved'
p103
tp104
sS'FTT_2006-03-28pair2_refexps.p(1967, 2127)'
p105
(F1.0
S'not_moved'
p106
tp107
sS'FTT_2006-03-27Pair1_refexps.p(2022, 2081)'
p108
(F1.0
S'not_moved'
p109
tp110
sS'PTT_2006-06-22pair3a_refexps.p(1125, 1235)'
p111
(F1.0
S'correct'
p112
tp113
sS'FTT_2006-03-28pair2_refexps.p(3101, 3233)'
p114
(F0.5
S'correct'
p115
tp116
sS'FTT_2006-03-28pair2_refexps.p(2436, 2542)'
p117
(F0.0
S'not_moved'
p118
tp119
sS'PTT_2006-03-27pair3a_refexps.p(258, 843)'
p120
(F1.0
S'correct'
p121
tp122
sS'FTT_2006-06-22pair2_refexps.p(5496, 5553)'
p123
(F1.0
S'correct'
p124
tp125
sS'FTT_2006-03-28pair2_refexps.p(1356, 1437)'
p126
(F1.0
S'not_moved'
p127
tp128
sS'PTT_2006-03-27pair3a_refexps.p(2784, 3133)'
p129
(F0.0
S'correct'
p130
tp131
sS'FTT_2006-03-27Pair1_refexps.p(2505, 2552)'
p132
(F1.0
S'correct'
p133
tp134
sS'FTT_2006-03-28pair2_refexps.p(1555, 1663)'
p135
(F1.0
S'incorrect'
p136
tp137
sS'PTT_2006-03-28pair1_refexps.p(394, 731)'
p138
(F1.0
S'incorrect'
p139
tp140
sS'FTT_2006-03-27Pair1_refexps.p(946, 1116)'
p141
(F0.0
S'incorrect'
p142
tp143
sS'FTT_2006-06-22pair2_refexps.p(1622, 2582)'
p144
(F1.0
S'incorrect'
p145
tp146
sS'FTT_2006-06-22pair2_refexps.p(4732, 4881)'
p147
(F1.0
S'correct'
p148
tp149
sS'PTT_2006-03-28pair1_refexps.p(3200, 3289)'
p150
(F0.5
S'correct'
p151
tp152
sS'FTT_2006-06-22pair1_refexps.p(2004, 2097)'
p153
(F0.0
S'not_moved'
p154
tp155
sS'PTT_2006-03-28pair1_refexps.p(2953, 3089)'
p156
(F0.0
S'correct'
p157
tp158
sS'FTT_2006-03-27Pair1_refexps.p(3166, 3426)'
p159
(F1.0
S'not_moved'
p160
tp161
sS'FTT_2006-03-27Pair1_refexps.p(191, 410)'
p162
(F0.0
S'incorrect'
p163
tp164
sS'PTT_2006-02-13pair2a_refexps.p(1767, 1886)'
p165
(F1.0
S'correct'
p166
tp167
sS'FTT_2006-06-22pair1_refexps.p(2351, 2380)'
p168
(F0.0
S'not_moved'
p169
tp170
sS'PTT_2006-03-28pair1_refexps.p(2113, 2254)'
p171
(F0.0
S'incorrect'
p172
tp173
sS'PTT_2006-03-27Pair2a_refexps.p(1559, 1596)'
p174
(F1.0
S'correct'
p175
tp176
sS'FTT_2006-06-22pair2_refexps.p(4938, 5360)'
p177
(F0.5
S'correct'
p178
tp179
sS'FTT_2006-06-22pair2_refexps.p(5361, 5495)'
p180
(F0.3333333333333333
S'correct'
p181
tp182
sS'PTT_2006-02-13pair2a_refexps.p(58, 414)'
p183
(F0.6666666666666666
S'correct'
p184
tp185
sS'FTT_2006-03-28pair2_refexps.p(2376, 2435)'
p186
(F1.0
S'not_moved'
p187
tp188
sS'FTT_2006-06-22pair1_refexps.p(1521, 1580)'
p189
(F0.0
S'not_moved'
p190
tp191
sS'FTT_2006-03-27Pair1_refexps.p(2082, 2354)'
p192
(F1.0
S'correct'
p193
tp194
sS'PTT_2006-03-27pair3a_refexps.p(2341, 2783)'
p195
(F0.0
S'correct'
p196
tp197
sS'FTT_2006-06-22pair1_refexps.p(333, 392)'
p198
(F0.0
S'correct'
p199
tp200
sS'PTT_2006-02-13pair2a_refexps.p(1434, 1610)'
p201
(F0.0
S'correct'
p202
tp203
sS'FTT_2006-06-22pair1_refexps.p(687, 877)'
p204
(F0.0
S'not_moved'
p205
tp206
sS'FTT_2006-03-28pair2_refexps.p(276, 453)'
p207
(F0.0
S'incorrect'
p208
tp209
sS'PTT_2006-03-27pair3a_refexps.p(1204, 1396)'
p210
(F0.0
S'correct'
p211
tp212
sS'FTT_2006-03-28pair2_refexps.p(1, 132)'
p213
(F0.0
S'incorrect'
p214
tp215
sS'FTT_2006-03-27Pair1_refexps.p(3050, 3165)'
p216
(F0.0
S'not_moved'
p217
tp218
sS'PTT_2006-02-13pair2a_refexps.p(2464, 3017)'
p219
(F0.4
S'correct'
p220
tp221
sS'PTT_2006-06-22pair3a_refexps.p(281, 378)'
p222
(F0.0
S'correct'
p223
tp224
sS'PTT_2006-03-27Pair2a_refexps.p(128, 174)'
p225
(F0.0
S'incorrect'
p226
tp227
sS'PTT_2006-03-28pair1_refexps.p(3135, 3199)'
p228
(F0.5
S'correct'
p229
tp230
sS'PTT_2006-06-22pair3a_refexps.p(1716, 1752)'
p231
(F0.0
S'correct'
p232
tp233
sS'FTT_2006-06-22pair1_refexps.p(3672, 4291)'
p234
(F0.6666666666666666
S'not_moved'
p235
tp236
sS'FTT_2006-03-28pair2_refexps.p(1438, 1484)'
p237
(F1.0
S'not_moved'
p238
tp239
sS'PTT_2006-03-28pair1_refexps.p(918, 1075)'
p240
(F0.0
S'not_moved'
p241
tp242
sS'PTT_2006-03-28pair1_refexps.p(2624, 2744)'
p243
(F1.0
S'not_moved'
p244
tp245
sS'PTT_2006-02-13pair2a_refexps.p(705, 793)'
p246
(F0.0
S'correct'
p247
tp248
sS'FTT_2006-03-27Pair1_refexps.p(601, 695)'
p249
(F0.0
S'not_moved'
p250
tp251
sS'PTT_2006-03-28pair1_refexps.p(1, 324)'
p252
(F0.0
S'incorrect'
p253
tp254
sS'PTT_2006-03-28pair1_refexps.p(1981, 2057)'
p255
(F1.0
S'not_moved'
p256
tp257
sS'PTT_2006-03-27pair3a_refexps.p(1397, 1815)'
p258
(F0.5
S'incorrect'
p259
tp260
sS'FTT_2006-03-28pair2_refexps.p(226, 275)'
p261
(F0.0
S'correct'
p262
tp263
sS'PTT_2006-06-22pair3a_refexps.p(29, 280)'
p264
(F0.0
S'correct'
p265
tp266
sS'PTT_2006-03-27Pair2a_refexps.p(1, 108)'
p267
(F1.0
S'incorrect'
p268
tp269
sS'FTT_2006-06-22pair2_refexps.p(3965, 4714)'
p270
(F0.0
S'correct'
p271
tp272
sS'FTT_2006-03-28pair2_refexps.p(3234, 3399)'
p273
(F0.5
S'correct'
p274
tp275
sS'FTT_2006-06-22pair1_refexps.p(1, 167)'
p276
(F0.0
S'incorrect'
p277
tp278
sS'PTT_2006-03-27pair3a_refexps.p(3134, 3351)'
p279
(F0.0
S'correct'
p280
tp281
sS'FTT_2006-06-22pair1_refexps.p(550, 686)'
p282
(F1.0
S'not_moved'
p283
tp284
sS'FTT_2006-06-22pair1_refexps.p(3394, 3671)'
p285
(F1.0
S'not_moved'
p286
tp287
sS'FTT_2006-03-27Pair1_refexps.p(1519, 1710)'
p288
(F1.0
S'not_moved'
p289
tp290
sS'PTT_2006-03-28pair1_refexps.p(1636, 1702)'
p291
(F1.0
S'incorrect'
p292
tp293
sS'PTT_2006-03-28pair1_refexps.p(1346, 1496)'
p294
(F1.0
S'not_moved'
p295
tp296
sS'FTT_2006-03-28pair2_refexps.p(1485, 1554)'
p297
(F1.0
S'correct'
p298
tp299
sS'FTT_2006-06-22pair1_refexps.p(4292, 4878)'
p300
(F1.0
S'correct'
p301
tp302
sS'FTT_2006-03-27Pair1_refexps.p(2843, 2973)'
p303
(F0.0
S'not_moved'
p304
tp305
sS'FTT_2006-06-22pair1_refexps.p(3286, 3306)'
p306
(F1.0
S'not_moved'
p307
tp308
sS'FTT_2006-03-28pair2_refexps.p(2755, 2812)'
p309
(F1.0
S'not_moved'
p310
tp311
sS'FTT_2006-03-28pair2_refexps.p(2156, 2341)'
p312
(F0.0
S'not_moved'
p313
tp314
sS'FTT_2006-03-27Pair1_refexps.p(1888, 2021)'
p315
(F0.0
S'correct'
p316
tp317
sS'FTT_2006-03-27Pair1_refexps.p(2355, 2504)'
p318
(F0.0
S'correct'
p319
tp320
sS'FTT_2006-06-22pair1_refexps.p(2381, 2763)'
p321
(F0.0
S'incorrect'
p322
tp323
sS'PTT_2006-03-27pair3a_refexps.p(844, 1034)'
p324
(F0.0
S'correct'
p325
tp326
sS'PTT_2006-03-27pair3a_refexps.p(3352, 3512)'
p327
(F0.0
S'correct'
p328
tp329
sS'FTT_2006-06-22pair1_refexps.p(922, 1299)'
p330
(F1.0
S'not_moved'
p331
tp332
sS'PTT_2006-02-13pair2a_refexps.p(1887, 2355)'
p333
(F1.0
S'incorrect'
p334
tp335
sS'FTT_2006-03-28pair2_refexps.p(3064, 3100)'
p336
(F0.0
S'correct'
p337
tp338
sS'PTT_2006-02-13pair2a_refexps.p(527, 704)'
p339
(F0.0
S'correct'
p340
tp341
sS'FTT_2006-06-22pair2_refexps.p(1, 1621)'
p342
(F0.5714285714285714
S'incorrect'
p343
tp344
sS'PTT_2006-03-27Pair2a_refexps.p(830, 923)'
p345
(F0.0
S'incorrect'
p346
tp347
sS'PTT_2006-03-27Pair2a_refexps.p(231, 311)'
p348
(F0.0
S'incorrect'
p349
tp350
sS'PTT_2006-06-22pair3a_refexps.p(607, 1124)'
p351
(F0.6666666666666666
S'correct'
p352
tp353
sS'PTT_2006-03-28pair1_refexps.p(2745, 2877)'
p354
(F0.0
S'correct'
p355
tp356
sS'PTT_2006-03-27pair3a_refexps.p(1035, 1203)'
p357
(F0.0
S'correct'
p358
tp359
ssS'coherence p'
p360
(dp361
g3
(cnumpy.core.multiarray
scalar
p362
(cnumpy
dtype
p363
(S'f8'
p364
I0
I1
tp365
Rp366
(I3
S'<'
p367
NNNI-1
I-1
I0
tp368
bS'\x00\x00\x00\x00\x00\x00\x00\x00'
p369
tp370
Rp371
g4
tp372
sg6
(g362
(g366
S'\xef9\xfa\xfeB.\xe6?'
p373
tp374
Rp375
g7
tp376
sg9
(g362
(g366
S'\x00\x00\x00\x00\x00\x00\x00\x00'
p377
tp378
Rp379
g10
tp380
sg12
(g362
(g366
S'\x00\x00\x00\x00\x00\x00\x00\x00'
p381
tp382
Rp383
g13
tp384
sg15
(g362
(g366
S'\x00\x00\x00\x00\x00\x00\x00\x00'
p385
tp386
Rp387
g16
tp388
sg18
(g362
(g366
S'\x00\x00\x00\x00\x00\x00\x00\x00'
p389
tp390
Rp391
g19
tp392
sg21
(g362
(g366
S' \x8a\x08\xf6R^\xe4?'
p393
tp394
Rp395
g22
tp396
sg24
(g362
(g366
S' \x8a\x08\xf6R^\xe4?'
p397
tp398
Rp399
g25
tp400
sg159
(g362
(g366
S'\xef9\xfa\xfeB.\xe6?'
p401
tp402
Rp403
g160
tp404
sg30
(g362
(g366
S'\x00\x00\x00\x00\x00\x00\x00\x00'
p405
tp406
Rp407
g31
tp408
sg33
(g362
(g366
S' \x8a\x08\xf6R^\xe4?'
p409
tp410
Rp411
g34
tp412
sS'FTT_2006-03-27Pair1_refexps.p(2974, 3031)'
p413
(g362
(g366
S'\x00\x00\x00\x00\x00\x00\x00\x00'
p414
tp415
Rp416
S'not_moved'
p417
tp418
sg36
(g362
(g366
S'\xe8\xf0}\xf1K\x03\xe0?'
p419
tp420
Rp421
g37
tp422
sg39
(g362
(g366
S'\x00\x00\x00\x00\x00\x00\x00\x00'
p423
tp424
Rp425
g40
tp426
sg42
(g362
(g366
S'\x00\x00\x00\x00\x00\x00\x00\x00'
p427
tp428
Rp429
g43
tp430
sg45
(g362
(g366
S'\x00\x00\x00\x00\x00\x00\x00\x00'
p431
tp432
Rp433
g46
tp434
sg48
(g362
(g366
S'\x00\x00\x00\x00\x00\x00\x00\x00'
p435
tp436
Rp437
g49
tp438
sg51
(g362
(g366
S'\x00\x00\x00\x00\x00\x00\x00\x00'
p439
tp440
Rp441
g52
tp442
sg54
(g362
(g366
S"cm\x06+'R\xe5?"
p443
tp444
Rp445
g55
tp446
sS'FTT_2006-03-28pair2_refexps.p(2128, 2155)'
p447
(g362
(g366
S'\x00\x00\x00\x00\x00\x00\x00\x00'
p448
tp449
Rp450
S'not_moved'
p451
tp452
sS'FTT_2006-03-28pair2_refexps.p(177, 225)'
p453
(g362
(g366
S'\xef9\xfa\xfeB.\xe6?'
p454
tp455
Rp456
S'correct'
p457
tp458
sS'PTT_2006-06-22pair3a_refexps.p(379, 497)'
p459
(g362
(g366
S'\x00\x00\x00\x00\x00\x00\x00\x00'
p460
tp461
Rp462
S'correct'
p463
tp464
sS'FTT_2006-03-28pair2_refexps.p(2932, 3021)'
p465
(g362
(g366
S'\x00\x00\x00\x00\x00\x00\x00\x00'
p466
tp467
Rp468
S'not_moved'
p469
tp470
sg195
(g362
(g366
S' \x8a\x08\xf6R^\xe4?'
p471
tp472
Rp473
g196
tp474
sg60
(g362
(g366
S'\x00\x00\x00\x00\x00\x00\x00\x00'
p475
tp476
Rp477
g61
tp478
sS'FTT_2006-06-22pair1_refexps.p(1388, 1416)'
p479
(g362
(g366
S'\x00\x00\x00\x00\x00\x00\x00\x00'
p480
tp481
Rp482
S'not_moved'
p483
tp484
sg66
(g362
(g366
S'\x00\x00\x00\x00\x00\x00\x00\x00'
p485
tp486
Rp487
g67
tp488
sS'PTT_2006-06-22pair3a_refexps.p(1236, 1355)'
p489
(g362
(g366
S'\x00\x00\x00\x00\x00\x00\x00\x00'
p490
tp491
Rp492
S'correct'
p493
tp494
sg69
(g362
(g366
S'\x00\x00\x00\x00\x00\x00\x00\x00'
p495
tp496
Rp497
g70
tp498
sg72
(g362
(g366
S'\xdaa\x89\xe7f`\xe5?'
p499
tp500
Rp501
g73
tp502
sS'PTT_2006-03-28pair1_refexps.p(1324, 1345)'
p503
(g362
(g366
S'\x00\x00\x00\x00\x00\x00\x00\x00'
p504
tp505
Rp506
S'not_moved'
p507
tp508
sg75
(g362
(g366
S'\x00\x00\x00\x00\x00\x00\x00\x00'
p509
tp510
Rp511
g76
tp512
sS'FTT_2006-03-28pair2_refexps.p(2543, 2566)'
p513
(g362
(g366
S'\x00\x00\x00\x00\x00\x00\x00\x00'
p514
tp515
Rp516
S'not_moved'
p517
tp518
sg81
(g362
(g366
S'N\xef\xf0E\xa6\xfe\xe1?'
p519
tp520
Rp521
g82
tp522
sg78
(g362
(g366
S'\xc82t\xc3O\x89\xe5?'
p523
tp524
Rp525
g79
tp526
sg84
(g362
(g366
S'\x85=\xc3s\xcf0\xf2?'
p527
tp528
Rp529
g85
tp530
sS'FTT_2006-03-28pair2_refexps.p(893, 939)'
p531
(g362
(g366
S'\x00\x00\x00\x00\x00\x00\x00\x00'
p532
tp533
Rp534
S'correct'
p535
tp536
sS'FTT_2006-03-28pair2_refexps.p(1945, 1966)'
p537
(g362
(g366
S'\x00\x00\x00\x00\x00\x00\x00\x00'
p538
tp539
Rp540
S'not_moved'
p541
tp542
sS'PTT_2006-03-27Pair2a_refexps.p(1395, 1451)'
p543
(g362
(g366
S'\xe8\xf0}\xf1K\x03\xe0?'
p544
tp545
Rp546
S'correct'
p547
tp548
sg87
(g362
(g366
S'\x00\x00\x00\x00\x00\x00\x00\x00'
p549
tp550
Rp551
g88
tp552
sg90
(g362
(g366
S'\xe8\xf0}\xf1K\x03\xe0?'
p553
tp554
Rp555
g91
tp556
sg93
(g362
(g366
S'\xa2\xcf#\xf0\x17\x95\xee?'
p557
tp558
Rp559
g94
tp560
sg144
(g362
(g366
S'\n\x03\xadz\xea\x93\xf1?'
p561
tp562
Rp563
g145
tp564
sS'FTT_2006-03-27Pair1_refexps.p(1761, 1787)'
p565
(g362
(g366
S'\x00\x00\x00\x00\x00\x00\x00\x00'
p566
tp567
Rp568
S'not_moved'
p569
tp570
sS'FTT_2006-03-28pair2_refexps.p(1664, 1695)'
p571
(g362
(g366
S'\xef9\xfa\xfeB.\xe6?'
p572
tp573
Rp574
S'correct'
p575
tp576
sS'PTT_2006-06-22pair3a_refexps.p(1753, 1776)'
p577
(g362
(g366
S'\x00\x00\x00\x00\x00\x00\x00\x00'
p578
tp579
Rp580
S'correct'
p581
tp582
sg99
(g362
(g366
S'\x00\x00\x00\x00\x00\x00\x00\x00'
p583
tp584
Rp585
g100
tp586
sg102
(g362
(g366
S'\x00\x00\x00\x00\x00\x00\x00\x00'
p587
tp588
Rp589
g103
tp590
sg105
(g362
(g366
S'N\xef\xf0E\xa6\xfe\xe1?'
p591
tp592
Rp593
g106
tp594
sg108
(g362
(g366
S' \x8a\x08\xf6R^\xe4?'
p595
tp596
Rp597
g109
tp598
sg231
(g362
(g366
S'\x00\x00\x00\x00\x00\x00\x00\x00'
p599
tp600
Rp601
g232
tp602
sS'PTT_2006-03-28pair1_refexps.p(1512, 1635)'
p603
(g362
(g366
S'\x00\x00\x00\x00\x00\x00\x00\x00'
p604
tp605
Rp606
S'incorrect'
p607
tp608
sg111
(g362
(g366
S'\x00\x00\x00\x00\x00\x00\x00\x00'
p609
tp610
Rp611
g112
tp612
sg114
(g362
(g366
S'\x00\x00\x00\x00\x00\x00\x00\x00'
p613
tp614
Rp615
g115
tp616
sS'PTT_2006-03-28pair1_refexps.p(1956, 1980)'
p617
(g362
(g366
S'\x00\x00\x00\x00\x00\x00\x00\x00'
p618
tp619
Rp620
S'incorrect'
p621
tp622
sg117
(g362
(g366
S'p\x94\xfb\x18b\xda\xe5?'
p623
tp624
Rp625
g118
tp626
sg120
(g362
(g366
S'\x1aH\xb1\xf5\x13\xc3\xeb?'
p627
tp628
Rp629
g121
tp630
sg123
(g362
(g366
S'(}\x0b\xc3\x9dh\xee?'
p631
tp632
Rp633
g124
tp634
sg126
(g362
(g366
S'\x00\x00\x00\x00\x00\x00\x00\x00'
p635
tp636
Rp637
g127
tp638
sg129
(g362
(g366
S'z\xb2\xa6\x83X?\xda?'
p639
tp640
Rp641
g130
tp642
sS'FTT_2006-03-27Pair1_refexps.p(1750, 1760)'
p643
(g362
(g366
S'\x00\x00\x00\x00\x00\x00\x00\x00'
p644
tp645
Rp646
S'not_moved'
p647
tp648
sS'FTT_2006-03-28pair2_refexps.p(2813, 2824)'
p649
(g362
(g366
S'\x00\x00\x00\x00\x00\x00\x00\x00'
p650
tp651
Rp652
S'not_moved'
p653
tp654
sS'FTT_2006-06-22pair1_refexps.p(1417, 1479)'
p655
(g362
(g366
S'\x00\x00\x00\x00\x00\x00\x00\x00'
p656
tp657
Rp658
S'not_moved'
p659
tp660
sS'PTT_2006-03-27Pair2a_refexps.p(312, 338)'
p661
(g362
(g366
S'\x00\x00\x00\x00\x00\x00\x00\x00'
p662
tp663
Rp664
S'not_moved'
p665
tp666
sS'FTT_2006-03-27Pair1_refexps.p(731, 759)'
p667
(g362
(g366
S'\x00\x00\x00\x00\x00\x00\x00\x00'
p668
tp669
Rp670
S'not_moved'
p671
tp672
sS'FTT_2006-06-22pair1_refexps.p(192, 236)'
p673
(g362
(g366
S'\x00\x00\x00\x00\x00\x00\x00\x00'
p674
tp675
Rp676
S'correct'
p677
tp678
sg132
(g362
(g366
S'\xef9\xfa\xfeB.\xe6?'
p679
tp680
Rp681
g133
tp682
sg135
(g362
(g366
S'\x00\x00\x00\x00\x00\x00\x00\x00'
p683
tp684
Rp685
g136
tp686
sg138
(g362
(g366
S'\xe8\xf0}\xf1K\x03\xe0?'
p687
tp688
Rp689
g139
tp690
sg141
(g362
(g366
S'\x1bH\xb1\xf5\x13\xc3\xeb?'
p691
tp692
Rp693
g142
tp694
sg96
(g362
(g366
S'\x00\x00\x00\x00\x00\x00\x00\x00'
p695
tp696
Rp697
g97
tp698
sg147
(g362
(g366
S'\x00\x00\x00\x00\x00\x00\x00\x00'
p699
tp700
Rp701
g148
tp702
sg150
(g362
(g366
S'\x00\x00\x00\x00\x00\x00\x00\x00'
p703
tp704
Rp705
g151
tp706
sg318
(g362
(g366
S'p\x94\xfb\x18b\xda\xe5?'
p707
tp708
Rp709
g319
tp710
sS'FTT_2006-06-22pair1_refexps.p(3277, 3285)'
p711
(g362
(g366
S'\x00\x00\x00\x00\x00\x00\x00\x00'
p712
tp713
Rp714
S'not_moved'
p715
tp716
sS'PTT_2006-03-27pair3a_refexps.p(3513, 3659)'
p717
(g362
(g366
S'\x00\x00\x00\x00\x00\x00\x00\x00'
p718
tp719
Rp720
S'correct'
p721
tp722
sg153
(g362
(g366
S'p\x94\xfb\x18b\xda\xe5?'
p723
tp724
Rp725
g154
tp726
sS'PTT_2006-06-22pair3a_refexps.p(498, 606)'
p727
(g362
(g366
S' \x8a\x08\xf6R^\xe4?'
p728
tp729
Rp730
S'correct'
p731
tp732
sg156
(g362
(g366
S'\x00\x00\x00\x00\x00\x00\x00\x00'
p733
tp734
Rp735
g157
tp736
sg276
(g362
(g366
S'\x00\x00\x00\x00\x00\x00\x00\x00'
p737
tp738
Rp739
g277
tp740
sg162
(g362
(g366
S'\xe4\xeb.\xab\xe0\x1c\xec?'
p741
tp742
Rp743
g163
tp744
sg165
(g362
(g366
S'\x00\x00\x00\x00\x00\x00\x00\x00'
p745
tp746
Rp747
g166
tp748
sg168
(g362
(g366
S'\x00\x00\x00\x00\x00\x00\x00\x00'
p749
tp750
Rp751
g169
tp752
sg171
(g362
(g366
S'\x00\x00\x00\x00\x00\x00\x00\x00'
p753
tp754
Rp755
g172
tp756
sS'FTT_2006-06-22pair1_refexps.p(237, 260)'
p757
(g362
(g366
S'\x00\x00\x00\x00\x00\x00\x00\x00'
p758
tp759
Rp760
S'correct'
p761
tp762
sS'PTT_2006-03-27Pair2a_refexps.p(625, 630)'
p763
(g362
(g366
S'\x00\x00\x00\x00\x00\x00\x00\x00'
p764
tp765
Rp766
S'correct'
p767
tp768
sg174
(g362
(g366
S'\x00\x00\x00\x00\x00\x00\x00\x00'
p769
tp770
Rp771
g175
tp772
sg177
(g362
(g366
S'j\xf1\xf3i0\xe1\xe5?'
p773
tp774
Rp775
g178
tp776
sg180
(g362
(g366
S'\x00\x00\x00\x00\x00\x00\x00\x00'
p777
tp778
Rp779
g181
tp780
sg183
(g362
(g366
S'S\x11^ NF\xf0?'
p781
tp782
Rp783
g184
tp784
sS'FTT_2006-03-28pair2_refexps.p(133, 176)'
p785
(g362
(g366
S'\xef9\xfa\xfeB.\xe6?'
p786
tp787
Rp788
S'correct'
p789
tp790
sS'PTT_2006-03-27Pair2a_refexps.p(1214, 1296)'
p791
(g362
(g366
S'\x00\x00\x00\x00\x00\x00\x00\x00'
p792
tp793
Rp794
S'correct'
p795
tp796
sg186
(g362
(g366
S'\x00\x00\x00\x00\x00\x00\x00\x00'
p797
tp798
Rp799
g187
tp800
sg189
(g362
(g366
S'\x00\x00\x00\x00\x00\x00\x00\x00'
p801
tp802
Rp803
g190
tp804
sS'FTT_2006-06-22pair2_refexps.p(5640, 5688)'
p805
(g362
(g366
S'\x00\x00\x00\x00\x00\x00\x00\x00'
p806
tp807
Rp808
S'correct'
p809
tp810
sg192
(g362
(g366
S'|\xd1\x93\xb4\x1f\xc0\xe2?'
p811
tp812
Rp813
g193
tp814
sS'PTT_2006-03-27Pair2a_refexps.p(1197, 1213)'
p815
(g362
(g366
S'\x00\x00\x00\x00\x00\x00\x00\x00'
p816
tp817
Rp818
S'correct'
p819
tp820
sS'PTT_2006-03-27Pair2a_refexps.p(385, 407)'
p821
(g362
(g366
S'\x00\x00\x00\x00\x00\x00\x00\x00'
p822
tp823
Rp824
S'incorrect'
p825
tp826
sg198
(g362
(g366
S'\x00\x00\x00\x00\x00\x00\x00\x00'
p827
tp828
Rp829
g199
tp830
sg201
(g362
(g366
S'\x00\x00\x00\x00\x00\x00\x00\x00'
p831
tp832
Rp833
g202
tp834
sS'FTT_2006-03-27Pair1_refexps.p(3032, 3049)'
p835
(g362
(g366
S'\x00\x00\x00\x00\x00\x00\x00\x00'
p836
tp837
Rp838
S'correct'
p839
tp840
sg204
(g362
(g366
S'\x00\x00\x00\x00\x00\x00\x00\x00'
p841
tp842
Rp843
g205
tp844
sg207
(g362
(g366
S'\x00\x00\x00\x00\x00\x00\x00\x00'
p845
tp846
Rp847
g208
tp848
sS'FTT_2006-03-28pair2_refexps.p(2342, 2375)'
p849
(g362
(g366
S'\x00\x00\x00\x00\x00\x00\x00\x00'
p850
tp851
Rp852
S'not_moved'
p853
tp854
sg210
(g362
(g366
S'\x00\x00\x00\x00\x00\x00\x00\x00'
p855
tp856
Rp857
g211
tp858
sg213
(g362
(g366
S'\xca}\xaf\x057\x8a\xe7?'
p859
tp860
Rp861
g214
tp862
sS'FTT_2006-06-22pair1_refexps.p(5101, 5143)'
p863
(g362
(g366
S'\x00\x00\x00\x00\x00\x00\x00\x00'
p864
tp865
Rp866
S'correct'
p867
tp868
sS'FTT_2006-06-22pair1_refexps.p(1581, 1605)'
p869
(g362
(g366
S'\x00\x00\x00\x00\x00\x00\x00\x00'
p870
tp871
Rp872
S'incorrect'
p873
tp874
sg228
(g362
(g366
S'\x00\x00\x00\x00\x00\x00\x00\x00'
p875
tp876
Rp877
g229
tp878
sg216
(g362
(g366
S'\x00\x00\x00\x00\x00\x00\x00\x00'
p879
tp880
Rp881
g217
tp882
sg57
(g362
(g366
S'\x00\x00\x00\x00\x00\x00\x00\x00'
p883
tp884
Rp885
g58
tp886
sS'PTT_2006-02-13pair2a_refexps.p(2417, 2463)'
p887
(g362
(g366
S'\x00\x00\x00\x00\x00\x00\x00\x00'
p888
tp889
Rp890
S'not_moved'
p891
tp892
sg333
(g362
(g366
S'\x00\x00\x00\x00\x00\x00\x00\x00'
p893
tp894
Rp895
g334
tp896
sS'PTT_2006-02-13pair2a_refexps.p(1611, 1766)'
p897
(g362
(g366
S'\x00\x00\x00\x00\x00\x00\x00\x00'
p898
tp899
Rp900
S'correct'
p901
tp902
sg222
(g362
(g366
S'N\xef\xf0E\xa6\xfe\xe1?'
p903
tp904
Rp905
g223
tp906
sg225
(g362
(g366
S'\x00\x00\x00\x00\x00\x00\x00\x00'
p907
tp908
Rp909
g226
tp910
sg219
(g362
(g366
S'\x00\x00\x00\x00\x00\x00\x00\x00'
p911
tp912
Rp913
g220
tp914
sS'PTT_2006-03-27Pair2a_refexps.p(109, 127)'
p915
(g362
(g366
S'\x00\x00\x00\x00\x00\x00\x00\x00'
p916
tp917
Rp918
S'incorrect'
p919
tp920
sS'PTT_2006-03-27Pair2a_refexps.p(1491, 1558)'
p921
(g362
(g366
S'\x00\x00\x00\x00\x00\x00\x00\x00'
p922
tp923
Rp924
S'correct'
p925
tp926
sS'PTT_2006-03-27Pair2a_refexps.p(1098, 1119)'
p927
(g362
(g366
S'\x00\x00\x00\x00\x00\x00\x00\x00'
p928
tp929
Rp930
S'correct'
p931
tp932
sg234
(g362
(g366
S'\x00\x00\x00\x00\x00\x00\x00\x00'
p933
tp934
Rp935
g235
tp936
sS'FTT_2006-06-22pair1_refexps.p(2322, 2337)'
p937
(g362
(g366
S' \x8a\x08\xf6R^\xe4?'
p938
tp939
Rp940
S'not_moved'
p941
tp942
sg237
(g362
(g366
S'\xc82t\xc3O\x89\xe5?'
p943
tp944
Rp945
g238
tp946
sg240
(g362
(g366
S'\x00\x00\x00\x00\x00\x00\x00\x00'
p947
tp948
Rp949
g241
tp950
sS'PTT_2006-06-22pair3a_refexps.p(1356, 1399)'
p951
(g362
(g366
S'\x00\x00\x00\x00\x00\x00\x00\x00'
p952
tp953
Rp954
S'correct'
p955
tp956
sS'FTT_2006-06-22pair2_refexps.p(3464, 3707)'
p957
(g362
(g366
S'\x00\x00\x00\x00\x00\x00\x00\x00'
p958
tp959
Rp960
S'incorrect'
p961
tp962
sS'FTT_2006-03-27Pair1_refexps.p(1788, 1887)'
p963
(g362
(g366
S'N\xef\xf0E\xa6\xfe\xe1?'
p964
tp965
Rp966
S'not_moved'
p967
tp968
sg243
(g362
(g366
S'\x00\x00\x00\x00\x00\x00\x00\x00'
p969
tp970
Rp971
g244
tp972
sg246
(g362
(g366
S'\x00\x00\x00\x00\x00\x00\x00\x00'
p973
tp974
Rp975
g247
tp976
sg249
(g362
(g366
S'\x06\xc1Uz\xab\xf8\xf8?'
p977
tp978
Rp979
g250
tp980
sg252
(g362
(g366
S's\xab;?\xb2\xa2\xf0?'
p981
tp982
Rp983
g253
tp984
sg255
(g362
(g366
S'\x00\x00\x00\x00\x00\x00\x00\x00'
p985
tp986
Rp987
g256
tp988
sg258
(g362
(g366
S'\x07T;\xae\xfe\xd5\xdc?'
p989
tp990
Rp991
g259
tp992
sS'PTT_2006-03-27Pair2a_refexps.p(924, 1015)'
p993
(g362
(g366
S'\x00\x00\x00\x00\x00\x00\x00\x00'
p994
tp995
Rp996
S'correct'
p997
tp998
sS'PTT_2006-03-27Pair2a_refexps.p(1120, 1168)'
p999
(g362
(g366
S'\xef9\xfa\xfeB.\xe6?'
p1000
tp1001
Rp1002
S'correct'
p1003
tp1004
sg261
(g362
(g366
S'\x00\x00\x00\x00\x00\x00\x00\x00'
p1005
tp1006
Rp1007
g262
tp1008
sg264
(g362
(g366
S'\x00\x00\x00\x00\x00\x00\x00\x00'
p1009
tp1010
Rp1011
g265
tp1012
sg267
(g362
(g366
S'\x00\x00\x00\x00\x00\x00\x00\x00'
p1013
tp1014
Rp1015
g268
tp1016
sS'PTT_2006-03-28pair1_refexps.p(1703, 1728)'
p1017
(g362
(g366
S'\x00\x00\x00\x00\x00\x00\x00\x00'
p1018
tp1019
Rp1020
S'not_moved'
p1021
tp1022
sg270
(g362
(g366
S'(}\x0b\xc3\x9dh\xee?'
p1023
tp1024
Rp1025
g271
tp1026
sS'FTT_2006-06-22pair2_refexps.p(5602, 5639)'
p1027
(g362
(g366
S'\xef9\xfa\xfeB.\xe6?'
p1028
tp1029
Rp1030
S'correct'
p1031
tp1032
sg273
(g362
(g366
S'\xa2\xcf#\xf0\x17\x95\xee?'
p1033
tp1034
Rp1035
g274
tp1036
sg330
(g362
(g366
S'\x00\x00\x00\x00\x00\x00\x00\x00'
p1037
tp1038
Rp1039
g331
tp1040
sS'FTT_2006-03-27Pair1_refexps.p(3568, 3607)'
p1041
(g362
(g366
S' \x8a\x08\xf6R^\xe4?'
p1042
tp1043
Rp1044
S'not_moved'
p1045
tp1046
sS'FTT_2006-03-27Pair1_refexps.p(3444, 3495)'
p1047
(g362
(g366
S'\xef9\xfa\xfeB.\xe6?'
p1048
tp1049
Rp1050
S'not_moved'
p1051
tp1052
sg27
(g362
(g366
S'\x00\x00\x00\x00\x00\x00\x00\x00'
p1053
tp1054
Rp1055
g28
tp1056
sg279
(g362
(g366
S'\xe8\xf0}\xf1K\x03\xe0?'
p1057
tp1058
Rp1059
g280
tp1060
sg282
(g362
(g366
S'\x00\x00\x00\x00\x00\x00\x00\x00'
p1061
tp1062
Rp1063
g283
tp1064
sS'FTT_2006-06-22pair1_refexps.p(5068, 5100)'
p1065
(g362
(g366
S'\x00\x00\x00\x00\x00\x00\x00\x00'
p1066
tp1067
Rp1068
S'correct'
p1069
tp1070
sg285
(g362
(g366
S'\xe8\xf0}\xf1K\x03\xe0?'
p1071
tp1072
Rp1073
g286
tp1074
sS'FTT_2006-03-28pair2_refexps.p(3441, 3556)'
p1075
(g362
(g366
S'\x00\x00\x00\x00\x00\x00\x00\x00'
p1076
tp1077
Rp1078
S'correct'
p1079
tp1080
sg291
(g362
(g366
S'\x00\x00\x00\x00\x00\x00\x00\x00'
p1081
tp1082
Rp1083
g292
tp1084
sg294
(g362
(g366
S'\x00\x00\x00\x00\x00\x00\x00\x00'
p1085
tp1086
Rp1087
g295
tp1088
sS'FTT_2006-03-27Pair1_refexps.p(704, 730)'
p1089
(g362
(g366
S'\x00\x00\x00\x00\x00\x00\x00\x00'
p1090
tp1091
Rp1092
S'not_moved'
p1093
tp1094
sg297
(g362
(g366
S'\x00\x00\x00\x00\x00\x00\x00\x00'
p1095
tp1096
Rp1097
g298
tp1098
sg300
(g362
(g366
S'\x06\xfb\x03\xab\x86+\xe5?'
p1099
tp1100
Rp1101
g301
tp1102
sS'FTT_2006-03-28pair2_refexps.p(3022, 3063)'
p1103
(g362
(g366
S'\x00\x00\x00\x00\x00\x00\x00\x00'
p1104
tp1105
Rp1106
S'not_moved'
p1107
tp1108
sg303
(g362
(g366
S' \x8a\x08\xf6R^\xe4?'
p1109
tp1110
Rp1111
g304
tp1112
sg306
(g362
(g366
S'\x00\x00\x00\x00\x00\x00\x00\x00'
p1113
tp1114
Rp1115
g307
tp1116
sS'PTT_2006-03-27Pair2a_refexps.p(1016, 1097)'
p1117
(g362
(g366
S'\x00\x00\x00\x00\x00\x00\x00\x00'
p1118
tp1119
Rp1120
S'not_moved'
p1121
tp1122
sg309
(g362
(g366
S'\x00\x00\x00\x00\x00\x00\x00\x00'
p1123
tp1124
Rp1125
g310
tp1126
sg312
(g362
(g366
S'N\xef\xf0E\xa6\xfe\xe1?'
p1127
tp1128
Rp1129
g313
tp1130
sg315
(g362
(g366
S'\x00\x00\x00\x00\x00\x00\x00\x00'
p1131
tp1132
Rp1133
g316
tp1134
sS'FTT_2006-06-22pair1_refexps.p(393, 504)'
p1135
(g362
(g366
S'\xd4BV\xf8\xf3\xe0\xf0?'
p1136
tp1137
Rp1138
S'incorrect'
p1139
tp1140
sg321
(g362
(g366
S'\x80\xf1\xd6\xcfq\xc0\xe3?'
p1141
tp1142
Rp1143
g322
tp1144
sS'PTT_2006-03-28pair1_refexps.p(2058, 2112)'
p1145
(g362
(g366
S'\x00\x00\x00\x00\x00\x00\x00\x00'
p1146
tp1147
Rp1148
S'incorrect'
p1149
tp1150
sS'PTT_2006-02-13pair2a_refexps.p(2356, 2416)'
p1151
(g362
(g366
S's\xab;?\xb2\xa2\xf0?'
p1152
tp1153
Rp1154
S'correct'
p1155
tp1156
sg324
(g362
(g366
S'\x00\x00\x00\x00\x00\x00\x00\x00'
p1157
tp1158
Rp1159
g325
tp1160
sg327
(g362
(g366
S'\x00\x00\x00\x00\x00\x00\x00\x00'
p1161
tp1162
Rp1163
g328
tp1164
sS'FTT_2006-03-27Pair1_refexps.p(2750, 2814)'
p1165
(g362
(g366
S'\x80?\xff<\xb6.\xf0?'
p1166
tp1167
Rp1168
S'correct'
p1169
tp1170
sS'PTT_2006-03-27Pair2a_refexps.p(589, 624)'
p1171
(g362
(g366
S' \x8a\x08\xf6R^\xe4?'
p1172
tp1173
Rp1174
S'not_moved'
p1175
tp1176
sg351
(g362
(g366
S'i\x1f-\x98\x00\x1d\xd8?'
p1177
tp1178
Rp1179
g352
tp1180
sS'FTT_2006-06-22pair1_refexps.p(168, 191)'
p1181
(g362
(g366
S' \x8a\x08\xf6R^\xe4?'
p1182
tp1183
Rp1184
S'correct'
p1185
tp1186
sg336
(g362
(g366
S'\x00\x00\x00\x00\x00\x00\x00\x00'
p1187
tp1188
Rp1189
g337
tp1190
sg339
(g362
(g366
S'\x80?\xff<\xb6.\xf0?'
p1191
tp1192
Rp1193
g340
tp1194
sS'PTT_2006-03-28pair1_refexps.p(2479, 2530)'
p1195
(g362
(g366
S'\xef9\xfa\xfeB.\xe6?'
p1196
tp1197
Rp1198
S'not_moved'
p1199
tp1200
sS'PTT_2006-03-28pair1_refexps.p(1239, 1276)'
p1201
(g362
(g366
S'\x00\x00\x00\x00\x00\x00\x00\x00'
p1202
tp1203
Rp1204
S'not_moved'
p1205
tp1206
sg354
(g362
(g366
S'\x00\x00\x00\x00\x00\x00\x00\x00'
p1207
tp1208
Rp1209
g355
tp1210
sS'FTT_2006-03-28pair2_refexps.p(2825, 2867)'
p1211
(g362
(g366
S'\x00\x00\x00\x00\x00\x00\x00\x00'
p1212
tp1213
Rp1214
S'not_moved'
p1215
tp1216
sg342
(g362
(g366
S'M4\xd5jLX\xde?'
p1217
tp1218
Rp1219
g343
tp1220
sg345
(g362
(g366
S'\x00\x00\x00\x00\x00\x00\x00\x00'
p1221
tp1222
Rp1223
g346
tp1224
sg63
(g362
(g366
S' \x8a\x08\xf6R^\xe4?'
p1225
tp1226
Rp1227
g64
tp1228
sS'PTT_2006-03-27pair3a_refexps.p(1816, 1947)'
p1229
(g362
(g366
S'\x00\x00\x00\x00\x00\x00\x00\x00'
p1230
tp1231
Rp1232
S'correct'
p1233
tp1234
sS'FTT_2006-03-27Pair1_refexps.p(2815, 2842)'
p1235
(g362
(g366
S'\xef9\xfa\xfeB.\xe6?'
p1236
tp1237
Rp1238
S'not_moved'
p1239
tp1240
sg348
(g362
(g366
S'\x00\x00\x00\x00\x00\x00\x00\x00'
p1241
tp1242
Rp1243
g349
tp1244
sg288
(g362
(g366
S'\n\x03\xadz\xea\x93\xf1?'
p1245
tp1246
Rp1247
g289
tp1248
sS'FTT_2006-03-28pair2_refexps.p(454, 526)'
p1249
(g362
(g366
S'\xd4BV\xf8\xf3\xe0\xf0?'
p1250
tp1251
Rp1252
S'correct'
p1253
tp1254
sS'PTT_2006-03-27Pair2a_refexps.p(1169, 1196)'
p1255
(g362
(g366
S'\x00\x00\x00\x00\x00\x00\x00\x00'
p1256
tp1257
Rp1258
S'correct'
p1259
tp1260
sS'FTT_2006-06-22pair1_refexps.p(5033, 5067)'
p1261
(g362
(g366
S'\x00\x00\x00\x00\x00\x00\x00\x00'
p1262
tp1263
Rp1264
S'correct'
p1265
tp1266
sg357
(g362
(g366
S'\x00\x00\x00\x00\x00\x00\x00\x00'
p1267
tp1268
Rp1269
g358
tp1270
ssS'alignment p'
p1271
(dp1272
g3
(F1.0
g4
tp1273
sg6
(F0.0
g7
tp1274
sg957
(F0.0
g961
tp1275
sg15
(F1.0
g16
tp1276
sg24
(F0.0
g25
tp1277
sg27
(F1.0
g28
tp1278
sg33
(F0.0
g34
tp1279
sg413
(F0.0
g417
tp1280
sg42
(F0.0
g43
tp1281
sg51
(F0.0
g52
tp1282
sg54
(F1.0
g55
tp1283
sg57
(F1.0
g58
tp1284
sg453
(F0.0
g457
tp1285
sg465
(F0.0
g469
tp1286
sg66
(F1.0
g67
tp1287
sg69
(F0.5
g70
tp1288
sg72
(F0.0
g73
tp1289
sg78
(F1.0
g79
tp1290
sg84
(F0.0
g85
tp1291
sg543
(F0.0
g547
tp1292
sg87
(F1.0
g88
tp1293
sg90
(F0.0
g91
tp1294
sg93
(F0.0
g94
tp1295
sg99
(F1.0
g100
tp1296
sg102
(F1.0
g103
tp1297
sg108
(F1.0
g109
tp1298
sg111
(F1.0
g112
tp1299
sg114
(F1.0
g115
tp1300
sg117
(F0.5
g118
tp1301
sg120
(F0.0
g121
tp1302
sg129
(F0.0
g130
tp1303
sg577
(F1.0
g581
tp1304
sg135
(F0.0
g136
tp1305
sg138
(F1.0
g139
tp1306
sg141
(F0.0
g142
tp1307
sg144
(F0.0
g145
tp1308
sg147
(F1.0
g148
tp1309
sg717
(F0.0
g721
tp1310
sg156
(F1.0
g157
tp1311
sg159
(F0.5
g160
tp1312
sg162
(F0.0
g163
tp1313
sg165
(F1.0
g166
tp1314
sg171
(F0.0
g172
tp1315
sg177
(F0.0
g178
tp1316
sg180
(F0.5
g181
tp1317
sg183
(F0.6666666666666666
g184
tp1318
sg189
(F0.0
g190
tp1319
sg192
(F1.0
g193
tp1320
sg195
(F0.0
g196
tp1321
sg821
(F1.0
g825
tp1322
sg198
(F0.0
g199
tp1323
sg207
(F0.0
g208
tp1324
sg210
(F0.0
g211
tp1325
sg204
(F0.0
g205
tp1326
sg150
(F0.0
g151
tp1327
sg897
(F1.0
g901
tp1328
sg222
(F1.0
g223
tp1329
sg219
(F0.0
g220
tp1330
sg234
(F0.6
g235
tp1331
sg237
(F1.0
g238
tp1332
sg240
(F0.0
g241
tp1333
sg228
(F1.0
g229
tp1334
sg243
(F1.0
g244
tp1335
sg249
(F0.0
g250
tp1336
sg252
(F0.0
g253
tp1337
sg258
(F0.5
g259
tp1338
sg270
(F0.0
g271
tp1339
sg273
(F1.0
g274
tp1340
sg279
(F1.0
g280
tp1341
sg282
(F1.0
g283
tp1342
sg1065
(F1.0
g1069
tp1343
sg285
(F1.0
g286
tp1344
sg288
(F0.0
g289
tp1345
sg291
(F0.0
g292
tp1346
sg294
(F0.0
g295
tp1347
sg300
(F0.5
g301
tp1348
sg81
(F1.0
g82
tp1349
sg309
(F1.0
g310
tp1350
sg315
(F0.0
g316
tp1351
sg318
(F0.0
g319
tp1352
sg321
(F0.0
g322
tp1353
sg1145
(F1.0
g1149
tp1354
sg327
(F0.0
g328
tp1355
sg330
(F0.0
g331
tp1356
sg333
(F1.0
g334
tp1357
sg339
(F1.0
g340
tp1358
sg342
(F0.3333333333333333
g343
tp1359
sg1229
(F1.0
g1233
tp1360
sg351
(F1.0
g352
tp1361
sg354
(F0.5
g355
tp1362
sg357
(F0.0
g358
tp1363
ssS'coherence e'
p1364
(dp1365
g3
(g362
(g366
S'\x00\x00\x00\x00\x00\x00\x00\x00'
p1366
tp1367
Rp1368
g4
tp1369
sg6
(g362
(g366
S'\x00\x00\x00\x00\x00\x00\x00\x00'
p1370
tp1371
Rp1372
g7
tp1373
sg9
(g362
(g366
S'\x00\x00\x00\x00\x00\x00\x00\x00'
p1374
tp1375
Rp1376
g10
tp1377
sg12
(g362
(g366
S'\x00\x00\x00\x00\x00\x00\x00\x00'
p1378
tp1379
Rp1380
g13
tp1381
sg15
(g362
(g366
S'\x00\x00\x00\x00\x00\x00\x00\x00'
p1382
tp1383
Rp1384
g16
tp1385
sS'FTT_2006-03-27Pair1_refexps.p(3427, 3443)'
p1386
(g362
(g366
S'\x00\x00\x00\x00\x00\x00\x00\x00'
p1387
tp1388
Rp1389
S'correct'
p1390
tp1391
sg18
(g362
(g366
S'\x00\x00\x00\x00\x00\x00\x00\x00'
p1392
tp1393
Rp1394
g19
tp1395
sg21
(g362
(g366
S'\x00\x00\x00\x00\x00\x00\x00\x00'
p1396
tp1397
Rp1398
g22
tp1399
sg24
(g362
(g366
S'\x00\x00\x00\x00\x00\x00\x00\x00'
p1400
tp1401
Rp1402
g25
tp1403
sg159
(g362
(g366
S' \x8a\x08\xf6R^\xe4?'
p1404
tp1405
Rp1406
g160
tp1407
sg30
(g362
(g366
S'\x00\x00\x00\x00\x00\x00\x00\x00'
p1408
tp1409
Rp1410
g31
tp1411
sg33
(g362
(g366
S'\x00\x00\x00\x00\x00\x00\x00\x00'
p1412
tp1413
Rp1414
g34
tp1415
sS'PTT_2006-03-28pair1_refexps.p(1076, 1100)'
p1416
(g362
(g366
S'\x00\x00\x00\x00\x00\x00\x00\x00'
p1417
tp1418
Rp1419
S'not_moved'
p1420
tp1421
sS'PTT_2006-02-13pair2a_refexps.p(3018, 3026)'
p1422
(g362
(g366
S'\x00\x00\x00\x00\x00\x00\x00\x00'
p1423
tp1424
Rp1425
S'correct'
p1426
tp1427
sg413
(g362
(g366
S' \x8a\x08\xf6R^\xe4?'
p1428
tp1429
Rp1430
g417
tp1431
sg36
(g362
(g366
S'\x00\x00\x00\x00\x00\x00\x00\x00'
p1432
tp1433
Rp1434
g37
tp1435
sg39
(g362
(g366
S'\x00\x00\x00\x00\x00\x00\x00\x00'
p1436
tp1437
Rp1438
g40
tp1439
sg42
(g362
(g366
S'\x00\x00\x00\x00\x00\x00\x00\x00'
p1440
tp1441
Rp1442
g43
tp1443
sg45
(g362
(g366
S'\x00\x00\x00\x00\x00\x00\x00\x00'
p1444
tp1445
Rp1446
g46
tp1447
sg48
(g362
(g366
S'\x00\x00\x00\x00\x00\x00\x00\x00'
p1448
tp1449
Rp1450
g49
tp1451
sg51
(g362
(g366
S'\n\x03\xadz\xea\x93\xf1?'
p1452
tp1453
Rp1454
g52
tp1455
sg54
(g362
(g366
S' \x8a\x08\xf6R^\xe4?'
p1456
tp1457
Rp1458
g55
tp1459
sg57
(g362
(g366
S'\x00\x00\x00\x00\x00\x00\x00\x00'
p1460
tp1461
Rp1462
g58
tp1463
sg453
(g362
(g366
S'\x00\x00\x00\x00\x00\x00\x00\x00'
p1464
tp1465
Rp1466
g457
tp1467
sg465
(g362
(g366
S'\x00\x00\x00\x00\x00\x00\x00\x00'
p1468
tp1469
Rp1470
g469
tp1471
sg60
(g362
(g366
S'\x00\x00\x00\x00\x00\x00\x00\x00'
p1472
tp1473
Rp1474
g61
tp1475
sS'FTT_2006-03-27Pair1_refexps.p(696, 703)'
p1476
(g362
(g366
S'\x00\x00\x00\x00\x00\x00\x00\x00'
p1477
tp1478
Rp1479
S'correct'
p1480
tp1481
sg66
(g362
(g366
S'\x00\x00\x00\x00\x00\x00\x00\x00'
p1482
tp1483
Rp1484
g67
tp1485
sg69
(g362
(g366
S'\x00\x00\x00\x00\x00\x00\x00\x00'
p1486
tp1487
Rp1488
g70
tp1489
sg72
(g362
(g366
S'\x00\x00\x00\x00\x00\x00\x00\x00'
p1490
tp1491
Rp1492
g73
tp1493
sg75
(g362
(g366
S'\x00\x00\x00\x00\x00\x00\x00\x00'
p1494
tp1495
Rp1496
g76
tp1497
sg513
(g362
(g366
S'\x00\x00\x00\x00\x00\x00\x00\x00'
p1498
tp1499
Rp1500
g517
tp1501
sg81
(g362
(g366
S'\x00\x00\x00\x00\x00\x00\x00\x00'
p1502
tp1503
Rp1504
g82
tp1505
sg78
(g362
(g366
S'\x00\x00\x00\x00\x00\x00\x00\x00'
p1506
tp1507
Rp1508
g79
tp1509
sg84
(g362
(g366
S' \x8a\x08\xf6R^\xe4?'
p1510
tp1511
Rp1512
g85
tp1513
sg543
(g362
(g366
S'\x00\x00\x00\x00\x00\x00\x00\x00'
p1514
tp1515
Rp1516
g547
tp1517
sg87
(g362
(g366
S'\x00\x00\x00\x00\x00\x00\x00\x00'
p1518
tp1519
Rp1520
g88
tp1521
sS'FTT_2006-06-22pair2_refexps.p(4882, 4906)'
p1522
(g362
(g366
S'\x00\x00\x00\x00\x00\x00\x00\x00'
p1523
tp1524
Rp1525
S'correct'
p1526
tp1527
sg93
(g362
(g366
S'\x00\x00\x00\x00\x00\x00\x00\x00'
p1528
tp1529
Rp1530
g94
tp1531
sg96
(g362
(g366
S'\x00\x00\x00\x00\x00\x00\x00\x00'
p1532
tp1533
Rp1534
g97
tp1535
sg99
(g362
(g366
S' \x8a\x08\xf6R^\xe4?'
p1536
tp1537
Rp1538
g100
tp1539
sg102
(g362
(g366
S'\x00\x00\x00\x00\x00\x00\x00\x00'
p1540
tp1541
Rp1542
g103
tp1543
sg105
(g362
(g366
S'\xef9\xfa\xfeB.\xe6?'
p1544
tp1545
Rp1546
g106
tp1547
sg108
(g362
(g366
S'\x00\x00\x00\x00\x00\x00\x00\x00'
p1548
tp1549
Rp1550
g109
tp1551
sg603
(g362
(g366
S'\x00\x00\x00\x00\x00\x00\x00\x00'
p1552
tp1553
Rp1554
g607
tp1555
sg111
(g362
(g366
S'\x00\x00\x00\x00\x00\x00\x00\x00'
p1556
tp1557
Rp1558
g112
tp1559
sg114
(g362
(g366
S' \x8a\x08\xf6R^\xe4?'
p1560
tp1561
Rp1562
g115
tp1563
sg117
(g362
(g366
S'\xef9\xfa\xfeB.\xe6?'
p1564
tp1565
Rp1566
g118
tp1567
sg120
(g362
(g366
S'\x00\x00\x00\x00\x00\x00\x00\x00'
p1568
tp1569
Rp1570
g121
tp1571
sg123
(g362
(g366
S'\x00\x00\x00\x00\x00\x00\x00\x00'
p1572
tp1573
Rp1574
g124
tp1575
sg126
(g362
(g366
S'\x00\x00\x00\x00\x00\x00\x00\x00'
p1576
tp1577
Rp1578
g127
tp1579
sg129
(g362
(g366
S'\x00\x00\x00\x00\x00\x00\x00\x00'
p1580
tp1581
Rp1582
g130
tp1583
sg887
(g362
(g366
S'\x00\x00\x00\x00\x00\x00\x00\x00'
p1584
tp1585
Rp1586
g891
tp1587
sS'PTT_2006-03-27Pair2a_refexps.p(1384, 1394)'
p1588
(g362
(g366
S'\x00\x00\x00\x00\x00\x00\x00\x00'
p1589
tp1590
Rp1591
S'not_moved'
p1592
tp1593
sg577
(g362
(g366
S'\x00\x00\x00\x00\x00\x00\x00\x00'
p1594
tp1595
Rp1596
g581
tp1597
sg132
(g362
(g366
S'\x00\x00\x00\x00\x00\x00\x00\x00'
p1598
tp1599
Rp1600
g133
tp1601
sS'PTT_2006-03-27Pair2a_refexps.p(1366, 1383)'
p1602
(g362
(g366
S'\x00\x00\x00\x00\x00\x00\x00\x00'
p1603
tp1604
Rp1605
S'not_moved'
p1606
tp1607
sg135
(g362
(g366
S'N\xef\xf0E\xa6\xfe\xe1?'
p1608
tp1609
Rp1610
g136
tp1611
sg138
(g362
(g366
S'\x00\x00\x00\x00\x00\x00\x00\x00'
p1612
tp1613
Rp1614
g139
tp1615
sg141
(g362
(g366
S'\x00\x00\x00\x00\x00\x00\x00\x00'
p1616
tp1617
Rp1618
g142
tp1619
sg144
(g362
(g366
S'\x00\x00\x00\x00\x00\x00\x00\x00'
p1620
tp1621
Rp1622
g145
tp1623
sg147
(g362
(g366
S'\x00\x00\x00\x00\x00\x00\x00\x00'
p1624
tp1625
Rp1626
g148
tp1627
sg150
(g362
(g366
S'\n\x03\xadz\xea\x93\xf1?'
p1628
tp1629
Rp1630
g151
tp1631
sg318
(g362
(g366
S'\x00\x00\x00\x00\x00\x00\x00\x00'
p1632
tp1633
Rp1634
g319
tp1635
sg717
(g362
(g366
S'\xef9\xfa\xfeB.\xe6?'
p1636
tp1637
Rp1638
g721
tp1639
sg153
(g362
(g366
S'\x00\x00\x00\x00\x00\x00\x00\x00'
p1640
tp1641
Rp1642
g154
tp1643
sg156
(g362
(g366
S'\x00\x00\x00\x00\x00\x00\x00\x00'
p1644
tp1645
Rp1646
g157
tp1647
sg276
(g362
(g366
S'\x00\x00\x00\x00\x00\x00\x00\x00'
p1648
tp1649
Rp1650
g277
tp1651
sg162
(g362
(g366
S'\x00\x00\x00\x00\x00\x00\x00\x00'
p1652
tp1653
Rp1654
g163
tp1655
sS'PTT_2006-03-28pair1_refexps.p(2878, 2902)'
p1656
(g362
(g366
S'\xef9\xfa\xfeB.\xe6?'
p1657
tp1658
Rp1659
S'correct'
p1660
tp1661
sg165
(g362
(g366
S'\x00\x00\x00\x00\x00\x00\x00\x00'
p1662
tp1663
Rp1664
g166
tp1665
sg168
(g362
(g366
S'\x00\x00\x00\x00\x00\x00\x00\x00'
p1666
tp1667
Rp1668
g169
tp1669
sg324
(g362
(g366
S'\x00\x00\x00\x00\x00\x00\x00\x00'
p1670
tp1671
Rp1672
g325
tp1673
sg174
(g362
(g366
S'\x00\x00\x00\x00\x00\x00\x00\x00'
p1674
tp1675
Rp1676
g175
tp1677
sg177
(g362
(g366
S'\xc82t\xc3O\x89\xe5?'
p1678
tp1679
Rp1680
g178
tp1681
sg180
(g362
(g366
S'\xe8\xf0}\xf1K\x03\xe0?'
p1682
tp1683
Rp1684
g181
tp1685
sg183
(g362
(g366
S'\x00\x00\x00\x00\x00\x00\x00\x00'
p1686
tp1687
Rp1688
g184
tp1689
sg186
(g362
(g366
S'\x00\x00\x00\x00\x00\x00\x00\x00'
p1690
tp1691
Rp1692
g187
tp1693
sg189
(g362
(g366
S'\x00\x00\x00\x00\x00\x00\x00\x00'
p1694
tp1695
Rp1696
g190
tp1697
sg192
(g362
(g366
S' \x8a\x08\xf6R^\xe4?'
p1698
tp1699
Rp1700
g193
tp1701
sg195
(g362
(g366
S'\x00\x00\x00\x00\x00\x00\x00\x00'
p1702
tp1703
Rp1704
g196
tp1705
sg90
(g362
(g366
S'\x00\x00\x00\x00\x00\x00\x00\x00'
p1706
tp1707
Rp1708
g91
tp1709
sg821
(g362
(g366
S'\x00\x00\x00\x00\x00\x00\x00\x00'
p1710
tp1711
Rp1712
g825
tp1713
sg198
(g362
(g366
S'\x00\x00\x00\x00\x00\x00\x00\x00'
p1714
tp1715
Rp1716
g199
tp1717
sg201
(g362
(g366
S'\x00\x00\x00\x00\x00\x00\x00\x00'
p1718
tp1719
Rp1720
g202
tp1721
sS'FTT_2006-03-27Pair1_refexps.p(3496, 3533)'
p1722
(g362
(g366
S'\xef9\xfa\xfeB.\xe6?'
p1723
tp1724
Rp1725
S'correct'
p1726
tp1727
sg204
(g362
(g366
S'\x00\x00\x00\x00\x00\x00\x00\x00'
p1728
tp1729
Rp1730
g205
tp1731
sg207
(g362
(g366
S' \x8a\x08\xf6R^\xe4?'
p1732
tp1733
Rp1734
g208
tp1735
sg210
(g362
(g366
S'\x00\x00\x00\x00\x00\x00\x00\x00'
p1736
tp1737
Rp1738
g211
tp1739
sg213
(g362
(g366
S'\x00\x00\x00\x00\x00\x00\x00\x00'
p1740
tp1741
Rp1742
g214
tp1743
sS'FTT_2006-06-22pair1_refexps.p(3211, 3239)'
p1744
(g362
(g366
S'\x00\x00\x00\x00\x00\x00\x00\x00'
p1745
tp1746
Rp1747
S'correct'
p1748
tp1749
sg228
(g362
(g366
S'\x00\x00\x00\x00\x00\x00\x00\x00'
p1750
tp1751
Rp1752
g229
tp1753
sg216
(g362
(g366
S'\xef9\xfa\xfeB.\xe6?'
p1754
tp1755
Rp1756
g217
tp1757
sg219
(g362
(g366
S'J\x97\xf7\xe3;|\xf1?'
p1758
tp1759
Rp1760
g220
tp1761
sg897
(g362
(g366
S'\x00\x00\x00\x00\x00\x00\x00\x00'
p1762
tp1763
Rp1764
g901
tp1765
sg222
(g362
(g366
S'\x00\x00\x00\x00\x00\x00\x00\x00'
p1766
tp1767
Rp1768
g223
tp1769
sg225
(g362
(g366
S'\xef9\xfa\xfeB.\xe6?'
p1770
tp1771
Rp1772
g226
tp1773
sS'PTT_2006-03-28pair1_refexps.p(2531, 2578)'
p1774
(g362
(g366
S'\x00\x00\x00\x00\x00\x00\x00\x00'
p1775
tp1776
Rp1777
S'correct'
p1778
tp1779
sg231
(g362
(g366
S'\xef9\xfa\xfeB.\xe6?'
p1780
tp1781
Rp1782
g232
tp1783
sg234
(g362
(g366
S'\x00\x00\x00\x00\x00\x00\x00\x00'
p1784
tp1785
Rp1786
g235
tp1787
sS'FTT_2006-06-22pair2_refexps.p(3708, 3753)'
p1788
(g362
(g366
S'\x00\x00\x00\x00\x00\x00\x00\x00'
p1789
tp1790
Rp1791
S'not_moved'
p1792
tp1793
sg237
(g362
(g366
S'\x00\x00\x00\x00\x00\x00\x00\x00'
p1794
tp1795
Rp1796
g238
tp1797
sg240
(g362
(g366
S'\xd4BV\xf8\xf3\xe0\xf0?'
p1798
tp1799
Rp1800
g241
tp1801
sg957
(g362
(g366
S' \x8a\x08\xf6R^\xe4?'
p1802
tp1803
Rp1804
g961
tp1805
sg243
(g362
(g366
S'\x00\x00\x00\x00\x00\x00\x00\x00'
p1806
tp1807
Rp1808
g244
tp1809
sg246
(g362
(g366
S'\xef9\xfa\xfeB.\xe6?'
p1810
tp1811
Rp1812
g247
tp1813
sg249
(g362
(g366
S'\x00\x00\x00\x00\x00\x00\x00\x00'
p1814
tp1815
Rp1816
g250
tp1817
sg252
(g362
(g366
S'(}\x0b\xc3\x9dh\xee?'
p1818
tp1819
Rp1820
g253
tp1821
sg255
(g362
(g366
S'\x00\x00\x00\x00\x00\x00\x00\x00'
p1822
tp1823
Rp1824
g256
tp1825
sg258
(g362
(g366
S'\xa7\xde\x82C;-\xf1?'
p1826
tp1827
Rp1828
g259
tp1829
sS'PTT_2006-03-28pair1_refexps.p(3116, 3132)'
p1830
(g362
(g366
S'\x00\x00\x00\x00\x00\x00\x00\x00'
p1831
tp1832
Rp1833
S'correct'
p1834
tp1835
sg171
(g362
(g366
S'\x00\x00\x00\x00\x00\x00\x00\x00'
p1836
tp1837
Rp1838
g172
tp1839
sS'FTT_2006-06-22pair2_refexps.p(4715, 4731)'
p1840
(g362
(g366
S'\x00\x00\x00\x00\x00\x00\x00\x00'
p1841
tp1842
Rp1843
S'correct'
p1844
tp1845
sg261
(g362
(g366
S'\x00\x00\x00\x00\x00\x00\x00\x00'
p1846
tp1847
Rp1848
g262
tp1849
sg264
(g362
(g366
S'\xef9\xfa\xfeB.\xe6?'
p1850
tp1851
Rp1852
g265
tp1853
sg267
(g362
(g366
S'\x00\x00\x00\x00\x00\x00\x00\x00'
p1854
tp1855
Rp1856
g268
tp1857
sg270
(g362
(g366
S']\xaeu\x1a\xda\x84\xeb?'
p1858
tp1859
Rp1860
g271
tp1861
sg273
(g362
(g366
S'\xef9\xfa\xfeB.\xf6?'
p1862
tp1863
Rp1864
g274
tp1865
sS'PTT_2006-03-27pair3a_refexps.p(3660, 3677)'
p1866
(g362
(g366
S'\x00\x00\x00\x00\x00\x00\x00\x00'
p1867
tp1868
Rp1869
S'correct'
p1870
tp1871
sS'FTT_2006-03-27Pair1_refexps.p(1711, 1749)'
p1872
(g362
(g366
S'\x00\x00\x00\x00\x00\x00\x00\x00'
p1873
tp1874
Rp1875
S'not_moved'
p1876
tp1877
sg1047
(g362
(g366
S'\x00\x00\x00\x00\x00\x00\x00\x00'
p1878
tp1879
Rp1880
g1051
tp1881
sg27
(g362
(g366
S'\x00\x00\x00\x00\x00\x00\x00\x00'
p1882
tp1883
Rp1884
g28
tp1885
sg1229
(g362
(g366
S'\x00\x00\x00\x00\x00\x00\x00\x00'
p1886
tp1887
Rp1888
g1233
tp1889
sg279
(g362
(g366
S'\x00\x00\x00\x00\x00\x00\x00\x00'
p1890
tp1891
Rp1892
g280
tp1893
sg282
(g362
(g366
S'\x00\x00\x00\x00\x00\x00\x00\x00'
p1894
tp1895
Rp1896
g283
tp1897
sg1065
(g362
(g366
S'\x00\x00\x00\x00\x00\x00\x00\x00'
p1898
tp1899
Rp1900
g1069
tp1901
sg285
(g362
(g366
S'\x00\x00\x00\x00\x00\x00\x00\x00'
p1902
tp1903
Rp1904
g286
tp1905
sg288
(g362
(g366
S' \x8a\x08\xf6R^\xe4?'
p1906
tp1907
Rp1908
g289
tp1909
sg291
(g362
(g366
S'\x00\x00\x00\x00\x00\x00\x00\x00'
p1910
tp1911
Rp1912
g292
tp1913
sg294
(g362
(g366
S'\x00\x00\x00\x00\x00\x00\x00\x00'
p1914
tp1915
Rp1916
g295
tp1917
sS'FTT_2006-03-27Pair1_refexps.p(3534, 3567)'
p1918
(g362
(g366
S'\x00\x00\x00\x00\x00\x00\x00\x00'
p1919
tp1920
Rp1921
S'correct'
p1922
tp1923
sg297
(g362
(g366
S'\x00\x00\x00\x00\x00\x00\x00\x00'
p1924
tp1925
Rp1926
g298
tp1927
sg300
(g362
(g366
S'\xe8\xf0}\xf1K\x03\xe0?'
p1928
tp1929
Rp1930
g301
tp1931
sg303
(g362
(g366
S'\xef9\xfa\xfeB.\xe6?'
p1932
tp1933
Rp1934
g304
tp1935
sg306
(g362
(g366
S'\x00\x00\x00\x00\x00\x00\x00\x00'
p1936
tp1937
Rp1938
g307
tp1939
sg309
(g362
(g366
S'\x00\x00\x00\x00\x00\x00\x00\x00'
p1940
tp1941
Rp1942
g310
tp1943
sg312
(g362
(g366
S'\xef9\xfa\xfeB.\xe6?'
p1944
tp1945
Rp1946
g313
tp1947
sS'PTT_2006-03-28pair1_refexps.p(2579, 2623)'
p1948
(g362
(g366
S'\x00\x00\x00\x00\x00\x00\x00\x00'
p1949
tp1950
Rp1951
S'correct'
p1952
tp1953
sg315
(g362
(g366
S' \x8a\x08\xf6R^\xe4?'
p1954
tp1955
Rp1956
g316
tp1957
sg1135
(g362
(g366
S'\x00\x00\x00\x00\x00\x00\x00\x00'
p1958
tp1959
Rp1960
g1139
tp1961
sg321
(g362
(g366
S'\x00\x00\x00\x00\x00\x00\x00\x00'
p1962
tp1963
Rp1964
g322
tp1965
sg1145
(g362
(g366
S'\x00\x00\x00\x00\x00\x00\x00\x00'
p1966
tp1967
Rp1968
g1149
tp1969
sS'PTT_2006-03-27Pair2a_refexps.p(339, 384)'
p1970
(g362
(g366
S'\x00\x00\x00\x00\x00\x00\x00\x00'
p1971
tp1972
Rp1973
S'incorrect'
p1974
tp1975
sg327
(g362
(g366
S'\x00\x00\x00\x00\x00\x00\x00\x00'
p1976
tp1977
Rp1978
g328
tp1979
sg330
(g362
(g366
S' \x8a\x08\xf6R^\xe4?'
p1980
tp1981
Rp1982
g331
tp1983
sS'PTT_2006-03-28pair1_refexps.p(1497, 1511)'
p1984
(g362
(g366
S'\x00\x00\x00\x00\x00\x00\x00\x00'
p1985
tp1986
Rp1987
S'correct'
p1988
tp1989
sg333
(g362
(g366
S'\x00\x00\x00\x00\x00\x00\x00\x00'
p1990
tp1991
Rp1992
g334
tp1993
sg336
(g362
(g366
S'\x00\x00\x00\x00\x00\x00\x00\x00'
p1994
tp1995
Rp1996
g337
tp1997
sg339
(g362
(g366
S'\x00\x00\x00\x00\x00\x00\x00\x00'
p1998
tp1999
Rp2000
g340
tp2001
sg342
(g362
(g366
S'v\x03\xe6}\xb7\xc7\xe5?'
p2002
tp2003
Rp2004
g343
tp2005
sg345
(g362
(g366
S'\x00\x00\x00\x00\x00\x00\x00\x00'
p2006
tp2007
Rp2008
g346
tp2009
sg63
(g362
(g366
S'\x00\x00\x00\x00\x00\x00\x00\x00'
p2010
tp2011
Rp2012
g64
tp2013
sS'PTT_2006-02-13pair2a_refexps.p(3027, 3038)'
p2014
(g362
(g366
S'\x00\x00\x00\x00\x00\x00\x00\x00'
p2015
tp2016
Rp2017
S'correct'
p2018
tp2019
sg348
(g362
(g366
S'\x00\x00\x00\x00\x00\x00\x00\x00'
p2020
tp2021
Rp2022
g349
tp2023
sg1075
(g362
(g366
S'\x00\x00\x00\x00\x00\x00\x00\x00'
p2024
tp2025
Rp2026
g1079
tp2027
sg351
(g362
(g366
S'\xef9\xfa\xfeB.\xe6?'
p2028
tp2029
Rp2030
g352
tp2031
sg354
(g362
(g366
S' \x8a\x08\xf6R^\xe4?'
p2032
tp2033
Rp2034
g355
tp2035
sg357
(g362
(g366
S'\xef9\xfa\xfeB.\xe6?'
p2036
tp2037
Rp2038
g358
tp2039
ss.