(dp0
(I2083
I3007
tp1
S'success'
p2
s(I756
I825
tp3
S'not_moved'
p4
s(I3711
I3753
tp5
S'success'
p6
s(I398
I755
tp7
S'not_moved'
p8
s(I3329
I3710
tp9
S'success'
p10
s(I1502
I1545
tp11
S'not_moved'
p12
s(I3812
I3908
tp13
S'success'
p14
s(I187
I397
tp15
S'success'
p16
s(I826
I894
tp17
S'success'
p18
s(I895
I1014
tp19
S'success'
p20
s(I1015
I1397
tp21
S'not_moved'
p22
s(I3008
I3166
tp23
S'success'
p24
s(I3167
I3328
tp25
S'success'
p26
s(I3754
I3811
tp27
S'success'
p28
s(I1546
I2082
tp29
S'success'
p30
s.