(dp0
(I1774
I1969
tp1
S'success'
p2
s(I322
I755
tp3
S'success'
p4
s(I2941
I2989
tp5
S'not_moved'
p6
s(I3269
I3393
tp7
S'not_moved'
p8
s(I2751
I2814
tp9
S'not_moved'
p10
s(I115
I321
tp11
S'success'
p12
s(I4967
I5064
tp13
S'success'
p14
s(I983
I1190
tp15
S'success'
p16
s(I2815
I2940
tp17
S'not_moved'
p18
s(I1970
I2199
tp19
S'success'
p20
s(I5382
I5421
tp21
S'success'
p22
s(I3040
I3209
tp23
S'not_moved'
p24
s(I3210
I3267
tp25
S'not_moved'
p26
s(I4908
I4918
tp27
S'not_moved'
p28
s(I2200
I2750
tp29
S'not_moved'
p30
s(I3394
I4349
tp31
S'success'
p32
s(I5065
I5358
tp33
S'success'
p34
s(I756
I982
tp35
S'success'
p36
s(I1191
I1773
tp37
S'wrong'
p38
s(I4350
I4907
tp39
S'wrong'
p40
s(I4919
I4966
tp41
S'not_moved'
p42
s(I5359
I5381
tp43
S'success'
p44
s.