(dp0
(I2355
I2531
tp1
S'wrong'
p2
s(I1293
I1293
tp3
S'success'
p4
s(I1659
I1863
tp5
S'na'
p6
s(I1579
I1658
tp7
S'na'
p8
s(I1203
I1292
tp9
S'success'
p10
s(I3202
I3288
tp11
S'success'
p12
s(I3300
I3316
tp13
S'success'
p14
s(I1864
I1946
tp15
S'na'
p16
s(I85
I153
tp17
S'wrong'
p18
s(I2532
I2804
tp19
S'wrong'
p20
s(I2805
I2870
tp21
S'success'
p22
s(I3188
I3201
tp23
S'success'
p24
s(I1947
I1965
tp25
S'not_moved'
p26
s(I3317
I3332
tp27
S'success'
p28
s(I3289
I3299
tp29
S'na'
p30
s(I1966
I2039
tp31
S'not_moved'
p32
s(I154
I306
tp33
S'success'
p34
s(I2871
I3044
tp35
S'wrong'
p36
s(I307
I1018
tp37
S'wrong'
p38
s(I2061
I2191
tp39
S'na'
p40
s(I2248
I2354
tp41
S'wrong'
p42
s(I2040
I2060
tp43
S'not_moved'
p44
s(I3333
I3521
tp45
S'success'
p46
s(I3045
I3074
tp47
S'success'
p48
s(I2192
I2247
tp49
S'not_moved'
p50
s(I1355
I1489
tp51
S'wrong'
p52
s(I1019
I1202
tp53
S'na'
p54
s(I3075
I3187
tp55
S'na'
p56
s(I1490
I1578
tp57
S'success'
p58
s.