(dp0
(I292
I615
tp1
S'success'
p2
s(I3075
I3225
tp3
S'success'
p4
s(I3388
I3422
tp5
S'success'
p6
s(I616
I702
tp7
S'wrong'
p8
s(I2707
I2710
tp9
S'wrong'
p10
s(I834
I1199
tp11
S'success'
p12
s(I2676
I2706
tp13
S'success'
p14
s(I1845
I1906
tp15
S'not_moved'
p16
s(I1200
I1383
tp17
S'na'
p18
s(I3506
I3584
tp19
S'success'
p20
s(I2495
I2599
tp21
S'success'
p22
s(I42
I291
tp23
S'success'
p24
s(I2356
I2494
tp25
S'success'
p26
s(I2711
I3074
tp27
S'na'
p28
s(I3476
I3505
tp29
S'success'
p30
s(I3226
I3259
tp31
S'success'
p32
s(I1907
I2355
tp33
S'wrong'
p34
s(I3423
I3475
tp35
S'success'
p36
s(I1713
I1844
tp37
S'wrong'
p38
s(I2600
I2675
tp39
S'success'
p40
s(I1384
I1672
tp41
S'not_moved'
p42
s(I1673
I1712
tp43
S'wrong'
p44
s(I3260
I3387
tp45
S'na'
p46
s(I703
I833
tp47
S'success'
p48
s.