(dp0
(I824
I872
tp1
S'success'
p2
s(I2876
I2935
tp3
S'success'
p4
s(I2663
I2875
tp5
S'success'
p6
s(I3705
I3800
tp7
S'success'
p8
s(I3801
I3823
tp9
S'success'
p10
s(I743
I823
tp11
S'success'
p12
s(I1926
I2080
tp13
S'na'
p14
s(I873
I1884
tp15
S'na'
p16
s(I2081
I2177
tp17
S'wrong'
p18
s(I2178
I2560
tp19
S'success'
p20
s(I2561
I2662
tp21
S'not_moved'
p22
s(I3654
I3704
tp23
S'success'
p24
s(I13
I185
tp25
S'success'
p26
s(I2936
I3004
tp27
S'success'
p28
s(I186
I742
tp29
S'wrong'
p30
s(I3005
I3653
tp31
S'success'
p32
s(I1885
I1925
tp33
S'wrong'
p34
s.