(dp0
(I1460
I2266
tp1
S'success'
p2
s(I217
I848
tp3
S'success'
p4
s(I1107
I1459
tp5
S'success'
p6
s(I2587
I2615
tp7
S'not_moved'
p8
s(I849
I999
tp9
S'success'
p10
s(I3022
I3129
tp11
S'success'
p12
s(I2616
I2652
tp13
S'success'
p14
s(I2653
I2917
tp15
S'success'
p16
s(I19
I216
tp17
S'success'
p18
s(I2267
I2535
tp19
S'success'
p20
s(I1000
I1106
tp21
S'not_moved'
p22
s(I2918
I3021
tp23
S'success'
p24
s(I3130
I3160
tp25
S'success'
p26
s(I2536
I2586
tp27
S'success'
p28
s.