(lp0
((I187
I397
tp1
(dp2
S'p-utts'
p3
(dp4
S'1l'
p5
(dp6
S'piece'
p7
(lp8
(S'the first piece'
p9
(I193
I195
tp10
S'def_np'
p11
tp12
a(S'it'
p13
(I202
I202
tp14
S'pronoun'
p15
tp16
a(S'a piece that looks like an l'
p17
(I218
I224
tp18
S'indef_np'
p19
tp20
a(S'the l piece'
p21
(I301
I303
tp22
S'def_np'
p23
tp24
a(S'one'
p25
(I313
I313
tp26
S'quant_np'
p27
tp28
a(S'that one'
p29
(I329
I330
tp30
S'def_np'
p31
tp32
a(S'that'
p33
(I341
I341
tp34
S'def_np'
p35
tp36
a(S'it'
p37
(I352
I352
tp38
S'pronoun'
p39
tp40
a(S'it'
p41
(I368
I368
tp42
S'pronoun'
p43
tp44
asS'comp_piece'
p45
(lp46
g12
ag16
ag20
ag24
ag28
ag32
ag36
ag40
ag44
asS'location'
p47
(lp48
g12
ag16
ag20
ag24
ag28
ag32
ag36
ag40
ag44
asS'desc_piece'
p49
(lp50
g12
ag16
ag20
ag24
ag28
ag32
ag36
ag40
ag44
asssS'e-utts'
p51
(dp52
g5
(dp53
S'piece'
p54
(lp55
(S'a piece'
p56
(I228
I229
tp57
S'indef_np'
p58
tp59
a(S'that'
p60
(I327
I327
tp61
S'def_np'
p62
tp63
a(S'the other l'
p64
(I334
I336
tp65
S'def_np'
p66
tp67
a(S'it'
p68
(I360
I360
tp69
S'pronoun'
p70
tp71
a(S'it'
p72
(I383
I383
tp73
S'pronoun'
p74
tp75
a(S'it'
p76
(I388
I388
tp77
S'pronoun'
p78
tp79
a(S'it'
p80
(I393
I393
tp81
S'pronoun'
p82
tp83
assstp84
a((I398
I755
tp85
(dp86
g3
(dp87
S'2n'
p88
(dp89
S'part_of_piece'
p90
(lp91
(S'the long part'
p92
(I485
I487
tp93
S'def_np'
p94
tp95
a(S'the short part'
p96
(I494
I496
tp97
S'def_np'
p98
tp99
asS'piece'
p100
(lp101
(S'number two'
p102
(I685
I686
tp103
S'def_np'
p104
tp105
a(S'it'
p106
(I554
I554
tp107
S'pronoun'
p108
tp109
a(S'that'
p110
(I506
I506
tp111
S'def_np'
p112
tp113
a(S'it'
p114
(I454
I454
tp115
S'pronoun'
p116
tp117
a(S'they'
p118
(I421
I421
tp119
S'pronoun'
p120
tp121
a(S'the second pie:ce'
p122
(I400
I402
tp123
S'def_np'
p124
tp125
a(S'the second pie:ce'
p126
(I407
I409
tp127
S'def_np'
p128
tp129
asS'comp_piece'
p130
(lp131
(S'a funky zee on the side'
p132
(I475
I480
tp133
S'indef_np'
p134
tp135
a(S'a step'
p136
(I456
I457
tp137
S'indef_np'
p138
tp139
a(S'sort of the twin towers'
p140
(I424
I428
tp141
S'def_np'
p142
tp143
asS'location'
p144
(lp145
(S'the very centre square of the puzzle'
p146
(I706
I712
tp147
S'def_np'
p148
tp149
a(S'one square down'
p150
(I715
I717
tp151
S'quant_np'
p152
tp153
asS'desc_piece'
p154
(lp155
(S"it's like a step"
p156
(I454
I457
tp157
S'comp_sent'
p158
tp159
a(S'they look like sort of the twin towers'
p160
(I421
I428
tp161
S'comp_sent'
p162
tp163
assg5
(dp164
S'piece'
p165
(lp166
(S'the backwards l'
p167
(I520
I522
tp168
S'def_np'
p169
tp170
asssg51
(dp171
S'0z'
p172
(dp173
S'piece'
p174
(lp175
(S'the original'
p176
(I562
I563
tp177
S'def_np'
p178
tp179
assg88
(dp180
S'piece'
p181
(lp182
(S'it'
p183
(I560
I560
tp184
S'pronoun'
p185
tp186
a(S'it'
p187
(I665
I665
tp188
S'pronoun'
p189
tp190
a(S'it'
p191
(I452
I452
tp192
S'pronoun'
p193
tp194
a(S'it'
p195
(I446
I446
tp196
S'pronoun'
p197
tp198
a(S'it'
p199
(I443
I443
tp200
S'pronoun'
p201
tp202
asS'location'
p203
(lp204
(S'on '
p205
(I666
I674
tp206
S'pp'
p207
tp208
assg5
(dp209
S'piece'
p210
(lp211
(S'the backward l'
p212
(I603
I605
tp213
S'def_np'
p214
tp215
assstp216
a((I756
I825
tp217
(dp218
g3
(dp219
g5
(dp220
S'piece'
p221
(lp222
(S'it'
p223
(I811
I811
tp224
S'pronoun'
p225
tp226
asssg51
(dp227
g5
(dp228
S'piece'
p229
(lp230
(S'the backwards l'
p231
(I770
I772
tp232
S'def_np'
p233
tp234
a(S'it'
p235
(I816
I816
tp236
S'pronoun'
p237
tp238
asS'location'
p239
(lp240
g234
ag238
assstp241
a((I826
I894
tp242
(dp243
g3
(dp244
g88
(dp245
S'part_of_piece'
p246
(lp247
(S'the bottom of the long twin-tower piece'
p248
(I867
I873
tp249
S'def_np'
p250
tp251
a(S'the long twin-tower piece'
p252
(I870
I873
tp253
S'def_np'
p254
tp255
asS'location'
p256
(lp257
(S'the first square you come to'
p258
(I849
I854
tp259
S'def_np'
p260
tp261
a(S'to the left'
p262
(I844
I846
tp263
S'pp'
p264
tp265
assg5
(dp266
S'part_of_piece'
p267
(lp268
(S'the backwards l'
p269
(I837
I839
tp270
S'def_np'
p271
tp272
asS'piece'
p273
(lp274
g272
asssg51
(dp275
g88
(dp276
S'piece'
p277
(lp278
(S'it'
p279
(I884
I884
tp280
S'pronoun'
p281
tp282
assstp283
a((I895
I1014
tp284
(dp285
g3
(dp286
S'3v'
p287
(dp288
S'part_of_piece'
p289
(lp290
(S'number three'
p291
(I899
I900
tp292
S'def_np'
p293
tp294
a(S'it'
p295
(I906
I906
tp296
S'pronoun'
p297
tp298
a(S'the other l piece'
p299
(I908
I911
tp300
S'def_np'
p301
tp302
a(S'it'
p303
(I916
I916
tp304
S'pronoun'
p305
tp306
a(S'it'
p307
(I925
I925
tp308
S'pronoun'
p309
tp310
a(S'it'
p311
(I951
I951
tp312
S'pronoun'
p313
tp314
a(S'it'
p315
(I959
I959
tp316
S'pronoun'
p317
tp318
a(S'it'
p319
(I975
I975
tp320
S'pronoun'
p321
tp322
a(S'the angle'
p323
(I979
I980
tp324
S'def_np'
p325
tp326
asS'piece'
p327
(lp328
g294
ag298
ag302
ag306
ag310
ag314
ag318
ag322
ag326
asS'comp_piece'
p329
(lp330
g294
ag298
ag302
ag306
ag310
ag314
ag318
ag322
ag326
asS'location'
p331
(lp332
g294
ag298
ag302
ag306
ag310
ag314
ag318
ag322
ag326
asssg51
(dp333
g287
(dp334
S'piece'
p335
(lp336
(S'it'
p337
(I969
I969
tp338
S'pronoun'
p339
tp340
a(S'it'
p341
(I1008
I1008
tp342
S'pronoun'
p343
tp344
assstp345
a((I1015
I1397
tp346
(dp347
g3
(dp348
g172
(dp349
S'piece'
p350
(lp351
(S'the number'
p352
(I1255
I1256
tp353
S'def_np'
p354
tp355
a(S'the one that is blank on my side'
p356
(I1257
I1264
tp357
S'def_np'
p358
tp359
a(S'it'
p360
(I1299
I1299
tp361
S'pronoun'
p362
tp363
a(S'the black one'
p364
(I1276
I1278
tp365
S'def_np'
p366
tp367
a(S'the ehm original piece they put in for you'
p368
(I1283
I1291
tp369
S'def_np'
p370
tp371
assS'99'
p372
(dp373
S'piece'
p374
(lp375
(S'a piece of puzzle'
p376
(I1304
I1307
tp377
S'indef_np'
p378
tp379
assS'9c'
p380
(dp381
S'piece'
p382
(lp383
(S'a plus   sign'
p384
(I1063
I1067
tp385
S'indef_np'
p386
tp387
assS'4t'
p388
(dp389
S'part_of_piece'
p390
(lp391
(S'the top of the t'
p392
(I1202
I1206
tp393
S'def_np'
p394
tp395
a(S'the lap of the l'
p396
(I1211
I1215
tp397
S'def_np'
p398
tp399
a(S'the top of the t'
p400
(I1137
I1141
tp401
S'def_np'
p402
tp403
a(S'the top of the t'
p404
(I1099
I1103
tp405
S'def_np'
p406
tp407
asS'piece'
p408
(lp409
(S'it'
p410
(I1268
I1268
tp411
S'pronoun'
p412
tp413
a(S'it'
p414
(I1272
I1272
tp415
S'pronoun'
p416
tp417
a(S'the t'
p418
(I1205
I1206
tp419
S'def_np'
p420
tp421
a(S'it'
p422
(I1135
I1135
tp423
S'pronoun'
p424
tp425
a(S'the t'
p426
(I1140
I1141
tp427
S'def_np'
p428
tp429
a(S'the t'
p430
(I1102
I1103
tp431
S'def_np'
p432
tp433
a(S'a perfect t'
p434
(I1055
I1057
tp435
S'indef_np'
p436
tp437
a(S'one t shape'
p438
(I1032
I1034
tp439
S'indef_np'
p440
tp441
a(S'the t shape'
p442
(I1086
I1088
tp443
S'def_np'
p444
tp445
a(S'it'
p446
(I1021
I1021
tp447
S'pronoun'
p448
tp449
a(S'the fourth piece'
p450
(I1016
I1018
tp451
S'def_np'
p452
tp453
asS'comp_piece'
p454
(lp455
(S'a t'
p456
(I1024
I1025
tp457
S'indef_np'
p458
tp459
asS'location'
p460
(lp461
(S'on the bottom right'
p462
(I1193
I1196
tp463
S'pp'
p464
tp465
a(S'into lets say the lap of the l'
p466
(I1208
I1215
tp467
S'pp'
p468
tp469
a(S'next to the first piece'
p470
(I1144
I1148
tp471
S'pp'
p472
tp473
a(S'in the direction where the top of the t faces the right hand side'
p474
(I1095
I1108
tp475
S'pp'
p476
tp477
asS'desc_piece'
p478
(lp479
(S"it's shaped like a t"
p480
(I1021
I1025
tp481
S'comp_sent'
p482
tp483
assg5
(dp484
S'piece'
p485
(lp486
(S'the first piece'
p487
(I1146
I1148
tp488
S'def_np'
p489
tp490
a(S'the l'
p491
(I1150
I1151
tp492
S'def_np'
p493
tp494
a(S'the backwards l'
p495
(I1153
I1155
tp496
S'def_np'
p497
tp498
a(S'first piece that you put in'
p499
(I1169
I1174
tp500
S'def_np'
p501
tp502
a(S'the backwards l'
p503
(I1176
I1178
tp504
S'def_np'
p505
tp506
a(S'the l'
p507
(I1214
I1215
tp508
S'def_np'
p509
tp510
asssg51
(dp511
g172
(dp512
S'piece'
p513
(lp514
(S'one that they already put in in the beginning'
p515
(I1238
I1246
tp516
S'indef_np'
p517
tp518
a(S'the first piece they have put in'
p519
(I1391
I1397
tp520
S'def_np'
p521
tp522
assg388
(dp523
S'part_of_piece'
p524
(lp525
(S'the top of the t'
p526
(I1156
I1160
tp527
S'def_np'
p528
tp529
a(S'the top of the t'
p530
(I1120
I1124
tp531
S'def_np'
p532
tp533
asS'piece'
p534
(lp535
(S'it'
p536
(I1225
I1225
tp537
S'pronoun'
p538
tp539
a(S'it'
p540
(I1387
I1387
tp541
S'pronoun'
p542
tp543
a(S'this t'
p544
(I1362
I1363
tp545
S'def_np'
p546
tp547
a(S'the t'
p548
(I1159
I1160
tp549
S'def_np'
p550
tp551
a(S'the t'
p552
(I1123
I1124
tp553
S'def_np'
p554
tp555
a(S'a one that is a perfect t'
p556
(I1046
I1052
tp557
S'indef_np'
p558
tp559
a(S'the t shape'
p560
(I1078
I1080
tp561
S'def_np'
p562
tp563
asS'comp_piece'
p564
(lp565
(S'a perfect t'
p566
(I1050
I1052
tp567
S'indef_np'
p568
tp569
asS'location'
p570
(lp571
(S'next to the first piece'
p572
(I1162
I1166
tp573
S'pp'
p574
tp575
assg5
(dp576
S'piece'
p577
(lp578
(S'the first piece'
p579
(I1164
I1166
tp580
S'def_np'
p581
tp582
a(S'the first piece'
p583
(I1229
I1231
tp584
S'def_np'
p585
tp586
a(S'the second piece'
p587
(I1376
I1378
tp588
S'def_np'
p589
tp590
a(S'the backwards l'
p591
(I1379
I1381
tp592
S'def_np'
p593
tp594
assstp595
a((I1502
I1545
tp596
(dp597
g3
(dp598
g5
(dp599
S'piece'
p600
(lp601
(S'bottom right'
p602
(I1538
I1539
tp603
S'pp'
p604
tp605
asS'location'
p606
(lp607
g605
asssg51
(dp608
g5
(dp609
S'location'
p610
(lp611
(S'on the right hand side of the perimeter of this puzzle'
p612
(I1518
I1528
tp613
S'pp'
p614
tp615
a(S'on the very outside of the puzzle'
p616
(I1530
I1536
tp617
S'pp'
p618
tp619
a(S'bottom right'
p620
(I1540
I1541
tp621
S'pp'
p622
tp623
assstp624
a((I1546
I2082
tp625
(dp626
g3
(dp627
g172
(dp628
S'piece'
p629
(lp630
(S'the z'
p631
(I1941
I1942
tp632
S'def_np'
p633
tp634
a(S'it'
p635
(I1939
I1939
tp636
S'pronoun'
p637
tp638
a(S'that same thing'
p639
(I1925
I1927
tp640
S'def_np'
p641
tp642
a(S'the piece that they gave you'
p643
(I1840
I1845
tp644
S'def_np'
p645
tp646
a(S'it'
p647
(I1878
I1878
tp648
S'pronoun'
p649
tp650
a(S'the given piece'
p651
(I1612
I1614
tp652
S'def_np'
p653
tp654
assg388
(dp655
S'part_of_piece'
p656
(lp657
(S'top of the t'
p658
(I2062
I2065
tp659
S'def_np'
p660
tp661
asS'piece'
p662
(lp663
(S'it'
p664
(I1988
I1988
tp665
S'pronoun'
p666
tp667
a(S'capital t'
p668
(I2012
I2013
tp669
S'def_np'
p670
tp671
a(S'the capital t'
p672
(I1582
I1584
tp673
S'def_np'
p674
tp675
a(S'the t'
p676
(I2064
I2065
tp677
S'def_np'
p678
tp679
a(S'the t'
p680
(I2016
I2017
tp681
S'def_np'
p682
tp683
asS'location'
p684
(lp685
(S'in the lap of the l'
p686
(I2066
I2071
tp687
S'pp'
p688
tp689
assg5
(dp690
S'piece'
p691
(lp692
(S'the l'
p693
(I2070
I2071
tp694
S'def_np'
p695
tp696
a(S'backwards l'
p697
(I2073
I2074
tp698
S'def_np'
p699
tp700
asssg51
(dp701
g172
(dp702
S'part_of_piece'
p703
(lp704
(S'three squares going to the right'
p705
(I1889
I1894
tp706
S'quant_np'
p707
tp708
a(S'another square'
p709
(I1905
I1906
tp710
S'indef_np'
p711
tp712
a(S'three squares on the right'
p713
(I1899
I1903
tp714
S'quant_np'
p715
tp716
a(S' blocks going up'
p717
(I1882
I1887
tp718
S'quant_np'
p719
tp720
asS'comp_piece'
p721
(lp722
(S'z'
p723
(I1910
I1910
tp724
S'indef_np'
p725
tp726
a(S'a backward z'
p727
(I1912
I1914
tp728
S'indef_np'
p729
tp730
a(S'zed'
p731
(I1865
I1865
tp732
S'indef_np'
p733
tp734
a(S'a zee'
p735
(I1862
I1863
tp736
S'indef_np'
p737
tp738
a(S'a zigzag'
p739
(I1853
I1854
tp740
S'indef_np'
p741
tp742
a(S'the mirror image of the backwards l'
p743
(I1623
I1629
tp744
S'def_np'
p745
tp746
asS'desc_piece'
p747
(lp748
(S"it's like z  a backward z"
p749
(I1908
I1914
tp750
S'comp_sent'
p751
tp752
a(S"it's like  blocks going up  three squares going to the right and then above those three squares on the right is another square"
p753
(I1880
I1906
tp754
S'attribution_sent'
p755
tp756
a(S'it sort of like a zigzag'
p757
(I1849
I1854
tp758
S'comp_sent'
p759
tp760
a(S"it's like a zee or zed and it's a eh: flipped on its side"
p761
(I1860
I1873
tp762
S'comp_sent'
p763
tp764
a(S'it looks like the mirror image of the backwards l'
p765
(I1620
I1629
tp766
S'comp_sent'
p767
tp768
asS'piece'
p769
(lp770
(S'it'
p771
(I1880
I1880
tp772
S'pronoun'
p773
tp774
a(S'it'
p775
(I1908
I1908
tp776
S'pronoun'
p777
tp778
a(S'it'
p779
(I1849
I1849
tp780
S'pronoun'
p781
tp782
a(S'it'
p783
(I1867
I1867
tp784
S'pronoun'
p785
tp786
a(S'its'
p787
(I1872
I1872
tp788
S'pronoun'
p789
tp790
a(S'it'
p791
(I1860
I1860
tp792
S'indef_np'
p793
tp794
a(S'it'
p795
(I1857
I1857
tp796
S'pronoun'
p797
tp798
a(S'the original piece that they put in'
p799
(I1564
I1570
tp800
S'def_np'
p801
tp802
a(S'the given piece'
p803
(I1616
I1618
tp804
S'def_np'
p805
tp806
a(S'it'
p807
(I1620
I1620
tp808
S'pronoun'
p809
tp810
assg388
(dp811
S'part_of_piece'
p812
(lp813
(S'the t part'
p814
(I1645
I1647
tp815
S'def_np'
p816
tp817
a(S'the top of the t'
p818
(I2050
I2054
tp819
S'def_np'
p820
tp821
asS'piece'
p822
(lp823
(S'its'
p824
(I1975
I1975
tp825
S'pronoun'
p826
tp827
a(S'the t'
p828
(I1972
I1973
tp829
S'def_np'
p830
tp831
a(S'that t'
p832
(I1956
I1957
tp833
S'def_np'
p834
tp835
a(S'it'
p836
(I2005
I2005
tp837
S'pronoun'
p838
tp839
a(S'it'
p840
(I1996
I1996
tp841
S'pronoun'
p842
tp843
a(S'it'
p844
(I1638
I1638
tp845
S'pronoun'
p846
tp847
a(S'the t'
p848
(I1635
I1636
tp849
S'def_np'
p850
tp851
a(S'that t'
p852
(I1749
I1750
tp853
S'def_np'
p854
tp855
a(S'that'
p856
(I1720
I1720
tp857
S'def_np'
p858
tp859
a(S'it'
p860
(I1723
I1723
tp861
S'pronoun'
p862
tp863
a(S'the t'
p864
(I1705
I1706
tp865
S'def_np'
p866
tp867
a(S'the t'
p868
(I1553
I1554
tp869
S'def_np'
p870
tp871
a(S'that'
p872
(I1561
I1561
tp873
S'def_np'
p874
tp875
a(S'the t'
p876
(I2053
I2054
tp877
S'def_np'
p878
tp879
a(S'it'
p880
(I2028
I2028
tp881
S'pronoun'
p882
tp883
a(S'it'
p884
(I2079
I2079
tp885
S'pronoun'
p886
tp887
asS'comp_piece'
p888
(lp889
(S'an mirror image of that backwards l'
p890
(I1710
I1716
tp891
S'indef_np'
p892
tp893
asS'desc_piece'
p894
(lp895
(S'the t there is like an mirror image of that backwards l'
p896
(I1705
I1716
tp897
S'comp_sent'
p898
tp899
assg5
(dp900
S'piece'
p901
(lp902
(S'that backward l'
p903
(I1572
I1574
tp904
S'def_np'
p905
tp906
a(S'the backwards l'
p907
(I1607
I1609
tp908
S'def_np'
p909
tp910
a(S'the backwards l'
p911
(I1627
I1629
tp912
S'def_np'
p913
tp914
a(S'that backwards l'
p915
(I1714
I1716
tp916
S'def_np'
p917
tp918
assstp919
a((I2083
I3007
tp920
(dp921
g3
(dp922
S'5y'
p923
(dp924
S'part_of_piece'
p925
(lp926
(S'one two three  four squares  straight'
p927
(I2096
I2103
tp928
S'quant_np'
p929
tp930
a(S'one square sticking out'
p931
(I2105
I2108
tp932
S'quant_np'
p933
tp934
a(S'the little square that is sticking out'
p935
(I2155
I2161
tp936
S'def_np'
p937
tp938
a(S'the long part'
p939
(I2144
I2146
tp940
S'def_np'
p941
tp942
a(S'the long side'
p943
(I2180
I2182
tp944
S'def_np'
p945
tp946
a(S'the lower left-hand corner of the piece we are working on right now'
p947
(I2310
I2322
tp948
S'def_np'
p949
tp950
a(S'the corner piece of that'
p951
(I2480
I2484
tp952
S'def_np'
p953
tp954
a(S'the bottom left corner of the lo:ng bar'
p955
(I2690
I2697
tp956
S'def_np'
p957
tp958
a(S'the bottom left corner of the lo:ng bar'
p959
(I2664
I2671
tp960
S'def_np'
p961
tp962
a(S'the lo:ng bar'
p963
(I2695
I2697
tp964
S'def_np'
p965
tp966
a(S'the horizontal bar'
p967
(I2763
I2765
tp968
S'def_np'
p969
tp970
a(S'the lower left corner of the horizontal bar'
p971
(I2758
I2765
tp972
S'def_np'
p973
tp974
a(S'the big'
p975
(I2909
I2910
tp976
S'def_np'
p977
tp978
a(S'the long part'
p979
(I2916
I2918
tp980
S'def_np'
p981
tp982
a(S'the horizontal part'
p983
(I2912
I2914
tp984
S'def_np'
p985
tp986
a(S'the horizontal ba:r'
p987
(I2843
I2845
tp988
S'def_np'
p989
tp990
asS'location'
p991
(lp992
(S'at that corner'
p993
(I2432
I2434
tp994
S'pp'
p995
tp996
a(S'upper right corner'
p997
(I2436
I2438
tp998
S'def_np'
p999
tp1000
a(S'the upper right corner  of that piece  of that right angle piece'
p1001
(I2645
I2658
tp1002
S'pp'
p1003
tp1004
a(S'one two three squares from your left'
p1005
(I2891
I2897
tp1006
S'quant_np'
p1007
tp1008
a(S'at the top of your puzzle'
p1009
(I2864
I2869
tp1010
S'pp'
p1011
tp1012
asS'desc_piece'
p1013
(lp1014
(S"it has , let's see  four squares  straight and one square sticking out"
p1015
(I2090
I2108
tp1016
S'attribution_sent'
p1017
tp1018
asS'piece'
p1019
(lp1020
(S'that'
p1021
(I2139
I2139
tp1022
S'def_np'
p1023
tp1024
a(S'it'
p1025
(I2170
I2170
tp1026
S'pronoun'
p1027
tp1028
a(S'this piece'
p1029
(I2175
I2176
tp1030
S'def_np'
p1031
tp1032
a(S'it'
p1033
(I2301
I2301
tp1034
S'pronoun'
p1035
tp1036
a(S'it'
p1037
(I2325
I2325
tp1038
S'pronoun'
p1039
tp1040
a(S'the piece we are working on right now'
p1041
(I2315
I2322
tp1042
S'def_np'
p1043
tp1044
a(S'number five piece'
p1045
(I2450
I2452
tp1046
S'def_np'
p1047
tp1048
a(S'it'
p1049
(I2476
I2476
tp1050
S'pronoun'
p1051
tp1052
a(S'it'
p1053
(I2471
I2471
tp1054
S'pronoun'
p1055
tp1056
a(S'this long horizontal piece that we are working on'
p1057
(I2458
I2466
tp1058
S'def_np'
p1059
tp1060
a(S'that'
p1061
(I2484
I2484
tp1062
S'def_np'
p1063
tp1064
a(S'the lo:ng bar'
p1065
(I2669
I2671
tp1066
S'def_np'
p1067
tp1068
a(S'the horizontal piece'
p1069
(I2717
I2719
tp1070
S'def_np'
p1071
tp1072
a(S'it'
p1073
(I2886
I2886
tp1074
S'pronoun'
p1075
tp1076
a(S'that'
p1077
(I2874
I2874
tp1078
S'def_np'
p1079
tp1080
a(S"it'll"
p1081
(I2889
I2889
tp1082
S'pronoun'
p1083
tp1084
a(S'it'
p1085
(I2991
I2991
tp1086
S'pronoun'
p1087
tp1088
a(S'this piece that you are working on'
p1089
(I2854
I2860
tp1090
S'def_np'
p1091
tp1092
a(S'the piece'
p1093
(I2850
I2851
tp1094
S'def_np'
p1095
tp1096
a(S'number 5'
p1097
(I2084
I2085
tp1098
S'def_np'
p1099
tp1100
a(S'it'
p1101
(I2090
I2090
tp1102
S'pronoun'
p1103
tp1104
assg287
(dp1105
S'part_of_piece'
p1106
(lp1107
(S'the corner of that'
p1108
(I2239
I2242
tp1109
S'def_np'
p1110
tp1111
a(S'the upper right corner'
p1112
(I2244
I2247
tp1113
S'def_np'
p1114
tp1115
a(S'the corner of this right angle piece'
p1116
(I2489
I2495
tp1117
S'def_np'
p1118
tp1119
a(S'that corner'
p1120
(I2660
I2661
tp1121
S'def_np'
p1122
tp1123
a(S'that corner'
p1124
(I2686
I2687
tp1125
S'def_np'
p1126
tp1127
asS'piece'
p1128
(lp1129
g1111
ag1115
ag1119
ag1123
ag1127
asS'comp_piece'
p1130
(lp1131
g1111
ag1115
ag1119
ag1123
ag1127
asssg51
(dp1132
g372
(dp1133
S'piece'
p1134
(lp1135
(S"the o:ne i don't remember which number it was"
p1136
(I2359
I2367
tp1137
S'def_np'
p1138
tp1139
asS'comp_piece'
p1140
(lp1141
(S'a piece of carpenter equipment'
p1142
(I2794
I2798
tp1143
S'indef_np'
p1144
tp1145
asS'desc_piece'
p1146
(lp1147
(S'thing that looks like a piece of carpenter equipment'
p1148
(I2790
I2798
tp1149
S'comp_sent'
p1150
tp1151
assg388
(dp1152
S'piece'
p1153
(lp1154
(S'the t'
p1155
(I2524
I2525
tp1156
S'def_np'
p1157
tp1158
a(S'the one we just finished'
p1159
(I2518
I2522
tp1160
S'def_np'
p1161
tp1162
a(S'the t'
p1163
(I2543
I2544
tp1164
S'def_np'
p1165
tp1166
assg923
(dp1167
S'part_of_piece'
p1168
(lp1169
(S'four squares straight'
p1170
(I2120
I2122
tp1171
S'quant_np'
p1172
tp1173
a(S'one square sticking out'
p1174
(I2124
I2127
tp1175
S'quant_np'
p1176
tp1177
a(S'the long side'
p1178
(I2190
I2192
tp1179
S'def_np'
p1180
tp1181
a(S'the little square'
p1182
(I2196
I2198
tp1183
S'def_np'
p1184
tp1185
a(S'the one square'
p1186
(I2199
I2201
tp1187
S'def_np'
p1188
tp1189
a(S'the long horizontal part'
p1190
(I2624
I2627
tp1191
S'def_np'
p1192
tp1193
a(S'the bottom left corner of the long bar'
p1194
(I2703
I2710
tp1195
S'def_np'
p1196
tp1197
a(S'the t square part'
p1198
(I2779
I2782
tp1199
S'def_np'
p1200
tp1201
a(S'the upper right'
p1202
(I2771
I2773
tp1203
S'def_np'
p1204
tp1205
a(S'the long bar'
p1206
(I2708
I2710
tp1207
S'def_np'
p1208
tp1209
a(S'this long horizontal part'
p1210
(I2975
I2978
tp1211
S'def_np'
p1212
tp1213
a(S'the horizontal bar'
p1214
(I2820
I2822
tp1215
S'def_np'
p1216
tp1217
a(S'that one square that comes down from the horizontal bar'
p1218
(I2813
I2822
tp1219
S'def_np'
p1220
tp1221
asS'location'
p1222
(lp1223
(S'to the upper right'
p1224
(I2254
I2257
tp1225
S'pp'
p1226
tp1227
asS'desc_piece'
p1228
(lp1229
(S"it's four squares straight and one square sticking out"
p1230
(I2119
I2127
tp1231
S'attribution_sent'
p1232
tp1233
asS'piece'
p1234
(lp1235
(S'it'
p1236
(I2119
I2119
tp1237
S'pronoun'
p1238
tp1239
a(S'it'
p1240
(I2186
I2186
tp1241
S'pronoun'
p1242
tp1243
a(S'that'
p1244
(I2210
I2210
tp1245
S'def_np'
p1246
tp1247
a(S'this piece'
p1248
(I2354
I2355
tp1249
S'def_np'
p1250
tp1251
a(S'this piece'
p1252
(I2352
I2353
tp1253
S'def_np'
p1254
tp1255
a(S'it'
p1256
(I2999
I2999
tp1257
S'pronoun'
p1258
tp1259
a(S'it'
p1260
(I2966
I2966
tp1261
S'pronoun'
p1262
tp1263
a(S'this piece im trying to fit in'
p1264
(I2825
I2831
tp1265
S'def_np'
p1266
tp1267
assg287
(dp1268
S'piece'
p1269
(lp1270
(S'the right angle piece'
p1271
(I2249
I2252
tp1272
S'def_np'
p1273
tp1274
a(S'that'
p1275
(I2279
I2279
tp1276
S'def_np'
p1277
tp1278
a(S'sort of an l'
p1279
(I2281
I2284
tp1280
S'indef_np'
p1281
tp1282
a(S'the l shaped thing'
p1283
(I2285
I2288
tp1284
S'def_np'
p1285
tp1286
a(S'it'
p1287
(I2366
I2366
tp1288
S'pronoun'
p1289
tp1290
a(S'the right angle piece'
p1291
(I2507
I2510
tp1292
S'def_np'
p1293
tp1294
a(S'this right angle piece'
p1295
(I2536
I2539
tp1296
S'def_np'
p1297
tp1298
a(S'the angular'
p1299
(I2806
I2807
tp1300
S'def_np'
p1301
tp1302
a(S'that'
p1303
(I2809
I2809
tp1304
S'def_np'
p1305
tp1306
asS'comp_piece'
p1307
(lp1308
g1274
ag1278
ag1282
ag1286
ag1290
ag1294
ag1298
ag1302
ag1306
assstp1309
a((I3008
I3166
tp1310
(dp1311
g3
(dp1312
g388
(dp1313
S'piece'
p1314
(lp1315
(S'the t piece'
p1316
(I3071
I3073
tp1317
S'def_np'
p1318
tp1319
assg5
(dp1320
S'piece'
p1321
(lp1322
(S'the eh backward l piece'
p1323
(I3065
I3069
tp1324
S'def_np'
p1325
tp1326
assS'6w'
p1327
(dp1328
S'piece'
p1329
(lp1330
(S'number six'
p1331
(I3009
I3010
tp1332
S'def_np'
p1333
tp1334
a(S'that one'
p1335
(I3023
I3024
tp1336
S'def_np'
p1337
tp1338
a(S'it'
p1339
(I3093
I3093
tp1340
S'pronoun'
p1341
tp1342
a(S'it'
p1343
(I3111
I3111
tp1344
S'pronoun'
p1345
tp1346
asS'comp_piece'
p1347
(lp1348
g1334
ag1338
ag1342
ag1346
asS'location'
p1349
(lp1350
g1334
ag1338
ag1342
ag1346
asS'desc_piece'
p1351
(lp1352
g1334
ag1338
ag1342
ag1346
asssg51
(dp1353
g372
(dp1354
S'piece'
p1355
(lp1356
(S'this'
p1357
(I3090
I3090
tp1358
S'def_np'
p1359
tp1360
assg388
(dp1361
S'piece'
p1362
(lp1363
(S'the t'
p1364
(I3075
I3076
tp1365
S'def_np'
p1366
tp1367
a(S'that'
p1368
(I3084
I3084
tp1369
S'def_np'
p1370
tp1371
assg1327
(dp1372
S'piece'
p1373
(lp1374
(S'that'
p1375
(I3019
I3019
tp1376
S'def_np'
p1377
tp1378
a(S'it'
p1379
(I3107
I3107
tp1380
S'pronoun'
p1381
tp1382
a(S'it'
p1383
(I3151
I3151
tp1384
S'pronoun'
p1385
tp1386
a(S'it'
p1387
(I3159
I3159
tp1388
S'pronoun'
p1389
tp1390
assstp1391
a((I3167
I3328
tp1392
(dp1393
g3
(dp1394
g923
(dp1395
S'piece'
p1396
(lp1397
(S'the horizontal bar'
p1398
(I3317
I3319
tp1399
S'def_np'
p1400
tp1401
a(S'the bar'
p1402
(I3248
I3249
tp1403
S'def_np'
p1404
tp1405
assg287
(dp1406
S'piece'
p1407
(lp1408
(S'the angular'
p1409
(I3314
I3315
tp1410
S'def_np'
p1411
tp1412
assS'7x'
p1413
(dp1414
S'piece'
p1415
(lp1416
(S'number 7 is the red cross'
p1417
(I3167
I3172
tp1418
S'comp_sent'
p1419
tp1420
a(S"it's the blue cross"
p1421
(I3194
I3197
tp1422
S'comp_sent'
p1423
tp1424
a(S"it's the cross"
p1425
(I3199
I3201
tp1426
S'comp_sent'
p1427
tp1428
asS'location'
p1429
(lp1430
g1420
ag1424
ag1428
asS'desc_piece'
p1431
(lp1432
g1420
ag1424
ag1428
asssg51
(dp1433
g1413
(dp1434
S'piece'
p1435
(lp1436
(S'blue cross'
p1437
(I3204
I3205
tp1438
S'def_np'
p1439
tp1440
a(S'blue shield'
p1441
(I3207
I3208
tp1442
S'def_np'
p1443
tp1444
a(S'it'
p1445
(I3295
I3295
tp1446
S'pronoun'
p1447
tp1448
a(S'it'
p1449
(I3300
I3300
tp1450
S'pronoun'
p1451
tp1452
a(S'it'
p1453
(I3323
I3323
tp1454
S'pronoun'
p1455
tp1456
asS'location'
p1457
(lp1458
g1440
ag1444
ag1448
ag1452
ag1456
assstp1459
a((I3329
I3710
tp1460
(dp1461
g3
(dp1462
g923
(dp1463
S'piece'
p1464
(lp1465
(S'the horizontal bar '
p1466
(I3367
I3370
tp1467
S'def_np'
p1468
tp1469
a(S'that'
p1470
(I3337
I3337
tp1471
S'def_np'
p1472
tp1473
a(S'the horizontal bar'
p1474
(I3643
I3645
tp1475
S'def_np'
p1476
tp1477
assS'8f'
p1478
(dp1479
S'part_of_piece'
p1480
(lp1481
(S'one block'
p1482
(I3398
I3399
tp1483
S'quant_np'
p1484
tp1485
a(S'a three block bar'
p1486
(I3431
I3434
tp1487
S'indef_np'
p1488
tp1489
a(S'three blocks down'
p1490
(I3393
I3395
tp1491
S'quant_np'
p1492
tp1493
a(S'two blocks'
p1494
(I3390
I3391
tp1495
S'quant_np'
p1496
tp1497
a(S'that one block on the middle'
p1498
(I3483
I3488
tp1499
S'def_np'
p1500
tp1501
a(S'the other part'
p1502
(I3531
I3533
tp1503
S'def_np'
p1504
tp1505
a(S'an l'
p1506
(I3537
I3538
tp1507
S'indef_np'
p1508
tp1509
a(S'the backwards l'
p1510
(I3669
I3671
tp1511
S'def_np'
p1512
tp1513
a(S'the backwards l'
p1514
(I3636
I3638
tp1515
S'def_np'
p1516
tp1517
a(S'the bottom of the backwards l'
p1518
(I3633
I3638
tp1519
S'def_np'
p1520
tp1521
a(S'an upsidedown l'
p1522
(I3553
I3555
tp1523
S'indef_np'
p1524
tp1525
a(S'block in the middle'
p1526
(I3598
I3601
tp1527
S'indef_np'
p1528
tp1529
asS'piece'
p1530
(lp1531
(S'a funny one to describe'
p1532
(I3404
I3408
tp1533
S'indef_np'
p1534
tp1535
a(S'this one'
p1536
(I3401
I3402
tp1537
S'def_np'
p1538
tp1539
a(S'it'
p1540
(I3428
I3428
tp1541
S'pronoun'
p1542
tp1543
a(S'one block on the left'
p1544
(I3438
I3442
tp1545
S'quant_np'
p1546
tp1547
a(S'it'
p1548
(I3424
I3424
tp1549
S'pronoun'
p1550
tp1551
a(S'it'
p1552
(I3453
I3453
tp1553
S'pronoun'
p1554
tp1555
a(S'one block on the right '
p1556
(I3444
I3449
tp1557
S'quant_np'
p1558
tp1559
a(S'it'
p1560
(I3388
I3388
tp1561
S'pronoun'
p1562
tp1563
a(S'it'
p1564
(I3383
I3383
tp1565
S'pronoun'
p1566
tp1567
a(S'eight'
p1568
(I3362
I3362
tp1569
S'def_np'
p1570
tp1571
a(S'sort of the converse of that'
p1572
(I3332
I3337
tp1573
S'def_np'
p1574
tp1575
a(S'number 8'
p1576
(I3329
I3330
tp1577
S'def_np'
p1578
tp1579
a(S'that'
p1580
(I3709
I3709
tp1581
S'def_np'
p1582
tp1583
a(S'it'
p1584
(I3568
I3568
tp1585
S'pronoun'
p1586
tp1587
asS'location'
p1588
(lp1589
(S'underneath the horizontal bar'
p1590
(I3366
I3369
tp1591
S'pp'
p1592
tp1593
a(S'underneath the horizontal bar'
p1594
(I3642
I3645
tp1595
S'pp'
p1596
tp1597
asS'desc_piece'
p1598
(lp1599
(S"it's got two blocks then three blocks down and then one block"
p1600
(I3388
I3399
tp1601
S'attribution_sent'
p1602
tp1603
a(S'number 8 is sort of the converse of that'
p1604
(I3329
I3337
tp1605
S'comp_sent'
p1606
tp1607
assg1413
(dp1608
S'piece'
p1609
(lp1610
(S'the plus sign'
p1611
(I3628
I3630
tp1612
S'def_np'
p1613
tp1614
a(S'the plus'
p1615
(I3666
I3667
tp1616
S'def_np'
p1617
tp1618
asssg51
(dp1619
g1478
(dp1620
S'part_of_piece'
p1621
(lp1622
(S'one block'
p1623
(I3461
I3462
tp1624
S'quant_np'
p1625
tp1626
a(S'an upside down l'
p1627
(I3548
I3551
tp1628
S'indef_np'
p1629
tp1630
a(S'an upside down l'
p1631
(I3579
I3582
tp1632
S'indef_np'
p1633
tp1634
a(S'one block that is sticking out'
p1635
(I3606
I3611
tp1636
S'quant_np'
p1637
tp1638
asS'desc_piece'
p1639
(lp1640
g1626
ag1630
ag1634
ag1638
asS'piece'
p1641
(lp1642
g1626
ag1630
ag1634
ag1638
assstp1643
a((I3711
I3753
tp1644
(dp1645
g3
(dp1646
g380
(dp1647
S'piece'
p1648
(lp1649
(S'that'
p1650
(I3729
I3729
tp1651
S'def_np'
p1652
tp1653
a(S'the next one'
p1654
(I3712
I3714
tp1655
S'def_np'
p1656
tp1657
a(S'which'
p1658
(I3722
I3722
tp1659
S'pronoun'
p1660
tp1661
asS'comp_piece'
p1662
(lp1663
(S'c'
p1664
(I3725
I3725
tp1665
S'indef_np'
p1666
tp1667
asS'location'
p1668
(lp1669
(S'left of the plus'
p1670
(I3747
I3750
tp1671
S'pp'
p1672
tp1673
a(S'to the left of the cross'
p1674
(I3732
I3737
tp1675
S'pp'
p1676
tp1677
asS'desc_piece'
p1678
(lp1679
(S'which looks like c'
p1680
(I3722
I3725
tp1681
S'comp_sent'
p1682
tp1683
assg1413
(dp1684
S'piece'
p1685
(lp1686
(S'the cross'
p1687
(I3736
I3737
tp1688
S'def_np'
p1689
tp1690
a(S'the plus'
p1691
(I3749
I3750
tp1692
S'def_np'
p1693
tp1694
asssg51
(dp1695
g380
(dp1696
S'piece'
p1697
(lp1698
(S'that'
p1699
(I3740
I3740
tp1700
S'def_np'
p1701
tp1702
assstp1703
a((I3754
I3811
tp1704
(dp1705
g3
(dp1706
S'10p'
p1707
(dp1708
S'piece'
p1709
(lp1710
(S'the next one'
p1711
(I3762
I3764
tp1712
S'def_np'
p1713
tp1714
a(S'it'
p1715
(I3778
I3778
tp1716
S'pronoun'
p1717
tp1718
asS'comp_piece'
p1719
(lp1720
(S'a square  with one yeah'
p1721
(I3779
I3784
tp1722
S'indef_np'
p1723
tp1724
asS'location'
p1725
(lp1726
(S'between the stairs and the horizontal bar'
p1727
(I3768
I3774
tp1728
S'pp'
p1729
tp1730
asS'desc_piece'
p1731
(lp1732
(S"it's a square  with one yeah"
p1733
(I3778
I3784
tp1734
S'comp_sent'
p1735
tp1736
assg923
(dp1737
S'piece'
p1738
(lp1739
(S'the horizontal bar'
p1740
(I3772
I3774
tp1741
S'def_np'
p1742
tp1743
assg1327
(dp1744
S'piece'
p1745
(lp1746
(S'the stairs'
p1747
(I3769
I3770
tp1748
S'def_np'
p1749
tp1750
asssg51
(dp1751
g1707
(dp1752
S'piece'
p1753
(lp1754
(S'it'
p1755
(I3794
I3794
tp1756
S'pronoun'
p1757
tp1758
a(S'it'
p1759
(I3802
I3802
tp1760
S'pronoun'
p1761
tp1762
assstp1763
a((I3812
I3908
tp1764
(dp1765
g51
(dp1766
S'11i'
p1767
(dp1768
S'piece'
p1769
(lp1770
(S'the last piece'
p1771
(I3823
I3825
tp1772
S'def_np'
p1773
tp1774
a(S'it'
p1775
(I3872
I3872
tp1776
S'pronoun'
p1777
tp1778
a(S'the last one'
p1779
(I3877
I3879
tp1780
S'def_np'
p1781
tp1782
a(S'it'
p1783
(I3882
I3882
tp1784
S'pronoun'
p1785
tp1786
a(S'the last one'
p1787
(I3898
I3900
tp1788
S'def_np'
p1789
tp1790
asS'location'
p1791
(lp1792
g1774
ag1778
ag1782
ag1786
ag1790
assstp1793
a.