(lp0
((I23
I287
tp1
(dp2
S'p-utts'
p3
(dp4
S'1l'
p5
(dp6
S'part_of_piece'
p7
(lp8
(S'one side'
p9
(I74
I75
tp10
S'quant_np'
p11
tp12
a(S'the other'
p13
(I80
I81
tp14
S'def_np'
p15
tp16
a(S'the short ! end'
p17
(I89
I92
tp18
S'def_np'
p19
tp20
a(S'the long end'
p21
(I98
I100
tp22
S'def_np'
p23
tp24
a(S'the bottom bit of the l'
p25
(I166
I171
tp26
S'def_np'
p27
tp28
a(S'the long ! end'
p29
(I185
I188
tp30
S'def_np'
p31
tp32
asS'piece'
p33
(lp34
g12
ag16
ag20
ag24
ag28
ag32
asS'comp_piece'
p35
(lp36
g12
ag16
ag20
ag24
ag28
ag32
asS'location'
p37
(lp38
g12
ag16
ag20
ag24
ag28
ag32
asS'desc_piece'
p39
(lp40
g12
ag16
ag20
ag24
ag28
ag32
asssS'e-utts'
p41
(dp42
g5
(dp43
S'part_of_piece'
p44
(lp45
(S'one side'
p46
(I67
I68
tp47
S'quant_np'
p48
tp49
a(S'the other'
p50
(I71
I72
tp51
S'def_np'
p52
tp53
asS'comp_piece'
p54
(lp55
(S'a reflection of an ordinary english l'
p56
(I204
I210
tp57
S'indef_np'
p58
tp59
asS'location'
p60
(lp61
(S"the elephant's hind ! leg"
p62
(I267
I271
tp63
S'def_np'
p64
tp65
a(S'along the right'
p66
(I198
I200
tp67
S'pp'
p68
tp69
asS'piece'
p70
(lp71
(S'it'
p72
(I57
I57
tp73
S'pronoun'
p74
tp75
a(S'it'
p76
(I203
I203
tp77
S'pronoun'
p78
tp79
a(S'it'
p80
(I84
I84
tp81
S'pronoun'
p82
tp83
assS'1l i / 3v u'
p84
(dp85
S'piece'
p86
(lp87
(S'a sort of square l'
p88
(I58
I62
tp89
S'indef_np'
p90
tp91
assstp92
a((I288
I785
tp93
(dp94
g3
(dp95
S'2n'
p96
(dp97
S'part_of_piece'
p98
(lp99
(S'the shape'
p100
(I289
I290
tp101
S'def_np'
p102
tp103
a(S'the second shape'
p104
(I293
I295
tp105
S'def_np'
p106
tp107
a(S'the shape'
p108
(I337
I338
tp109
S'def_np'
p110
tp111
a(S'it'
p112
(I341
I341
tp113
S'pronoun'
p114
tp115
a(S'it'
p116
(I350
I350
tp117
S'pronoun'
p118
tp119
a(S'it'
p120
(I416
I416
tp121
S'pronoun'
p122
tp123
a(S'a shape that looks like that'
p124
(I441
I446
tp125
S'indef_np'
p126
tp127
a(S'it'
p128
(I467
I467
tp129
S'pronoun'
p130
tp131
a(S'it'
p132
(I475
I475
tp133
S'pronoun'
p134
tp135
a(S'it'
p136
(I489
I489
tp137
S'pronoun'
p138
tp139
a(S'it'
p140
(I496
I496
tp141
S'pronoun'
p142
tp143
a(S'it'
p144
(I542
I542
tp145
S'pronoun'
p146
tp147
a(S'a hallway'
p148
(I544
I545
tp149
S'indef_np'
p150
tp151
a(S'it'
p152
(I551
I551
tp153
S'pronoun'
p154
tp155
a(S'a hallway'
p156
(I553
I554
tp157
S'indef_np'
p158
tp159
a(S'that shape'
p160
(I612
I613
tp161
S'def_np'
p162
tp163
a(S'it'
p164
(I690
I690
tp165
S'pronoun'
p166
tp167
a(S'that'
p168
(I699
I699
tp169
S'def_np'
p170
tp171
a(S'it'
p172
(I755
I755
tp173
S'pronoun'
p174
tp175
a(S'it'
p176
(I775
I775
tp177
S'pronoun'
p178
tp179
asS'piece'
p180
(lp181
g103
ag107
ag111
ag115
ag119
ag123
ag127
ag131
ag135
ag139
ag143
ag147
ag151
ag155
ag159
ag163
ag167
ag171
ag175
ag179
asS'comp_piece'
p182
(lp183
g103
ag107
ag111
ag115
ag119
ag123
ag127
ag131
ag135
ag139
ag143
ag147
ag151
ag155
ag159
ag163
ag167
ag171
ag175
ag179
asS'location'
p184
(lp185
g103
ag107
ag111
ag115
ag119
ag123
ag127
ag131
ag135
ag139
ag143
ag147
ag151
ag155
ag159
ag163
ag167
ag171
ag175
ag179
asssg41
(dp186
S'0z'
p187
(dp188
S'part_of_piece'
p189
(lp190
(S"two of the ones we've already placed ?"
p191
(I716
I723
tp192
S'quant_np'
p193
tp194
a(S"the ones we've already placed ?"
p195
(I718
I723
tp196
S'def_np'
p197
tp198
asS'piece'
p199
(lp200
(S'a   shape which is already there'
p201
(I766
I773
tp202
S'indef_np'
p203
tp204
assg96
(dp205
S'part_of_piece'
p206
(lp207
(S'vertical strip of three:'
p208
(I522
I525
tp209
S'indef_np'
p210
tp211
a(S'a vertical strip of two:'
p212
(I528
I532
tp213
S'indef_np'
p214
tp215
a(S'three vertical ones'
p216
(I640
I642
tp217
S'quant_np'
p218
tp219
a(S'two vertical ones'
p220
(I650
I652
tp221
S'indef_np'
p222
tp223
a(S'one'
p224
(I658
I658
tp225
S'quant_np'
p226
tp227
a(S'the two bits'
p228
(I706
I708
tp229
S'def_np'
p230
tp231
a(S'the two sqares side'
p232
(I740
I743
tp233
S'def_np'
p234
tp235
a(S'the two squares on the top'
p236
(I748
I753
tp237
S'def_np'
p238
tp239
a(S'those'
p240
(I761
I761
tp241
S'def_np'
p242
tp243
asS'piece'
p244
(lp245
g211
ag215
ag219
ag223
ag227
ag231
ag235
ag239
ag243
asS'location'
p246
(lp247
g211
ag215
ag219
ag223
ag227
ag231
ag235
ag239
ag243
assstp248
a((I786
I893
tp249
(dp250
g3
(dp251
S'3v'
p252
(dp253
S'part_of_piece'
p254
(lp255
(S"into the elephant's trunk"
p256
(I802
I805
tp257
S'pp'
p258
tp259
a(S"the elephant's trunk"
p260
(I829
I831
tp261
S'def_np'
p262
tp263
asS'comp_piece'
p264
(lp265
g259
ag263
asS'location'
p266
(lp267
g259
ag263
asS'desc_piece'
p268
(lp269
g259
ag263
asS'piece'
p270
(lp271
g259
ag263
asssg41
(dp272
g252
(dp273
S'part_of_piece'
p274
(lp275
(S'the boomerang'
p276
(I866
I867
tp277
S'def_np'
p278
tp279
a(S'the boomerang'
p280
(I882
I883
tp281
S'def_np'
p282
tp283
asS'piece'
p284
(lp285
g279
ag283
assstp286
a((I894
I1001
tp287
(dp288
g3
(dp289
g187
(dp290
S'piece'
p291
(lp292
(S'the shape that was there before we even started'
p293
(I956
I964
tp294
S'def_np'
p295
tp296
a(S'the shape that was already there'
p297
(I926
I931
tp298
S'def_np'
p299
tp300
assS'4t'
p301
(dp302
S'piece'
p303
(lp304
(S'it'
p305
(I968
I968
tp306
S'pronoun'
p307
tp308
a(S'the fourth one'
p309
(I895
I897
tp310
S'def_np'
p311
tp312
a(S'it'
p313
(I917
I917
tp314
S'pronoun'
p315
tp316
asS'comp_piece'
p317
(lp318
(S'a t'
p319
(I900
I901
tp320
S'indef_np'
p321
tp322
asS'location'
p323
(lp324
(S'between that ! mhm and the shape that was already there'
p325
(I921
I931
tp326
S'pp'
p327
tp328
assg5
(dp329
S'piece'
p330
(lp331
(S'the first shape'
p332
(I907
I909
tp333
S'def_np'
p334
tp335
a(S'that'
p336
(I911
I911
tp337
S'def_np'
p338
tp339
a(S'that'
p340
(I913
I913
tp341
S'def_np'
p342
tp343
a(S'that'
p344
(I922
I922
tp345
S'def_np'
p346
tp347
a(S'the shape that you put on the hind leg'
p348
(I944
I952
tp349
S'def_np'
p350
tp351
a(S'+the first shape'
p352
(I978
I980
tp353
S'def_np'
p354
tp355
asssg41
(dp356
g301
(dp357
S'part_of_piece'
p358
(lp359
(S'it'
p360
(I984
I984
tp361
S'pronoun'
p362
tp363
a(S'it'
p364
(I997
I997
tp365
S'pronoun'
p366
tp367
asS'piece'
p368
(lp369
g363
ag367
assstp370
a((I1002
I1299
tp371
(dp372
g3
(dp373
S'5y'
p374
(dp375
S'part_of_piece'
p376
(lp377
(S'the starting square'
p378
(I1185
I1187
tp379
S'def_np'
p380
tp381
a(S'the third square along'
p382
(I1069
I1072
tp383
S'def_np'
p384
tp385
a(S'one ! that pokes out'
p386
(I1075
I1079
tp387
S'quant_np'
p388
tp389
a(S'a vertical ! or horizontal strip of about   one two three four'
p390
(I1043
I1056
tp391
S'indef_np'
p392
tp393
asS'piece'
p394
(lp395
(S'it'
p396
(I1250
I1250
tp397
S'pronoun'
p398
tp399
a(S'it'
p400
(I1100
I1100
tp401
S'pronoun'
p402
tp403
a(S'it'
p404
(I1107
I1107
tp405
S'pronoun'
p406
tp407
a(S'it'
p408
(I1111
I1111
tp409
S'pronoun'
p410
tp411
a(S'it'
p412
(I1131
I1131
tp413
S'pronoun'
p414
tp415
a(S'it'
p416
(I1105
I1105
tp417
S'pronoun'
p418
tp419
a(S'the next shape'
p420
(I1002
I1004
tp421
S'def_np'
p422
tp423
a(S'it'
p424
(I1040
I1040
tp425
S'pronoun'
p426
tp427
a(S'it'
p428
(I1027
I1027
tp429
S'pronoun'
p430
tp431
a(S'it'
p432
(I1038
I1038
tp433
S'pronoun'
p434
tp435
a(S'this'
p436
(I1011
I1011
tp437
S'def_np'
p438
tp439
a(S'this'
p440
(I1015
I1015
tp441
S'def_np'
p442
tp443
a(S'this'
p444
(I1007
I1007
tp445
S'def_np'
p446
tp447
asS'location'
p448
(lp449
(S'one up'
p450
(I1257
I1258
tp451
S'quant_np'
p452
tp453
assg252
(dp454
S'part_of_piece'
p455
(lp456
(S'the trunk'
p457
(I1158
I1159
tp458
S'def_np'
p459
tp460
asS'location'
p461
(lp462
g460
asS'piece'
p463
(lp464
g460
asssg41
(dp465
g374
(dp466
S'part_of_piece'
p467
(lp468
(S"the long ! side  object  that i'm gonna place now"
p469
(I1231
I1246
tp470
S'def_np'
p471
tp472
a(S'it'
p473
(I1093
I1093
tp474
S'pronoun'
p475
tp476
asS'location'
p477
(lp478
(S'same line but one up'
p479
(I1259
I1263
tp480
S'other'
p481
tp482
asS'piece'
p483
(lp484
(S"the object  that i'm gonna place now"
p485
(I1239
I1246
tp486
S'def_np'
p487
tp488
a(S'that one'
p489
(I1083
I1084
tp490
S'def_np'
p491
tp492
assg252
(dp493
S'piece'
p494
(lp495
(S'boomerang'
p496
(I1212
I1212
tp497
S'def_np'
p498
tp499
assstp500
a((I1300
I1422
tp501
(dp502
g3
(dp503
g187
(dp504
S'piece'
p505
(lp506
(S'the shape that  uhm   was already there'
p507
(I1380
I1389
tp508
S'def_np'
p509
tp510
assS'6w'
p511
(dp512
S'piece'
p513
(lp514
(S'six'
p515
(I1300
I1300
tp516
S'def_np'
p517
tp518
a(S'it'
p519
(I1308
I1308
tp520
S'pronoun'
p521
tp522
a(S'it'
p523
(I1325
I1325
tp524
S'pronoun'
p525
tp526
a(S'that'
p527
(I1332
I1332
tp528
S'def_np'
p529
tp530
asS'comp_piece'
p531
(lp532
g518
ag522
ag526
ag530
asS'location'
p533
(lp534
g518
ag522
ag526
ag530
asS'desc_piece'
p535
(lp536
g518
ag522
ag526
ag530
asssg41
(dp537
g511
(dp538
S'piece'
p539
(lp540
(S'it'
p541
(I1330
I1330
tp542
S'pronoun'
p543
tp544
a(S'it'
p545
(I1404
I1404
tp546
S'pronoun'
p547
tp548
a(S'it'
p549
(I1419
I1419
tp550
S'pronoun'
p551
tp552
asS'location'
p553
(lp554
g544
ag548
ag552
assstp555
a((I1423
I1513
tp556
(dp557
g3
(dp558
g374
(dp559
S'piece'
p560
(lp561
(S"the one that we've placed next to it"
p562
(I1468
I1475
tp563
S'def_np'
p564
tp565
asS'location'
p566
(lp567
(S'next to it'
p568
(I1473
I1475
tp569
S'pp'
p570
tp571
assg252
(dp572
S'piece'
p573
(lp574
(S'it'
p575
(I1475
I1475
tp576
S'pronoun'
p577
tp578
a(S"the boomerang ! that we've placed in the elephant's trunk"
p579
(I1452
I1461
tp580
S'def_np'
p581
tp582
asS'location'
p583
(lp584
(S"in the elephant's trunk"
p585
(I1458
I1461
tp586
S'pp'
p587
tp588
assS'7x'
p589
(dp590
S'piece'
p591
(lp592
(S'next shape'
p593
(I1426
I1427
tp594
S'def_np'
p595
tp596
a(S'a cross'
p597
(I1429
I1430
tp598
S'indef_np'
p599
tp600
a(S'that'
p601
(I1447
I1447
tp602
S'def_np'
p603
tp604
a(S'that'
p605
(I1477
I1477
tp606
S'def_np'
p607
tp608
asS'comp_piece'
p609
(lp610
g596
ag600
ag604
ag608
asS'location'
p611
(lp612
g596
ag600
ag604
ag608
asS'desc_piece'
p613
(lp614
g596
ag600
ag604
ag608
asssg41
(dp615
g589
(dp616
S'piece'
p617
(lp618
(S'it'
p619
(I1441
I1441
tp620
S'pronoun'
p621
tp622
asS'location'
p623
(lp624
g622
assstp625
a((I1514
I1562
tp626
(dp627
g41
(dp628
S'9c'
p629
(dp630
S'piece'
p631
(lp632
(S'the c shape'
p633
(I1516
I1518
tp634
S'def_np'
p635
tp636
a(S'this'
p637
(I1552
I1552
tp638
S'def_np'
p639
tp640
a(S'it'
p641
(I1530
I1530
tp642
S'pronoun'
p643
tp644
a(S"a shape that'll fit there"
p645
(I1555
I1559
tp646
S'indef_np'
p647
tp648
asS'location'
p649
(lp650
(S'next to that'
p651
(I1522
I1524
tp652
S'pp'
p653
tp654
assg589
(dp655
S'piece'
p656
(lp657
(S'that'
p658
(I1524
I1524
tp659
S'def_np'
p660
tp661
assstp662
a((I1563
I1738
tp663
(dp664
g3
(dp665
g374
(dp666
S'piece'
p667
(lp668
(S'the last shape you put'
p669
(I1635
I1639
tp670
S'def_np'
p671
tp672
assg96
(dp673
S'piece'
p674
(lp675
(S'the shape that we put in the front leg'
p676
(I1607
I1615
tp677
S'indef_np'
p678
tp679
asS'location'
p680
(lp681
(S'in the front leg'
p682
(I1612
I1615
tp683
S'pp'
p684
tp685
assS'8f'
p686
(dp687
S'part_of_piece'
p688
(lp689
(S'horizontal strip of three'
p690
(I1662
I1665
tp691
S'indef_np'
p692
tp693
a(S'one sticking out'
p694
(I1675
I1677
tp695
S'quant_np'
p696
tp697
a(S'one sticking out'
p698
(I1696
I1698
tp699
S'quant_np'
p700
tp701
asS'piece'
p702
(lp703
(S'eight'
p704
(I1571
I1571
tp705
S'def_np'
p706
tp707
a(S'eight'
p708
(I1572
I1572
tp709
S'def_np'
p710
tp711
a(S'eight'
p712
(I1567
I1567
tp713
S'def_np'
p714
tp715
a(S'it'
p716
(I1598
I1598
tp717
S'pronoun'
p718
tp719
a(S'it'
p720
(I1591
I1591
tp721
S'pronoun'
p722
tp723
a(S'it'
p724
(I1579
I1579
tp725
S'pronoun'
p726
tp727
a(S'it'
p728
(I1621
I1621
tp729
S'pronoun'
p730
tp731
a(S'it'
p732
(I1617
I1617
tp733
S'pronoun'
p734
tp735
a(S'its'
p736
(I1657
I1657
tp737
S'pronoun'
p738
tp739
a(S'it'
p740
(I1655
I1655
tp741
S'pronoun'
p742
tp743
a(S'it'
p744
(I1730
I1730
tp745
S'pronoun'
p746
tp747
asS'location'
p748
(lp749
(S'above !    shape that we put in the front leg'
p750
(I1600
I1615
tp751
S'pp'
p752
tp753
a(S"below   the shape   that   + it's below the last shape you put"
p754
(I1622
I1639
tp755
S'pp'
p756
tp757
assg589
(dp758
S'piece'
p759
(lp760
(S'that'
p761
(I1564
I1564
tp762
S'def_np'
p763
tp764
a(S'seven'
p765
(I1566
I1566
tp766
S'def_np'
p767
tp768
asssg41
(dp769
g374
(dp770
S'part_of_piece'
p771
(lp772
(S'the long one'
p773
(I1640
I1642
tp774
S'def_np'
p775
tp776
a(S'the one sticking out'
p777
(I1644
I1647
tp778
S'def_np'
p779
tp780
asS'piece'
p781
(lp782
g776
ag780
assg686
(dp783
S'part_of_piece'
p784
(lp785
(S'one sticking out'
p786
(I1682
I1684
tp787
S'quant_np'
p788
tp789
asS'piece'
p790
(lp791
(S'that'
p792
(I1707
I1707
tp793
S'def_np'
p794
tp795
a(S'it'
p796
(I1709
I1709
tp797
S'pronoun'
p798
tp799
assstp800
a((I1739
I1799
tp801
(dp802
g3
(dp803
S'11i'
p804
(dp805
S'location'
p806
(lp807
(S'below that'
p808
(I1797
I1798
tp809
S'pp'
p810
tp811
assg686
(dp812
S'piece'
p813
(lp814
(S'that'
p815
(I1798
I1798
tp816
S'def_np'
p817
tp818
a(S'it'
p819
(I1739
I1739
tp820
S'pronoun'
p821
tp822
asssg41
(dp823
g804
(dp824
S'piece'
p825
(lp826
(S'below that'
p827
(I1794
I1795
tp828
S'pp'
p829
tp830
asS'location'
p831
(lp832
g830
assg686
(dp833
S'piece'
p834
(lp835
(S'it'
p836
(I1779
I1779
tp837
S'pronoun'
p838
tp839
a(S'that'
p840
(I1795
I1795
tp841
S'def_np'
p842
tp843
assstp844
a((I1800
I1816
tp845
(dp846
g41
(dp847
S'10p'
p848
(dp849
S'part_of_piece'
p850
(lp851
(S'the square'
p852
(I1801
I1802
tp853
S'def_np'
p854
tp855
a(S'one trunck sticking out'
p856
(I1804
I1807
tp857
S'quant_np'
p858
tp859
asS'piece'
p860
(lp861
(S'the square with one trunck sticking out'
p862
(I1801
I1807
tp863
S'def_np'
p864
tp865
asS'location'
p866
(lp867
(S'to the right of that'
p868
(I1809
I1813
tp869
S'pp'
p870
tp871
assg686
(dp872
S'piece'
p873
(lp874
(S'that'
p875
(I1813
I1813
tp876
S'def_np'
p877
tp878
assstp879
a.