(lp0
((I18
I224
tp1
(dp2
S'p-utts'
p3
(dp4
S'0z'
p5
(dp6
S'piece'
p7
(lp8
(S'a sort of zig zag '
p9
(I22
I29
tp10
S'indef_np'
p11
tp12
asS'location'
p13
(lp14
(S'in the middle'
p15
(I30
I32
tp16
S'pp'
p17
tp18
assS'3v'
p19
(dp20
S'piece'
p21
(lp22
(S'the equal sized one'
p23
(I120
I123
tp24
S'def_np'
p25
tp26
assS'1l'
p27
(dp28
S'part_of_piece'
p29
(lp30
(S'one that looks like an l'
p31
(I48
I53
tp32
S'indef_np'
p33
tp34
a(S"one that's uh  l"
p35
(I64
I73
tp36
S'indef_np'
p37
tp38
a(S'a symmetrical l'
p39
(I71
I73
tp40
S'indef_np'
p41
tp42
a(S'one'
p43
(I74
I74
tp44
S'quant_np'
p45
tp46
a(S'it'
p47
(I97
I97
tp48
S'pronoun'
p49
tp50
a(S'it'
p51
(I129
I129
tp52
S'pronoun'
p53
tp54
a(S'it'
p55
(I135
I135
tp56
S'pronoun'
p57
tp58
a(S'it'
p59
(I148
I148
tp60
S'pronoun'
p61
tp62
a(S'that'
p63
(I157
I157
tp64
S'def_np'
p65
tp66
a(S'the l'
p67
(I207
I208
tp68
S'def_np'
p69
tp70
asS'piece'
p71
(lp72
g34
ag38
ag42
ag46
ag50
ag54
ag58
ag62
ag66
ag70
asS'comp_piece'
p73
(lp74
g34
ag38
ag42
ag46
ag50
ag54
ag58
ag62
ag66
ag70
asS'location'
p75
(lp76
g34
ag38
ag42
ag46
ag50
ag54
ag58
ag62
ag66
ag70
asS'desc_piece'
p77
(lp78
g34
ag38
ag42
ag46
ag50
ag54
ag58
ag62
ag66
ag70
asssS'e-utts'
p79
(dp80
g27
(dp81
S'piece'
p82
(lp83
(S'the long one'
p84
(I102
I104
tp85
S'def_np'
p86
tp87
a(S'it'
p88
(I171
I171
tp89
S'pronoun'
p90
tp91
a(S'that'
p92
(I204
I204
tp93
S'def_np'
p94
tp95
asS'location'
p96
(lp97
g87
ag91
ag95
assstp98
a((I225
I374
tp99
(dp100
g3
(dp101
g5
(dp102
S'piece'
p103
(lp104
(S'the zig zag we already got'
p105
(I342
I347
tp106
S'def_np'
p107
tp108
a(S'the zig-zaggy bit'
p109
(I253
I255
tp110
S'def_np'
p111
tp112
assS'2n'
p113
(dp114
S'part_of_piece'
p115
(lp116
(S'number two'
p117
(I230
I231
tp118
S'def_np'
p119
tp120
a(S'number two'
p121
(I234
I235
tp122
S'def_np'
p123
tp124
a(S'a bit'
p125
(I274
I275
tp126
S'indef_np'
p127
tp128
a(S'it'
p129
(I276
I276
tp130
S'pronoun'
p131
tp132
a(S'it'
p133
(I279
I279
tp134
S'pronoun'
p135
tp136
a(S'that'
p137
(I297
I297
tp138
S'def_np'
p139
tp140
a(S'that'
p141
(I325
I325
tp142
S'def_np'
p143
tp144
a(S'that'
p145
(I371
I371
tp146
S'def_np'
p147
tp148
asS'comp_piece'
p149
(lp150
g120
ag124
ag128
ag132
ag136
ag140
ag144
ag148
asS'location'
p151
(lp152
g120
ag124
ag128
ag132
ag136
ag140
ag144
ag148
asS'desc_piece'
p153
(lp154
g120
ag124
ag128
ag132
ag136
ag140
ag144
ag148
asS'piece'
p155
(lp156
g120
ag124
ag128
ag132
ag136
ag140
ag144
ag148
asssg79
(dp157
g113
(dp158
S'piece'
p159
(lp160
(S'it'
p161
(I322
I322
tp162
S'pronoun'
p163
tp164
a(S'that'
p165
(I367
I367
tp166
S'def_np'
p167
tp168
asS'comp_piece'
p169
(lp170
g164
ag168
asS'desc_piece'
p171
(lp172
g164
ag168
assstp173
a((I375
I461
tp174
(dp175
g3
(dp176
g19
(dp177
S'piece'
p178
(lp179
(S'number three'
p180
(I376
I377
tp181
S'def_np'
p182
tp183
a(S'three'
p184
(I380
I380
tp185
S'def_np'
p186
tp187
a(S'the other l'
p188
(I382
I384
tp189
S'def_np'
p190
tp191
a(S'the equal  l'
p192
(I385
I388
tp193
S'def_np'
p194
tp195
a(S'that'
p196
(I391
I391
tp197
S'def_np'
p198
tp199
a(S'it'
p200
(I399
I399
tp201
S'pronoun'
p202
tp203
a(S'that'
p204
(I442
I442
tp205
S'def_np'
p206
tp207
a(S'an arrow pointing to the top left on the screen'
p208
(I445
I454
tp209
S'indef_np'
p210
tp211
asS'location'
p212
(lp213
g183
ag187
ag191
ag195
ag199
ag203
ag207
ag211
asssg79
(dp214
g19
(dp215
S'piece'
p216
(lp217
(S'the  bit'
p218
(I425
I431
tp219
S'def_np'
p220
tp221
asS'location'
p222
(lp223
g221
assstp224
a((I462
I529
tp225
(dp226
g3
(dp227
g5
(dp228
S'piece'
p229
(lp230
(S'the zig zag bit  with'
p231
(I493
I501
tp232
S'def_np'
p233
tp234
assS'4t'
p235
(dp236
S'piece'
p237
(lp238
(S'+ it'
p239
(I517
I518
tp240
S'pronoun'
p241
tp242
a(S'that'
p243
(I526
I526
tp244
S'pronoun'
p245
tp246
a(S'the t'
p247
(I468
I469
tp248
S'def_np'
p249
tp250
a(S'four'
p251
(I466
I466
tp252
S'def_np'
p253
tp254
a(S'number fo:ur'
p255
(I464
I465
tp256
S'def_np'
p257
tp258
a(S'his'
p259
(I485
I485
tp260
S'pronoun'
p261
tp262
a(S'it'
p263
(I483
I483
tp264
S'pronoun'
p265
tp266
a(S'it'
p267
(I481
I481
tp268
S'pronoun'
p269
tp270
a(S'a t'
p271
(I474
I475
tp272
S'indef_np'
p273
tp274
a(S'it'
p275
(I490
I490
tp276
S'pronoun'
p277
tp278
asS'desc_piece'
p279
(lp280
(S'four is the t'
p281
(I466
I469
tp282
S'comp_sent'
p283
tp284
assg27
(dp285
S'piece'
p286
(lp287
(S'on his   right hand foot'
p288
(I508
I514
tp289
S'pp'
p290
tp291
asS'location'
p292
(lp293
g291
assstp294
a((I530
I853
tp295
(dp296
g3
(dp297
g5
(dp298
S'piece'
p299
(lp300
(S'the zig zag bit you got in the first place'
p301
(I644
I653
tp302
S'def_np'
p303
tp304
assS'5y'
p305
(dp306
S'part_of_piece'
p307
(lp308
(S'number five is  a small t'
p309
(I534
I545
tp310
S'comp_sent'
p311
tp312
asS'piece'
p313
(lp314
g312
asS'comp_piece'
p315
(lp316
g312
asS'location'
p317
(lp318
g312
asS'desc_piece'
p319
(lp320
g312
asssg79
(dp321
g305
(dp322
S'part_of_piece'
p323
(lp324
(S'four squares along'
p325
(I730
I732
tp326
S'quant_np'
p327
tp328
a(S'a little square down ?'
p329
(I735
I739
tp330
S'quant_np'
p331
tp332
a(S'the long bit'
p333
(I676
I678
tp334
S'def_np'
p335
tp336
a(S'the left square'
p337
(I695
I697
tp338
S'def_np'
p339
tp340
asS'piece'
p341
(lp342
(S'it'
p343
(I848
I848
tp344
S'pronoun'
p345
tp346
a(S'it'
p347
(I729
I729
tp348
S'pronoun'
p349
tp350
asS'desc_piece'
p351
(lp352
(S"it's four squares along and then a little square down ?"
p353
(I729
I739
tp354
S'attribution_sent'
p355
tp356
assg19
(dp357
S'piece'
p358
(lp359
(S'the arrow thing'
p360
(I708
I710
tp361
S'def_np'
p362
tp363
assstp364
a((I854
I922
tp365
(dp366
g3
(dp367
S'6w'
p368
(dp369
S'piece'
p370
(lp371
(S'a staircase'
p372
(I874
I875
tp373
S'indef_np'
p374
tp375
asS'comp_piece'
p376
(lp377
g375
asS'location'
p378
(lp379
g375
asssg79
(dp380
g368
(dp381
S'piece'
p382
(lp383
(S'it'
p384
(I907
I907
tp385
S'pronoun'
p386
tp387
assstp388
a((I923
I997
tp389
(dp390
g3
(dp391
g305
(dp392
S'piece'
p393
(lp394
(S'the t'
p395
(I949
I950
tp396
S'def_np'
p397
tp398
a(S'the uh small'
p399
(I955
I957
tp400
S'def_np'
p401
tp402
a(S'the baby t'
p403
(I965
I967
tp404
S'def_np'
p405
tp406
a(S'that from hat we had problems doing'
p407
(I968
I974
tp408
S'def_np'
p409
tp410
a(S'it'
p411
(I982
I982
tp412
S'pronoun'
p413
tp414
assS'7x'
p415
(dp416
S'piece'
p417
(lp418
(S'seven'
p419
(I924
I924
tp420
S'def_np'
p421
tp422
a(S'seven'
p423
(I927
I927
tp424
S'def_np'
p425
tp426
a(S'the plus'
p427
(I929
I930
tp428
S'def_np'
p429
tp430
a(S'it'
p431
(I941
I941
tp432
S'pronoun'
p433
tp434
a(S'that'
p435
(I984
I984
tp436
S'def_np'
p437
tp438
asS'location'
p439
(lp440
g422
ag426
ag430
ag434
ag438
asS'desc_piece'
p441
(lp442
g422
ag426
ag430
ag434
ag438
asssg79
(dp443
g415
(dp444
S'piece'
p445
(lp446
(S'that'
p447
(I988
I988
tp448
S'def_np'
p449
tp450
assstp451
a((I998
I1093
tp452
(dp453
g3
(dp454
S'8f'
p455
(dp456
S'part_of_piece'
p457
(lp458
(S'an extra bit'
p459
(I1045
I1047
tp460
S'indef_np'
p461
tp462
asS'piece'
p463
(lp464
(S'weird shape'
p465
(I1033
I1034
tp466
S'indef_np'
p467
tp468
a(S'it'
p469
(I1035
I1035
tp470
S'pronoun'
p471
tp472
a(S'it'
p473
(I1039
I1039
tp474
S'pronoun'
p475
tp476
a(S'that'
p477
(I1057
I1057
tp478
S'def_np'
p479
tp480
a(S'it'
p481
(I1065
I1065
tp482
S'def_np'
p483
tp484
a(S'it'
p485
(I1066
I1066
tp486
S'def_np'
p487
tp488
a(S'that'
p489
(I1071
I1071
tp490
S'def_np'
p491
tp492
a(S'eight'
p493
(I998
I998
tp494
S'def_np'
p495
tp496
a(S'it'
p497
(I1027
I1027
tp498
S'pronoun'
p499
tp500
a(S'eight'
p501
(I1003
I1003
tp502
S'def_np'
p503
tp504
asS'location'
p505
(lp506
(S'between    right foot'
p507
(I1005
I1026
tp508
S'pp'
p509
tp510
asS'desc_piece'
p511
(lp512
(S'an l but with an extra bit coming out  one of the sides'
p513
(I1041
I1054
tp514
S'indef_np'
p515
tp516
assS'11i'
p517
(dp518
S'piece'
p519
(lp520
(S'another piece'
p521
(I1088
I1089
tp522
S'indef_np'
p523
tp524
assg305
(dp525
S'piece'
p526
(lp527
(S'the baby t'
p528
(I1012
I1014
tp529
S'def_np'
p530
tp531
assstp532
a((I1094
I1153
tp533
(dp534
g3
(dp535
S'9c'
p536
(dp537
S'piece'
p538
(lp539
(S'a normal c'
p540
(I1136
I1138
tp541
S'indef_np'
p542
tp543
a(S'its'
p544
(I1135
I1135
tp545
S'pronoun'
p546
tp547
a(S'that'
p548
(I1140
I1140
tp549
S'def_np'
p550
tp551
a(S'a c'
p552
(I1118
I1119
tp553
S'indef_np'
p554
tp555
a(S'it'
p556
(I1116
I1116
tp557
S'pronoun'
p558
tp559
a(S'it'
p560
(I1114
I1114
tp561
S'pronoun'
p562
tp563
a(S'u shape'
p564
(I1108
I1109
tp565
S'def_np'
p566
tp567
a(S'the c shape'
p568
(I1103
I1105
tp569
S'def_np'
p570
tp571
a(S'number nine'
p572
(I1100
I1101
tp573
S'def_np'
p574
tp575
a(S'number nine'
p576
(I1098
I1099
tp577
S'def_np'
p578
tp579
asS'location'
p580
(lp581
(S'into the plus sign on the left making of his head'
p582
(I1142
I1152
tp583
S'pp'
p584
tp585
asS'desc_piece'
p586
(lp587
(S"it's like a c"
p588
(I1116
I1119
tp589
S'comp_sent'
p590
tp591
a(S'number nine is the c shape'
p592
(I1100
I1105
tp593
S'comp_sent'
p594
tp595
assg455
(dp596
S'piece'
p597
(lp598
(S'eight'
p599
(I1096
I1096
tp600
S'def_np'
p601
tp602
assg415
(dp603
S'piece'
p604
(lp605
(S'the plus sign on the left making of his head'
p606
(I1143
I1152
tp607
S'def_np'
p608
tp609
asssg79
(dp610
g536
(dp611
S'location'
p612
(lp613
(S'on his head'
p614
(I1128
I1130
tp615
S'pp'
p616
tp617
assstp618
a((I1154
I1195
tp619
(dp620
g3
(dp621
S'10p'
p622
(dp623
S'part_of_piece'
p624
(lp625
(S'ten'
p626
(I1155
I1155
tp627
S'def_np'
p628
tp629
a(S'ten'
p630
(I1158
I1158
tp631
S'def_np'
p632
tp633
a(S'it'
p634
(I1162
I1162
tp635
S'pronoun'
p636
tp637
a(S'it'
p638
(I1174
I1174
tp639
S'pronoun'
p640
tp641
asS'comp_piece'
p642
(lp643
g629
ag633
ag637
ag641
asS'desc_piece'
p644
(lp645
g629
ag633
ag637
ag641
asS'piece'
p646
(lp647
g629
ag633
ag637
ag641
asssg79
(dp648
g455
(dp649
S'piece'
p650
(lp651
(S'one'
p652
(I1192
I1192
tp653
S'indef_np'
p654
tp655
assstp656
a((I1196
I1407
tp657
(dp658
g3
(dp659
g305
(dp660
S'piece'
p661
(lp662
(S'the small t'
p663
(I1297
I1299
tp664
S'def_np'
p665
tp666
asS'location'
p667
(lp668
(S'on the top of his back'
p669
(I1300
I1305
tp670
S'pp'
p671
tp672
assg113
(dp673
S'piece'
p674
(lp675
(S"the bit that you've already put there"
p676
(I1340
I1346
tp677
S'def_np'
p678
tp679
assg455
(dp680
S'piece'
p681
(lp682
(S'it'
p683
(I1406
I1406
tp684
S'pronoun'
p685
tp686
a(S'it'
p687
(I1390
I1390
tp688
S'pronoun'
p689
tp690
a(S'it'
p691
(I1394
I1394
tp692
S'pronoun'
p693
tp694
a(S'it'
p695
(I1373
I1373
tp696
S'pronoun'
p697
tp698
a(S'it'
p699
(I1367
I1367
tp700
S'pronoun'
p701
tp702
a(S'the t with '
p703
(I1282
I1290
tp704
S'def_np'
p705
tp706
asS'location'
p707
(lp708
(S'his front shoulder'
p709
(I1374
I1376
tp710
S'def_np'
p711
tp712
a(S"on top of the bit that you've already put there"
p713
(I1337
I1346
tp714
S'pp'
p715
tp716
a(S'between   small t on the top of his back'
p717
(I1293
I1305
tp718
S'pp'
p719
tp720
assg368
(dp721
S'piece'
p722
(lp723
(S'the staircase one ?'
p724
(I1206
I1209
tp725
S'def_np'
p726
tp727
asssg79
(dp728
g455
(dp729
S'part_of_piece'
p730
(lp731
(S'the weird   one'
p732
(I1216
I1220
tp733
S'def_np'
p734
tp735
a(S'the weird'
p736
(I1257
I1258
tp737
S'def_np'
p738
tp739
a(S'that'
p740
(I1277
I1277
tp741
S'def_np'
p742
tp743
a(S'it'
p744
(I1404
I1404
tp745
S'pronoun'
p746
tp747
asS'piece'
p748
(lp749
g735
ag739
ag743
ag747
asS'desc_piece'
p750
(lp751
g735
ag739
ag743
ag747
assg622
(dp752
S'part_of_piece'
p753
(lp754
(S'a little bit on the top'
p755
(I1242
I1247
tp756
S'indef_np'
p757
tp758
a(S'the square'
p759
(I1236
I1237
tp760
S'def_np'
p761
tp762
asS'piece'
p763
(lp764
(S'the square with   like a little bit on the top'
p765
(I1236
I1247
tp766
S'def_np'
p767
tp768
assg517
(dp769
S'piece'
p770
(lp771
(S'a long one'
p772
(I1232
I1234
tp773
S'indef_np'
p774
tp775
assstp776
a.