(dp0
S'alignment e'
p1
(lp2
(F1.0
S'correct'
p3
tp4
a(F0.0
S'correct'
p5
tp6
a(F1.0
g5
tp7
a(F1.0
S'not_moved'
p8
tp9
a(F1.0
S'not_moved'
p10
tp11
a(F1.0
g5
tp12
a(F0.0
g5
tp13
a(F0.0
S'not_moved'
p14
tp15
a(F0.0
S'not_moved'
p16
tp17
a(F0.0
S'incorrect'
p18
tp19
a(F1.0
S'correct'
p20
tp21
a(F0.0
g5
tp22
a(F0.0
S'incorrect'
p23
tp24
a(F0.0
S'incorrect'
p25
tp26
a(F1.0
S'not_moved'
p27
tp28
a(F1.0
S'correct'
p29
tp30
a(F1.0
g5
tp31
a(F0.0
S'correct'
p32
tp33
a(F0.6666666666666666
S'correct'
p34
tp35
a(F0.0
S'not_moved'
p36
tp37
a(F1.0
S'incorrect'
p38
tp39
a(F1.0
S'incorrect'
p40
tp41
a(F0.0
S'not_moved'
p42
tp43
a(F0.0
S'correct'
p44
tp45
a(F1.0
S'correct'
p46
tp47
a(F0.0
S'correct'
p48
tp49
a(F1.0
S'not_moved'
p50
tp51
a(F0.25
g5
tp52
a(F1.0
S'not_moved'
p53
tp54
a(F1.0
S'not_moved'
p55
tp56
a(F0.5
S'correct'
p57
tp58
a(F0.0
S'not_moved'
p59
tp60
a(F1.0
S'correct'
p61
tp62
a(F1.0
S'not_moved'
p63
tp64
a(F0.6666666666666666
g5
tp65
a(F1.0
S'correct'
p66
tp67
a(F1.0
S'incorrect'
p68
tp69
a(F0.0
S'incorrect'
p70
tp71
a(F0.0
g5
tp72
a(F1.0
S'incorrect'
p73
tp74
a(F1.0
S'correct'
p75
tp76
a(F1.0
g5
tp77
a(F0.0
S'not_moved'
p78
tp79
a(F1.0
S'not_moved'
p80
tp81
a(F1.0
S'not_moved'
p82
tp83
a(F0.0
S'incorrect'
p84
tp85
a(F1.0
g5
tp86
a(F0.0
S'not_moved'
p87
tp88
a(F0.0
g5
tp89
a(F0.0
g5
tp90
a(F0.6666666666666666
S'incorrect'
p91
tp92
a(F0.5
S'correct'
p93
tp94
a(F0.0
g5
tp95
a(F0.3333333333333333
S'correct'
p96
tp97
a(F1.0
S'not_moved'
p98
tp99
a(F0.0
S'not_moved'
p100
tp101
a(F0.8
g5
tp102
a(F0.0
S'correct'
p103
tp104
a(F1.0
g5
tp105
a(F0.0
S'correct'
p106
tp107
a(F0.0
S'not_moved'
p108
tp109
a(F0.0
S'incorrect'
p110
tp111
a(F0.5
g5
tp112
a(F1.0
g5
tp113
a(F0.0
S'incorrect'
p114
tp115
a(F1.0
g5
tp116
a(F1.0
S'not_moved'
p117
tp118
a(F0.0
S'not_moved'
p119
tp120
a(F0.0
g5
tp121
a(F1.0
g5
tp122
a(F0.5
g5
tp123
a(F0.5
g5
tp124
a(F0.6666666666666666
S'not_moved'
p125
tp126
a(F0.0
g5
tp127
a(F1.0
S'not_moved'
p128
tp129
a(F0.0
S'not_moved'
p130
tp131
a(F0.0
S'correct'
p132
tp133
a(F1.0
g5
tp134
a(F0.0
S'correct'
p135
tp136
a(F0.5
S'correct'
p137
tp138
a(F0.5
g5
tp139
a(F1.0
S'not_moved'
p140
tp141
a(F0.5
g5
tp142
a(F1.0
S'not_moved'
p143
tp144
a(F0.0
g5
tp145
a(F1.0
S'not_moved'
p146
tp147
a(F1.0
S'not_moved'
p148
tp149
a(F1.0
S'not_moved'
p150
tp151
a(F1.0
S'correct'
p152
tp153
a(F1.0
S'correct'
p154
tp155
a(F0.0
S'not_moved'
p156
tp157
a(F1.0
S'not_moved'
p158
tp159
a(F0.0
g5
tp160
a(F1.0
S'not_moved'
p161
tp162
a(F0.0
S'not_moved'
p163
tp164
a(F0.0
S'correct'
p165
tp166
a(F1.0
g5
tp167
a(F0.0
S'correct'
p168
tp169
a(F0.0
S'incorrect'
p170
tp171
a(F0.0
g5
tp172
a(F1.0
S'not_moved'
p173
tp174
a(F0.0
S'correct'
p175
tp176
a(F1.0
g5
tp177
a(F0.5714285714285714
S'incorrect'
p178
tp179
a(F0.0
g5
tp180
asS'variation p'
p181
(lp182
(cnumpy.core.multiarray
scalar
p183
(cnumpy
dtype
p184
(S'f8'
p185
I0
I1
tp186
Rp187
(I3
S'<'
p188
NNNI-1
I-1
I0
tp189
bS'\x00\x00\x00\x00\x00\x00\x00\x00'
p190
tp191
Rp192
g3
tp193
a(g183
(g187
S'\x80?\xff<\xb6.\xf0?'
p194
tp195
Rp196
g5
tp197
a(g183
(g187
S'\x00\x00\x00\x00\x00\x00\x00\x00'
p198
tp199
Rp200
g5
tp201
a(g183
(g187
S'\x00\x00\x00\x00\x00\x00\x00\x00'
p202
tp203
Rp204
g8
tp205
a(g183
(g187
S'\x00\x00\x00\x00\x00\x00\x00\x00'
p206
tp207
Rp208
g10
tp209
a(g183
(g187
S'\x00\x00\x00\x00\x00\x00\x00\x00'
p210
tp211
Rp212
g5
tp213
a(g183
(g187
S's\xab;?\xb2\xa2\xf0?'
p214
tp215
Rp216
g5
tp217
a(g183
(g187
S'\x00\x00\x00\x00\x00\x00\x00\x00'
p218
tp219
Rp220
g14
tp221
a(g183
(g187
S' \x8a\x08\xf6R^\xe4?'
p222
tp223
Rp224
g16
tp225
a(g183
(g187
S'\xef9\xfa\xfeB.\xe6?'
p226
tp227
Rp228
g82
tp229
a(g183
(g187
S'!H\xa5C\x06%\xe3?'
p230
tp231
Rp232
g20
tp233
a(g183
(g187
S'W\xb1\xc4T6N\xe8?'
p234
tp235
Rp236
g42
tp237
a(g183
(g187
S'\x00\x00\x00\x00\x00\x00\x00\x00'
p238
tp239
Rp240
g5
tp241
a(g183
(g187
S'\xca}\xaf\x057\x8a\xe7?'
p242
tp243
Rp244
g114
tp245
a(g183
(g187
S' \x8a\x08\xf6R^\xe4?'
p246
tp247
Rp248
g25
tp249
a(g183
(g187
S'\x00\x00\x00\x00\x00\x00\x00\x00'
p250
tp251
Rp252
g27
tp253
a(g183
(g187
S'\x00\x00\x00\x00\x00\x00\x00\x00'
p254
tp255
Rp256
g29
tp257
a(g183
(g187
S'N\xef\xf0E\xa6\xfe\xe1?'
p258
tp259
Rp260
g5
tp261
a(g183
(g187
S'\x00\x00\x00\x00\x00\x00\x00\x00'
p262
tp263
Rp264
g32
tp265
a(g183
(g187
S'\xd8\x91w\x0f\x18\xee\xe5?'
p266
tp267
Rp268
g34
tp269
a(g183
(g187
S' \x8a\x08\xf6R^\xe4?'
p270
tp271
Rp272
S'not_moved'
p273
tp274
a(g183
(g187
S'+\x91ka"l\xf1?'
p275
tp276
Rp277
g5
tp278
a(g183
(g187
S'\n\x03\xadz\xea\x93\xf1?'
p279
tp280
Rp281
S'correct'
p282
tp283
a(g183
(g187
S'\xef9\xfa\xfeB.\xe6?'
p284
tp285
Rp286
S'not_moved'
p287
tp288
a(g183
(g187
S'\x00\x00\x00\x00\x00\x00\x00\x00'
p289
tp290
Rp291
g36
tp292
a(g183
(g187
S'\xef9\xfa\xfeB.\xe6?'
p293
tp294
Rp295
g66
tp296
a(g183
(g187
S'\xef9\xfa\xfeB.\xe6?'
p297
tp298
Rp299
g5
tp300
a(g183
(g187
S'\x00\x00\x00\x00\x00\x00\x00\x00'
p301
tp302
Rp303
g38
tp304
a(g183
(g187
S'\x00\x00\x00\x00\x00\x00\x00\x00'
p305
tp306
Rp307
g40
tp308
a(g183
(g187
S'\x00\x00\x00\x00\x00\x00\x00\x00'
p309
tp310
Rp311
g5
tp312
a(g183
(g187
S'\x00\x00\x00\x00\x00\x00\x00\x00'
p313
tp314
Rp315
S'not_moved'
p316
tp317
a(g183
(g187
S'\x00\x00\x00\x00\x00\x00\x00\x00'
p318
tp319
Rp320
S'not_moved'
p321
tp322
a(g183
(g187
S'\xb1\xf2\x1a\x9fzh\xf3?'
p323
tp324
Rp325
g44
tp326
a(g183
(g187
S'\x00\x00\x00\x00\x00\x00\x00\x00'
p327
tp328
Rp329
S'correct'
p330
tp331
a(g183
(g187
S'\x00\x00\x00\x00\x00\x00\x00\x00'
p332
tp333
Rp334
S'not_moved'
p335
tp336
a(g183
(g187
S'\x00\x00\x00\x00\x00\x00\x00\x00'
p337
tp338
Rp339
S'not_moved'
p340
tp341
a(g183
(g187
S'\x00\x00\x00\x00\x00\x00\x00\x00'
p342
tp343
Rp344
g46
tp345
a(g183
(g187
S'\xb1\xf2\x1a\x9fzh\xf3?'
p346
tp347
Rp348
g48
tp349
a(g183
(g187
S'\x18\x96I\xf1\xf2r\xe4?'
p350
tp351
Rp352
g73
tp353
a(g183
(g187
S'\x00\x00\x00\x00\x00\x00\x00\x00'
p354
tp355
Rp356
S'not_moved'
p357
tp358
a(g183
(g187
S'\xfcc\x0f;\x1f\x01\xee?'
p359
tp360
Rp361
g5
tp362
a(g183
(g187
S'\xef9\xfa\xfeB.\xe6?'
p363
tp364
Rp365
S'correct'
p366
tp367
a(g183
(g187
S'\x06\xfb\x03\xab\x86+\xe5?'
p368
tp369
Rp370
g53
tp371
a(g183
(g187
S' \x8a\x08\xf6R^\xe4?'
p372
tp373
Rp374
g55
tp375
a(g183
(g187
S'\x00\x00\x00\x00\x00\x00\x00\x00'
p376
tp377
Rp378
g57
tp379
a(g183
(g187
S'\xe4\x02#\xd8\x96\xfb\xe5?'
p380
tp381
Rp382
g59
tp383
a(g183
(g187
S'\x1bH\xb1\xf5\x13\xc3\xeb?'
p384
tp385
Rp386
g61
tp387
a(g183
(g187
S'\x00\x00\x00\x00\x00\x00\x00\x00'
p388
tp389
Rp390
g63
tp391
a(g183
(g187
S'\x00\x00\x00\x00\x00\x00\x00\x00'
p392
tp393
Rp394
g5
tp395
a(g183
(g187
S'\x00\x00\x00\x00\x00\x00\x00\x00'
p396
tp397
Rp398
S'not_moved'
p399
tp400
a(g183
(g187
S'\x00\x00\x00\x00\x00\x00\x00\x00'
p401
tp402
Rp403
S'not_moved'
p404
tp405
a(g183
(g187
S'\x00\x00\x00\x00\x00\x00\x00\x00'
p406
tp407
Rp408
S'not_moved'
p409
tp410
a(g183
(g187
S'\x00\x00\x00\x00\x00\x00\x00\x00'
p411
tp412
Rp413
S'not_moved'
p414
tp415
a(g183
(g187
S'\x00\x00\x00\x00\x00\x00\x00\x00'
p416
tp417
Rp418
S'correct'
p419
tp420
a(g183
(g187
S'\x00\x00\x00\x00\x00\x00\x00\x00'
p421
tp422
Rp423
g5
tp424
a(g183
(g187
S'\xc82t\xc3O\x89\xe5?'
p425
tp426
Rp427
g68
tp428
a(g183
(g187
S'\xa2\xcf#\xf0\x17\x95\xee?'
p429
tp430
Rp431
g70
tp432
a(g183
(g187
S'\x00\x00\x00\x00\x00\x00\x00\x00'
p433
tp434
Rp435
g5
tp436
a(g183
(g187
S'\x00\x00\x00\x00\x00\x00\x00\x00'
p437
tp438
Rp439
g50
tp440
a(g183
(g187
S'\x00\x00\x00\x00\x00\x00\x00\x00'
p441
tp442
Rp443
g75
tp444
a(g183
(g187
S'\x00\x00\x00\x00\x00\x00\x00\x00'
p445
tp446
Rp447
g5
tp448
a(g183
(g187
S'\xd4BV\xf8\xf3\xe0\xf0?'
p449
tp450
Rp451
S'incorrect'
p452
tp453
a(g183
(g187
S'\x00\x00\x00\x00\x00\x00\x00\x00'
p454
tp455
Rp456
S'not_moved'
p457
tp458
a(g183
(g187
S'p\x94\xfb\x18b\xda\xe5?'
p459
tp460
Rp461
g78
tp462
a(g183
(g187
S'\xa2\xcf#\xf0\x17\x95\xee?'
p463
tp464
Rp465
g80
tp466
a(g183
(g187
S'>\xf3\xeb\xb0\x90\xa6\xec?'
p467
tp468
Rp469
g93
tp470
a(g183
(g187
S'\xe4\xeb.\xab\xe0\x1c\xec?'
p471
tp472
Rp473
g84
tp474
a(g183
(g187
S'\x00\x00\x00\x00\x00\x00\x00\x00'
p475
tp476
Rp477
g5
tp478
a(g183
(g187
S'\xef9\xfa\xfeB.\xe6?'
p479
tp480
Rp481
g87
tp482
a(g183
(g187
S'j\xf1\xf3i0\xe1\xe5?'
p483
tp484
Rp485
g5
tp486
a(g183
(g187
S'\xcdP\x1c0\xfd\xfa\xed?'
p487
tp488
Rp489
g5
tp490
a(g183
(g187
S'\x00\x00\x00\x00\x00\x00\x00\x00'
p491
tp492
Rp493
g5
tp494
a(g183
(g187
S'\x00\x00\x00\x00\x00\x00\x00\x00'
p495
tp496
Rp497
g91
tp498
a(g183
(g187
S'\x00\x00\x00\x00\x00\x00\x00\x00'
p499
tp500
Rp501
g5
tp502
a(g183
(g187
S'\x00\x00\x00\x00\x00\x00\x00\x00'
p503
tp504
Rp505
g5
tp506
a(g183
(g187
S'\x00\x00\x00\x00\x00\x00\x00\x00'
p507
tp508
Rp509
g96
tp510
a(g183
(g187
S'\xef9\xfa\xfeB.\xe6?'
p511
tp512
Rp513
S'correct'
p514
tp515
a(g183
(g187
S'\x00\x00\x00\x00\x00\x00\x00\x00'
p516
tp517
Rp518
g98
tp519
a(g183
(g187
S'\xe8\xf0}\xf1K\x03\xe0?'
p520
tp521
Rp522
g173
tp523
a(g183
(g187
S'\x00\x00\x00\x00\x00\x00\x00\x00'
p524
tp525
Rp526
S'correct'
p527
tp528
a(g183
(g187
S'\x00\x00\x00\x00\x00\x00\x00\x00'
p529
tp530
Rp531
S'incorrect'
p532
tp533
a(g183
(g187
S'\xb8\xfc\xfe#k\x9a\xf2?'
p534
tp535
Rp536
g5
tp537
a(g183
(g187
S'\xa2\xcf#\xf0\x17\x95\xee?'
p538
tp539
Rp540
g103
tp541
a(g183
(g187
S'N\xef\xf0E\xa6\xfe\xe1?'
p542
tp543
Rp544
g5
tp545
a(g183
(g187
S'\x00\x00\x00\x00\x00\x00\x00\x00'
p546
tp547
Rp548
g106
tp549
a(g183
(g187
S'\x00\x00\x00\x00\x00\x00\x00\x00'
p550
tp551
Rp552
S'correct'
p553
tp554
a(g183
(g187
S'\xef9\xfa\xfeB.\xe6?'
p555
tp556
Rp557
g108
tp558
a(g183
(g187
S'\xef9\xfa\xfeB.\xe6?'
p559
tp560
Rp561
g110
tp562
a(g183
(g187
S'\x00\x00\x00\x00\x00\x00\x00\x00'
p563
tp564
Rp565
S'not_moved'
p566
tp567
a(g183
(g187
S'\x00\x00\x00\x00\x00\x00\x00\x00'
p568
tp569
Rp570
g5
tp571
a(g183
(g187
S'\x00\x00\x00\x00\x00\x00\x00\x00'
p572
tp573
Rp574
g23
tp575
a(g183
(g187
S'\x00\x00\x00\x00\x00\x00\x00\x00'
p576
tp577
Rp578
S'correct'
p579
tp580
a(g183
(g187
S'\x00\x00\x00\x00\x00\x00\x00\x00'
p581
tp582
Rp583
g5
tp584
a(g183
(g187
S' \x8a\x08\xf6R^\xe4?'
p585
tp586
Rp587
g117
tp588
a(g183
(g187
S'\n\x03\xadz\xea\x93\xf1?'
p589
tp590
Rp591
g119
tp592
a(g183
(g187
S'\x00\x00\x00\x00\x00\x00\x00\x00'
p593
tp594
Rp595
g5
tp596
a(g183
(g187
S'\xef9\xfa\xfeB.\xe6?'
p597
tp598
Rp599
g5
tp600
a(g183
(g187
S' \x8a\x08\xf6R^\xe4?'
p601
tp602
Rp603
g5
tp604
a(g183
(g187
S'\x9e/0E8\x84\xf1?'
p605
tp606
Rp607
g5
tp608
a(g183
(g187
S'\x00\x00\x00\x00\x00\x00\x00\x00'
p609
tp610
Rp611
g125
tp612
a(g183
(g187
S'N\xef\xf0E\xa6\xfe\xe1?'
p613
tp614
Rp615
g5
tp616
a(g183
(g187
S' \x8a\x08\xf6R^\xe4?'
p617
tp618
Rp619
g128
tp620
a(g183
(g187
S's\xab;?\xb2\xa2\xf0?'
p621
tp622
Rp623
S'incorrect'
p624
tp625
a(g183
(g187
S'\x00\x00\x00\x00\x00\x00\x00\x00'
p626
tp627
Rp628
S'not_moved'
p629
tp630
a(g183
(g187
S'\x06\xc1Uz\xab\xf8\xf8?'
p631
tp632
Rp633
g130
tp634
a(g183
(g187
S'\x00\x00\x00\x00\x00\x00\x00\x00'
p635
tp636
Rp637
S'correct'
p638
tp639
a(g183
(g187
S'\x00\x00\x00\x00\x00\x00\x00\x00'
p640
tp641
Rp642
g132
tp643
a(g183
(g187
S'\x00\x00\x00\x00\x00\x00\x00\x00'
p644
tp645
Rp646
S'correct'
p647
tp648
a(g183
(g187
S'\x00\x00\x00\x00\x00\x00\x00\x00'
p649
tp650
Rp651
g5
tp652
a(g183
(g187
S'\xac\xc9\x0f\xebB\x83\xf4?'
p653
tp654
Rp655
g135
tp656
a(g183
(g187
S'\xef9\xfa\xfeB.\xe6?'
p657
tp658
Rp659
S'correct'
p660
tp661
a(g183
(g187
S'\xad\x9c\xa9\xc5\xd7\xd9\xf3?'
p662
tp663
Rp664
g137
tp665
a(g183
(g187
S'\x00\x00\x00\x00\x00\x00\x00\x00'
p666
tp667
Rp668
g5
tp669
a(g183
(g187
S'\x00\x00\x00\x00\x00\x00\x00\x00'
p670
tp671
Rp672
S'not_moved'
p673
tp674
a(g183
(g187
S'\xef9\xfa\xfeB.\xe6?'
p675
tp676
Rp677
S'not_moved'
p678
tp679
a(g183
(g187
S'\x00\x00\x00\x00\x00\x00\x00\x00'
p680
tp681
Rp682
g140
tp683
a(g183
(g187
S' \x8a\x08\xf6R^\xe4?'
p684
tp685
Rp686
g18
tp687
a(g183
(g187
S'\xef9\xfa\xfeB.\xe6?'
p688
tp689
Rp690
g5
tp691
a(g183
(g187
S'\x00\x00\x00\x00\x00\x00\x00\x00'
p692
tp693
Rp694
g143
tp695
a(g183
(g187
S' \x8a\x08\xf6R^\xe4?'
p696
tp697
Rp698
g5
tp699
a(g183
(g187
S'\x00\x00\x00\x00\x00\x00\x00\x00'
p700
tp701
Rp702
g146
tp703
a(g183
(g187
S'\x00\x00\x00\x00\x00\x00\x00\x00'
p704
tp705
Rp706
S'correct'
p707
tp708
a(g183
(g187
S'\xef9\xfa\xfeB.\xe6?'
p709
tp710
Rp711
S'not_moved'
p712
tp713
a(g183
(g187
S'\x00\x00\x00\x00\x00\x00\x00\x00'
p714
tp715
Rp716
S'correct'
p717
tp718
a(g183
(g187
S' \x8a\x08\xf6R^\xe4?'
p719
tp720
Rp721
S'not_moved'
p722
tp723
a(g183
(g187
S'\x00\x00\x00\x00\x00\x00\x00\x00'
p724
tp725
Rp726
S'not_moved'
p727
tp728
a(g183
(g187
S'\x00\x00\x00\x00\x00\x00\x00\x00'
p729
tp730
Rp731
g152
tp732
a(g183
(g187
S'\x06\xfb\x03\xab\x86+\xe5?'
p733
tp734
Rp735
g154
tp736
a(g183
(g187
S'\x00\x00\x00\x00\x00\x00\x00\x00'
p737
tp738
Rp739
S'not_moved'
p740
tp741
a(g183
(g187
S' \x8a\x08\xf6R^\xe4?'
p742
tp743
Rp744
g156
tp745
a(g183
(g187
S'\x00\x00\x00\x00\x00\x00\x00\x00'
p746
tp747
Rp748
g158
tp749
a(g183
(g187
S'\x00\x00\x00\x00\x00\x00\x00\x00'
p750
tp751
Rp752
g91
tp753
a(g183
(g187
S'\x00\x00\x00\x00\x00\x00\x00\x00'
p754
tp755
Rp756
g5
tp757
a(g183
(g187
S'\x00\x00\x00\x00\x00\x00\x00\x00'
p758
tp759
Rp760
g161
tp761
a(g183
(g187
S'\x80?\xff<\xb6.\xf0?'
p762
tp763
Rp764
g163
tp765
a(g183
(g187
S's\xab;?\xb2\xa2\xf0?'
p766
tp767
Rp768
g165
tp769
a(g183
(g187
S'\xe8\xf0}\xf1K\x03\xe0?'
p770
tp771
Rp772
g5
tp773
a(g183
(g187
S'\x96\xb1\xf2!\x96-\xef?'
p774
tp775
Rp776
g168
tp777
a(g183
(g187
S'\xca\xa2e\xfa\xa2}\xef?'
p778
tp779
Rp780
g170
tp781
a(g183
(g187
S'\x00\x00\x00\x00\x00\x00\x00\x00'
p782
tp783
Rp784
g5
tp785
a(g183
(g187
S'\x80?\xff<\xb6.\xf0?'
p786
tp787
Rp788
S'correct'
p789
tp790
a(g183
(g187
S' \x8a\x08\xf6R^\xe4?'
p791
tp792
Rp793
S'correct'
p794
tp795
a(g183
(g187
S'\x00\x00\x00\x00\x00\x00\x00\x00'
p796
tp797
Rp798
g175
tp799
a(g183
(g187
S'\x1bH\xb1\xf5\x13\xc3\xeb?'
p800
tp801
Rp802
g5
tp803
a(g183
(g187
S'N\xef\xf0E\xa6\xfe\xe1?'
p804
tp805
Rp806
S'not_moved'
p807
tp808
a(g183
(g187
S'`m\xd0\xe5\\X\xe3?'
p809
tp810
Rp811
g178
tp812
a(g183
(g187
S'\x07T;\xae\xfe\xd5\xdc?'
p813
tp814
Rp815
g5
tp816
a(g183
(g187
S'Vmk\x02\xf3@\xf4?'
p817
tp818
Rp819
g5
tp820
a(g183
(g187
S'\x07T;\xae\xfe\xd5\xdc?'
p821
tp822
Rp823
g148
tp824
a(g183
(g187
S'\n\x03\xadz\xea\x93\xf1?'
p825
tp826
Rp827
g150
tp828
a(g183
(g187
S'\xd4BV\xf8\xf3\xe0\xf0?'
p829
tp830
Rp831
S'correct'
p832
tp833
a(g183
(g187
S'\x00\x00\x00\x00\x00\x00\x00\x00'
p834
tp835
Rp836
g100
tp837
asS'variation'
p838
(lp839
(g192
g3
tp840
a(g196
g5
tp841
a(g183
(g187
S'\x00\x00\x00\x00\x00\x00\x00\x00'
p842
tp843
Rp844
g5
tp845
a(g204
g8
tp846
a(g208
g10
tp847
a(g212
g5
tp848
a(g183
(g187
S'\x00\x00\x00\x00\x00\x00\x00\x00'
p849
tp850
Rp851
S'correct'
p852
tp853
a(g216
g5
tp854
a(g220
g14
tp855
a(g224
g16
tp856
a(g228
g82
tp857
a(g232
g20
tp858
a(g183
(g187
S'\x00\x00\x00\x00\x00\x00\x00\x00'
p859
tp860
Rp861
g42
tp862
a(g240
g5
tp863
a(g244
g114
tp864
a(g248
g25
tp865
a(g252
g27
tp866
a(g256
g29
tp867
a(g260
g5
tp868
a(g264
g32
tp869
a(g268
g34
tp870
a(g672
g673
tp871
a(g277
g5
tp872
a(g281
g282
tp873
a(g286
g287
tp874
a(g291
g36
tp875
a(g183
(g187
S'\x00\x00\x00\x00\x00\x00\x00\x00'
p876
tp877
Rp878
S'correct'
p879
tp880
a(g299
g5
tp881
a(g303
g38
tp882
a(g307
g40
tp883
a(g311
g5
tp884
a(g315
g316
tp885
a(g183
(g187
S'\x00\x00\x00\x00\x00\x00\x00\x00'
p886
tp887
Rp888
g321
tp889
a(g744
g156
tp890
a(g183
(g187
S' \x8a\x08\xf6R^\xe4?'
p891
tp892
Rp893
g44
tp894
a(g329
g330
tp895
a(g334
g335
tp896
a(g339
g340
tp897
a(g344
g46
tp898
a(g183
(g187
S'\x00\x00\x00\x00\x00\x00\x00\x00'
p899
tp900
Rp901
S'correct'
p902
tp903
a(g348
g48
tp904
a(g352
g73
tp905
a(g356
g357
tp906
a(g183
(g187
S'\x00\x00\x00\x00\x00\x00\x00\x00'
p907
tp908
Rp909
g5
tp910
a(g365
g366
tp911
a(g370
g53
tp912
a(g374
g55
tp913
a(g183
(g187
S'\xef9\xfa\xfeB.\xe6?'
p914
tp915
Rp916
S'correct'
p917
tp918
a(g378
g57
tp919
a(g382
g59
tp920
a(g386
g61
tp921
a(g390
g63
tp922
a(g394
g5
tp923
a(g398
g399
tp924
a(g403
g404
tp925
a(g408
g409
tp926
a(g413
g414
tp927
a(g418
g419
tp928
a(g423
g5
tp929
a(g183
(g187
S'N\xef\xf0E\xa6\xfe\xe1?'
p930
tp931
Rp932
g68
tp933
a(g431
g70
tp934
a(g435
g5
tp935
a(g183
(g187
S'\x00\x00\x00\x00\x00\x00\x00\x00'
p936
tp937
Rp938
g50
tp939
a(g443
g75
tp940
a(g447
g5
tp941
a(g637
g638
tp942
a(g451
g452
tp943
a(g456
g457
tp944
a(g461
g78
tp945
a(g465
g80
tp946
a(g469
g93
tp947
a(g473
g84
tp948
a(g477
g5
tp949
a(g183
(g187
S'\x00\x00\x00\x00\x00\x00\x00\x00'
p950
tp951
Rp952
g87
tp953
a(g485
g5
tp954
a(g489
g5
tp955
a(g493
g5
tp956
a(g497
g91
tp957
a(g578
g579
tp958
a(g501
g5
tp959
a(g505
g5
tp960
a(g509
g96
tp961
a(g513
g514
tp962
a(g183
(g187
S'\xc82t\xc3O\x89\xe5?'
p963
tp964
Rp965
g5
tp966
a(g518
g98
tp967
a(g522
g173
tp968
a(g526
g527
tp969
a(g531
g532
tp970
a(g536
g5
tp971
a(g540
g103
tp972
a(g544
g5
tp973
a(g548
g106
tp974
a(g552
g553
tp975
a(g557
g108
tp976
a(g561
g110
tp977
a(g565
g566
tp978
a(g570
g5
tp979
a(g574
g23
tp980
a(g183
(g187
S'\x00\x00\x00\x00\x00\x00\x00\x00'
p981
tp982
Rp983
S'correct'
p984
tp985
a(g583
g5
tp986
a(g587
g117
tp987
a(g591
g119
tp988
a(g595
g5
tp989
a(g599
g5
tp990
a(g603
g5
tp991
a(g607
g5
tp992
a(g611
g125
tp993
a(g615
g5
tp994
a(g183
(g187
S'\x00\x00\x00\x00\x00\x00\x00\x00'
p995
tp996
Rp997
S'not_moved'
p998
tp999
a(g619
g128
tp1000
a(g623
g624
tp1001
a(g628
g629
tp1002
a(g633
g130
tp1003
a(g295
g66
tp1004
a(g183
(g187
S'\x00\x00\x00\x00\x00\x00\x00\x00'
p1005
tp1006
Rp1007
S'correct'
p1008
tp1009
a(g642
g132
tp1010
a(g646
g647
tp1011
a(g651
g5
tp1012
a(g655
g135
tp1013
a(g659
g660
tp1014
a(g664
g137
tp1015
a(g183
(g187
S'\x00\x00\x00\x00\x00\x00\x00\x00'
p1016
tp1017
Rp1018
S'not_moved'
p1019
tp1020
a(g668
g5
tp1021
a(g272
g273
tp1022
a(g677
g678
tp1023
a(g682
g140
tp1024
a(g686
g18
tp1025
a(g690
g5
tp1026
a(g694
g143
tp1027
a(g698
g5
tp1028
a(g702
g146
tp1029
a(g706
g707
tp1030
a(g711
g712
tp1031
a(g716
g717
tp1032
a(g183
(g187
S'\x00\x00\x00\x00\x00\x00\x00\x00'
p1033
tp1034
Rp1035
S'correct'
p1036
tp1037
a(g721
g722
tp1038
a(g726
g727
tp1039
a(g731
g152
tp1040
a(g735
g154
tp1041
a(g739
g740
tp1042
a(g183
(g187
S'\x00\x00\x00\x00\x00\x00\x00\x00'
p1043
tp1044
Rp1045
g5
tp1046
a(g748
g158
tp1047
a(g752
g91
tp1048
a(g756
g5
tp1049
a(g760
g161
tp1050
a(g764
g163
tp1051
a(g768
g165
tp1052
a(g772
g5
tp1053
a(g776
g168
tp1054
a(g780
g170
tp1055
a(g784
g5
tp1056
a(g788
g789
tp1057
a(g793
g794
tp1058
a(g798
g175
tp1059
a(g183
(g187
S'\x00\x00\x00\x00\x00\x00\x00\x00'
p1060
tp1061
Rp1062
g5
tp1063
a(g806
g807
tp1064
a(g811
g178
tp1065
a(g815
g5
tp1066
a(g819
g5
tp1067
a(g823
g148
tp1068
a(g827
g150
tp1069
a(g831
g832
tp1070
a(g183
(g187
S's\xab;?\xb2\xa2\xf0?'
p1071
tp1072
Rp1073
g5
tp1074
a(g836
g100
tp1075
asS'variation e'
p1076
(lp1077
(g183
(g187
S'\x00\x00\x00\x00\x00\x00\x00\x00'
p1078
tp1079
Rp1080
g3
tp1081
a(g196
g5
tp1082
a(g844
g5
tp1083
a(g204
g8
tp1084
a(g208
g10
tp1085
a(g183
(g187
S'N\xef\xf0E\xa6\xfe\xe1?'
p1086
tp1087
Rp1088
g5
tp1089
a(g851
g852
tp1090
a(g216
g5
tp1091
a(g183
(g187
S' \x8a\x08\xf6R^\xe4?'
p1092
tp1093
Rp1094
g14
tp1095
a(g183
(g187
S'\xef9\xfa\xfeB.\xe6?'
p1096
tp1097
Rp1098
g16
tp1099
a(g183
(g187
S'!H\xa5C\x06%\xe3?'
p1100
tp1101
Rp1102
g82
tp1103
a(g232
g20
tp1104
a(g861
g42
tp1105
a(g183
(g187
S'\xef9\xfa\xfeB.\xe6?'
p1106
tp1107
Rp1108
g5
tp1109
a(g183
(g187
S'\x14F\x93N"\x0b\xf0?'
p1110
tp1111
Rp1112
g114
tp1113
a(g248
g25
tp1114
a(g252
g27
tp1115
a(g183
(g187
S'\x00\x00\x00\x00\x00\x00\x00\x00'
p1116
tp1117
Rp1118
g29
tp1119
a(g260
g5
tp1120
a(g183
(g187
S'\x96\xb1\xf2!\x96-\xef?'
p1121
tp1122
Rp1123
g32
tp1124
a(g268
g34
tp1125
a(g277
g5
tp1126
a(g281
g282
tp1127
a(g286
g287
tp1128
a(g183
(g187
S' \x8a\x08\xf6R^\xe4?'
p1129
tp1130
Rp1131
g36
tp1132
a(g878
g879
tp1133
a(g299
g5
tp1134
a(g303
g38
tp1135
a(g183
(g187
S'N\xef\xf0E\xa6\xfe\xe1?'
p1136
tp1137
Rp1138
g40
tp1139
a(g183
(g187
S'\x00\x00\x00\x00\x00\x00\x00\x00'
p1140
tp1141
Rp1142
g5
tp1143
a(g183
(g187
S'\x07T;\xae\xfe\xd5\xdc?'
p1144
tp1145
Rp1146
g316
tp1147
a(g888
g321
tp1148
a(g183
(g187
S'\xef9\xfa\xfeB.\xe6?'
p1149
tp1150
Rp1151
g156
tp1152
a(g893
g44
tp1153
a(g183
(g187
S'\x00\x00\x00\x00\x00\x00\x00\x00'
p1154
tp1155
Rp1156
g46
tp1157
a(g901
g902
tp1158
a(g348
g48
tp1159
a(g352
g73
tp1160
a(g909
g5
tp1161
a(g370
g53
tp1162
a(g183
(g187
S'\x00\x00\x00\x00\x00\x00\x00\x00'
p1163
tp1164
Rp1165
g55
tp1166
a(g183
(g187
S'\xe8\xf0}\xf1K\x03\xe0?'
p1167
tp1168
Rp1169
g57
tp1170
a(g382
g59
tp1171
a(g386
g61
tp1172
a(g183
(g187
S'\x00\x00\x00\x00\x00\x00\x00\x00'
p1173
tp1174
Rp1175
g63
tp1176
a(g394
g5
tp1177
a(g183
(g187
S'\x00\x00\x00\x00\x00\x00\x00\x00'
p1178
tp1179
Rp1180
g5
tp1181
a(g932
g68
tp1182
a(g431
g70
tp1183
a(g183
(g187
S'\xd4BV\xf8\xf3\xe0\xf0?'
p1184
tp1185
Rp1186
g5
tp1187
a(g938
g50
tp1188
a(g183
(g187
S'\x00\x00\x00\x00\x00\x00\x00\x00'
p1189
tp1190
Rp1191
g75
tp1192
a(g183
(g187
S'\x00\x00\x00\x00\x00\x00\x00\x00'
p1193
tp1194
Rp1195
g5
tp1196
a(g183
(g187
S'\x00\x00\x00\x00\x00\x00\x00\x00'
p1197
tp1198
Rp1199
g452
tp1200
a(g183
(g187
S'\x00\x00\x00\x00\x00\x00\x00\x00'
p1201
tp1202
Rp1203
g78
tp1204
a(g465
g80
tp1205
a(g469
g93
tp1206
a(g183
(g187
S'Z\xbc.\xa3\xa2\x87\xf0?'
p1207
tp1208
Rp1209
g84
tp1210
a(g183
(g187
S'\x06\xfb\x03\xab\x86+\xe5?'
p1211
tp1212
Rp1213
g5
tp1214
a(g952
g87
tp1215
a(g485
g5
tp1216
a(g489
g5
tp1217
a(g183
(g187
S'z\xb2\xa6\x83X?\xda?'
p1218
tp1219
Rp1220
g91
tp1221
a(g183
(g187
S'N\xef\xf0E\xa6\xfe\xe1?'
p1222
tp1223
Rp1224
g5
tp1225
a(g183
(g187
S'\xef9\xfa\xfeB.\xe6?'
p1226
tp1227
Rp1228
g5
tp1229
a(g183
(g187
S'\t\xd4\xf3J3\x8c\xe3?'
p1230
tp1231
Rp1232
g96
tp1233
a(g965
g5
tp1234
a(g518
g98
tp1235
a(g183
(g187
S'\xe8\xf0}\xf1K\x03\xe0?'
p1236
tp1237
Rp1238
g100
tp1239
a(g536
g5
tp1240
a(g540
g103
tp1241
a(g544
g5
tp1242
a(g183
(g187
S' \x8a\x08\xf6R^\xe4?'
p1243
tp1244
Rp1245
g106
tp1246
a(g916
g917
tp1247
a(g557
g108
tp1248
a(g561
g110
tp1249
a(g183
(g187
S'>8e\xd2Xy\xf5?'
p1250
tp1251
Rp1252
g5
tp1253
a(g183
(g187
S' \x8a\x08\xf6R^\xe4?'
p1254
tp1255
Rp1256
g23
tp1257
a(g983
g984
tp1258
a(g183
(g187
S'\x00\x00\x00\x00\x00\x00\x00\x00'
p1259
tp1260
Rp1261
g5
tp1262
a(g587
g117
tp1263
a(g591
g119
tp1264
a(g183
(g187
S'\xa2\xcf#\xf0\x17\x95\xee?'
p1265
tp1266
Rp1267
g5
tp1268
a(g599
g5
tp1269
a(g183
(g187
S'|\xd1\x93\xb4\x1f\xc0\xe2?'
p1270
tp1271
Rp1272
g5
tp1273
a(g607
g5
tp1274
a(g183
(g187
S'\x00\x00\x00\x00\x00\x00\x00\x00'
p1275
tp1276
Rp1277
g125
tp1278
a(g615
g5
tp1279
a(g997
g998
tp1280
a(g619
g128
tp1281
a(g623
g624
tp1282
a(g183
(g187
S'\xa4v\xc5\x89D\xf7\xfb?'
p1283
tp1284
Rp1285
g130
tp1286
a(g183
(g187
S' \x8a\x08\xf6R^\xe4?'
p1287
tp1288
Rp1289
g66
tp1290
a(g1007
g1008
tp1291
a(g183
(g187
S' \x8a\x08\xf6R^\xe4?'
p1292
tp1293
Rp1294
g132
tp1295
a(g651
g5
tp1296
a(g655
g135
tp1297
a(g664
g137
tp1298
a(g1018
g1019
tp1299
a(g183
(g187
S'\xe7\xf8:\xac\xf8\xbb\xec?'
p1300
tp1301
Rp1302
g5
tp1303
a(g183
(g187
S'\x00\x00\x00\x00\x00\x00\x00\x00'
p1304
tp1305
Rp1306
g678
tp1307
a(g682
g140
tp1308
a(g686
g18
tp1309
a(g183
(g187
S'!H\xa5C\x06%\xe3?'
p1310
tp1311
Rp1312
g5
tp1313
a(g183
(g187
S'\x00\x00\x00\x00\x00\x00\x00\x00'
p1314
tp1315
Rp1316
g143
tp1317
a(g183
(g187
S's\xab;?\xb2\xa2\xf0?'
p1318
tp1319
Rp1320
g5
tp1321
a(g183
(g187
S'\x00\x00\x00\x00\x00\x00\x00\x00'
p1322
tp1323
Rp1324
g146
tp1325
a(g183
(g187
S'\x00\x00\x00\x00\x00\x00\x00\x00'
p1326
tp1327
Rp1328
g707
tp1329
a(g823
g148
tp1330
a(g183
(g187
S'\x00\x00\x00\x00\x00\x00\x00\x00'
p1331
tp1332
Rp1333
g717
tp1334
a(g1035
g1036
tp1335
a(g731
g152
tp1336
a(g183
(g187
S'\x8a\xf0\x0b\x9f-@\xeb?'
p1337
tp1338
Rp1339
g154
tp1340
a(g1045
g5
tp1341
a(g748
g158
tp1342
a(g183
(g187
S'(}\x0b\xc3\x9dh\xee?'
p1343
tp1344
Rp1345
g5
tp1346
a(g760
g161
tp1347
a(g764
g163
tp1348
a(g768
g165
tp1349
a(g183
(g187
S'\x07T;\xae\xfe\xd5\xdc?'
p1350
tp1351
Rp1352
g5
tp1353
a(g776
g168
tp1354
a(g780
g170
tp1355
a(g183
(g187
S'`M\x96B\xacP\xf1?'
p1356
tp1357
Rp1358
g5
tp1359
a(g522
g173
tp1360
a(g183
(g187
S'\xef9\xfa\xfeB.\xe6?'
p1361
tp1362
Rp1363
g175
tp1364
a(g1062
g5
tp1365
a(g811
g178
tp1366
a(g183
(g187
S'\x00\x00\x00\x00\x00\x00\x00\x00'
p1367
tp1368
Rp1369
g5
tp1370
a(g819
g5
tp1371
a(g183
(g187
S'}\x9e\xd3\xbc\x16\xe1\xf3?'
p1372
tp1373
Rp1374
g150
tp1375
a(g1073
g5
tp1376
asS'alignment p'
p1377
(lp1378
(F1.0
g3
tp1379
a(F0.75
g5
tp1380
a(F0.0
g103
tp1381
a(F1.0
g5
tp1382
a(F0.0
g5
tp1383
a(F1.0
g10
tp1384
a(F0.5
g5
tp1385
a(F0.6
g125
tp1386
a(F0.5
g140
tp1387
a(F0.0
g5
tp1388
a(F1.0
g55
tp1389
a(F0.0
g5
tp1390
a(F0.5
g5
tp1391
a(F0.0
g5
tp1392
a(F0.0
g108
tp1393
a(F0.0
g110
tp1394
a(F1.0
g57
tp1395
a(F1.0
g143
tp1396
a(F1.0
g46
tp1397
a(F0.5
g59
tp1398
a(F0.5
g82
tp1399
a(F1.0
g20
tp1400
a(F1.0
g146
tp1401
a(F0.5
g154
tp1402
a(F1.0
g148
tp1403
a(F0.0
g150
tp1404
a(F1.0
g5
tp1405
a(F0.0
g117
tp1406
a(F0.0
g316
tp1407
a(F0.0
g42
tp1408
a(F0.6666666666666666
g5
tp1409
a(F0.0
g25
tp1410
a(F1.0
g5
tp1411
a(F0.0
g5
tp1412
a(F1.0
g5
tp1413
a(F0.0
g68
tp1414
a(F0.0
g32
tp1415
a(F0.0
g70
tp1416
a(F1.0
g5
tp1417
a(F1.0
g5
tp1418
a(F1.0
g5
tp1419
a(F0.0
g73
tp1420
a(F1.0
g75
tp1421
a(F0.0
g5
tp1422
a(F0.0
g282
tp1423
a(F1.0
g161
tp1424
a(F0.0
g287
tp1425
a(F0.0
g165
tp1426
a(F0.0
g168
tp1427
a(F0.0
g170
tp1428
a(F1.0
g5
tp1429
a(F1.0
g80
tp1430
a(F1.0
g128
tp1431
a(F0.0
g5
tp1432
a(F0.0
g93
tp1433
a(F0.0
g173
tp1434
a(F1.0
g38
tp1435
a(F0.0
g624
tp1436
a(F0.0
g84
tp1437
a(F0.5
g40
tp1438
a(F0.0
g130
tp1439
a(F1.0
g5
tp1440
a(F1.0
g5
tp1441
a(F0.3333333333333333
g178
tp1442
a(F1.0
g5
tp1443
a(F0.0
g5
tp1444
a(F1.0
g707
tp1445
a(F0.5
g5
tp1446
a(F1.0
g91
tp1447
a(F0.0
g106
tp1448
a(F0.0
g44
tp1449
a(F0.0
g5
tp1450
a(F0.5
g96
tp1451
a(F0.0
g135
tp1452
a(F1.0
g34
tp1453
a(F1.0
g137
tp1454
a(F0.0
g48
tp1455
a(F0.0
g100
tp1456
asS'alignment'
p1457
(lp1458
(F1.0
g3
tp1459
a(F0.0
g5
tp1460
a(F1.0
g5
tp1461
a(F1.0
g8
tp1462
a(F1.0
g10
tp1463
a(F1.0
g5
tp1464
a(F0.0
g5
tp1465
a(F0.0
g14
tp1466
a(F0.0
g16
tp1467
a(F0.0
g18
tp1468
a(F1.0
g20
tp1469
a(F0.0
g42
tp1470
a(F0.0
g5
tp1471
a(F0.0
g23
tp1472
a(F0.0
g25
tp1473
a(F1.0
g27
tp1474
a(F1.0
g29
tp1475
a(F1.0
g5
tp1476
a(F0.0
g32
tp1477
a(F0.8
g34
tp1478
a(F0.0
g5
tp1479
a(F0.0
g282
tp1480
a(F0.0
g287
tp1481
a(F0.0
g36
tp1482
a(F1.0
g66
tp1483
a(F0.0
g5
tp1484
a(F1.0
g38
tp1485
a(F1.0
g40
tp1486
a(F0.0
g316
tp1487
a(F0.0
g44
tp1488
a(F1.0
g46
tp1489
a(F0.0
g48
tp1490
a(F1.0
g73
tp1491
a(F0.125
g5
tp1492
a(F1.0
g53
tp1493
a(F1.0
g55
tp1494
a(F0.6666666666666666
g57
tp1495
a(F0.25
g59
tp1496
a(F1.0
g61
tp1497
a(F1.0
g63
tp1498
a(F1.0
g5
tp1499
a(F1.0
g5
tp1500
a(F0.5
g68
tp1501
a(F0.0
g70
tp1502
a(F0.0
g5
tp1503
a(F1.0
g50
tp1504
a(F1.0
g75
tp1505
a(F1.0
g5
tp1506
a(F0.0
g78
tp1507
a(F1.0
g80
tp1508
a(F0.6666666666666666
g82
tp1509
a(F0.0
g84
tp1510
a(F1.0
g5
tp1511
a(F0.0
g87
tp1512
a(F0.5
g5
tp1513
a(F0.0
g5
tp1514
a(F0.8
g91
tp1515
a(F0.2857142857142857
g93
tp1516
a(F0.0
g5
tp1517
a(F0.4
g96
tp1518
a(F1.0
g98
tp1519
a(F0.0
g100
tp1520
a(F0.7777777777777778
g5
tp1521
a(F0.0
g103
tp1522
a(F1.0
g5
tp1523
a(F0.0
g106
tp1524
a(F0.0
g108
tp1525
a(F0.0
g110
tp1526
a(F0.3333333333333333
g5
tp1527
a(F1.0
g5
tp1528
a(F0.0
g114
tp1529
a(F1.0
g5
tp1530
a(F0.5
g117
tp1531
a(F0.0
g119
tp1532
a(F0.3333333333333333
g5
tp1533
a(F1.0
g5
tp1534
a(F0.6666666666666666
g5
tp1535
a(F0.5
g5
tp1536
a(F0.6363636363636364
g125
tp1537
a(F0.0
g5
tp1538
a(F1.0
g128
tp1539
a(F0.0
g624
tp1540
a(F0.0
g130
tp1541
a(F0.0
g132
tp1542
a(F1.0
g5
tp1543
a(F0.0
g135
tp1544
a(F0.6666666666666666
g137
tp1545
a(F0.5
g5
tp1546
a(F1.0
g140
tp1547
a(F0.3333333333333333
g5
tp1548
a(F1.0
g143
tp1549
a(F0.0
g5
tp1550
a(F1.0
g146
tp1551
a(F1.0
g707
tp1552
a(F1.0
g148
tp1553
a(F0.3333333333333333
g150
tp1554
a(F1.0
g152
tp1555
a(F0.75
g154
tp1556
a(F0.0
g156
tp1557
a(F1.0
g158
tp1558
a(F0.0
g5
tp1559
a(F1.0
g161
tp1560
a(F0.0
g163
tp1561
a(F0.0
g165
tp1562
a(F1.0
g5
tp1563
a(F0.0
g168
tp1564
a(F0.0
g170
tp1565
a(F0.0
g5
tp1566
a(F0.0
g173
tp1567
a(F0.0
g175
tp1568
a(F1.0
g5
tp1569
a(F0.46153846153846156
g178
tp1570
a(F0.25
g5
tp1571
as.