(lp0
ccollections
defaultdict
p1
(c__builtin__
dict
p2
tp3
Rp4
S'FTT_2006-06-22pair1_refexps.p(2820, 3210)'
p5
(S'correct'
p6
S'confident'
p7
I41
((lp8
cnumpy.core.multiarray
scalar
p9
(cnumpy
dtype
p10
(S'f8'
p11
I0
I1
tp12
Rp13
(I3
S'<'
p14
NNNI-1
I-1
I0
tp15
bS'\xf1{\xba\xb0\xf9\xbe\xb7?'
p16
tp17
Rp18
ag9
(g13
S'\x00\x00\x00\x00\x00\x00\x00\x00'
p19
tp20
Rp21
ag9
(g13
S'\x00\x00\x00\x00\x00\x00\x00\x00'
p22
tp23
Rp24
ag9
(g13
S'.\xdf\xf2-\xdf\xf2\xad\xbf'
p25
tp26
Rp27
ag9
(g13
S'\x96\x91\x1f\x0b\xe8"\x85\xbf'
p28
tp29
Rp30
ag9
(g13
S'\x92$I\x92$I\xc2?'
p31
tp32
Rp33
a(lp34
g9
(g13
S'_\x06\xc9\xca7f\x90\xbf'
p35
tp36
Rp37
ag9
(g13
S'\x00\x00\x00\x00\x00\x00\x00\x00'
p38
tp39
Rp40
ag9
(g13
S'\x00\x00\x00\x00\x00\x00\x00\x00'
p41
tp42
Rp43
ag9
(g13
S'.\xdf\xf2-\xdf\xf2\xad\xbf'
p44
tp45
Rp46
ag9
(g13
S'\xcc\xa9\x9c\xca\xa9\x9c\xb2\xbf'
p47
tp48
Rp49
ag9
(g13
S'\x92$I\x92$I\xc2?'
p50
tp51
Rp52
a(lp53
g9
(g13
S'_\x06\xc9\xca7f\x90\xbf'
p54
tp55
Rp56
ag9
(g13
S'\x00\x00\x00\x00\x00\x00\x00\x00'
p57
tp58
Rp59
ag9
(g13
S'\xcc\xa9\x9c\xca\xa9\x9c\xb2\xbf'
p60
tp61
Rp62
ag9
(g13
S'\x92$I\x92$I\xc2?'
p63
tp64
Rp65
atp66
((lp67
F0.5294117647058824
aF0.0
aF1.0
aF0.14285714285714285
aF0.5555555555555556
aF0.0
a(lp68
F0.6428571428571429
aF0.0
aF1.0
aF0.14285714285714285
aF0.42857142857142855
a(lp69
F0.0
aF1.0
aF0.0
atp70
((lp71
F0.8
aF1.0
aF1.0
aF0.5
aF0.9444444444444444
aF1.0
a(lp72
F0.8571428571428571
aF1.0
aF1.0
aF0.5
aF0.9230769230769231
a(lp73
F0.6666666666666666
aF1.0
aF1.0
atp74
tp75
sS'FTT_2006-03-28pair2_refexps.p(2905, 2931)'
p76
(S'not_moved'
p77
S'on_hold'
p78
I3
((lp79
g9
(g13
S'\x96eY\x96eY\xd6?'
p80
tp81
Rp82
a(lp83
g9
(g13
S'r\x1c\xc7q\x1c\xc7\xe1?'
p84
tp85
Rp86
a(lp87
g9
(g13
S'r\x1c\xc7q\x1c\xc7\xe1?'
p88
tp89
Rp90
atp91
((lp92
F0.5
a(lp93
F0.5
a(lp94
tp95
((lp96
F1.0
a(lp97
F1.0
a(lp98
F1.0
atp99
tp100
sS'FTT_2006-03-27Pair1_refexps.p(3427, 3443)'
p101
(S'correct'
p102
S'unconfident'
p103
I1
((lp104
(lp105
(lp106
tp107
((lp108
(lp109
(lp110
tp111
((lp112
(lp113
(lp114
tp115
tp116
sS'FTT_2006-03-28pair2_refexps.p(527, 892)'
p117
(S'not_moved'
p118
S'on_hold'
p119
I18
((lp120
g9
(g13
S'\x9f\xf4I\x9f\xf4I\xcf\xbf'
p121
tp122
Rp123
ag9
(g13
S'\x9f\xf4I\x9f\xf4I\xcf\xbf'
p124
tp125
Rp126
ag9
(g13
S'\x9f\xf4I\x9f\xf4I\xcf\xbf'
p127
tp128
Rp129
ag9
(g13
S'\x138\x81\x138\x81\xa3?'
p130
tp131
Rp132
ag9
(g13
S'333333\xe3\xbf'
p133
tp134
Rp135
ag9
(g13
S'333333\xe3\xbf'
p136
tp137
Rp138
a(lp139
g9
(g13
S'\x1c\xc7q\x1c\xc7q\xbc?'
p140
tp141
Rp142
ag9
(g13
S'\x1c\xc7q\x1c\xc7q\xbc?'
p143
tp144
Rp145
ag9
(g13
S'\x1c\xc7q\x1c\xc7q\xbc?'
p146
tp147
Rp148
ag9
(g13
S'\x138\x81\x138\x81\xa3?'
p149
tp150
Rp151
ag9
(g13
S'333333\xe3\xbf'
p152
tp153
Rp154
ag9
(g13
S'333333\xe3\xbf'
p155
tp156
Rp157
a(lp158
g9
(g13
S'\x1c\xc7q\x1c\xc7q\xbc?'
p159
tp160
Rp161
ag9
(g13
S'\x1c\xc7q\x1c\xc7q\xbc?'
p162
tp163
Rp164
ag9
(g13
S'\x1c\xc7q\x1c\xc7q\xbc?'
p165
tp166
Rp167
atp168
((lp169
F0.2857142857142857
aF0.2857142857142857
aF0.2857142857142857
aF0.6
aF0.5
aF0.5
a(lp170
F0.5
aF0.5
aF0.5
aF0.6
aF0.5
aF0.5
a(lp171
F0.0
aF0.0
aF0.0
atp172
((lp173
F0.5
aF0.5
aF0.5
aF1.0
aF1.0
aF1.0
a(lp174
F1.0
aF1.0
aF1.0
aF1.0
aF1.0
aF1.0
a(lp175
F0.0
aF0.0
aF0.0
atp176
tp177
sS'FTT_2006-03-28pair2_refexps.p(2567, 2617)'
p178
(S'not_moved'
p179
S'reconfirm'
p180
I7
((lp181
g9
(g13
S'\xb3,\xcb\xb2,\xcb\xc2?'
p182
tp183
Rp184
ag9
(g13
S'\x18\x86a\x18\x86a\xb8?'
p185
tp186
Rp187
a(lp188
g9
(g13
S'\x00\x00\x00\x00\x00\x00\xd0?'
p189
tp190
Rp191
ag9
(g13
S'\x18\x86a\x18\x86a\xb8?'
p192
tp193
Rp194
a(lp195
g9
(g13
S'\x00\x00\x00\x00\x00\x00\xd0?'
p196
tp197
Rp198
atp199
((lp200
F0.5
aF0.5
a(lp201
F0.5
aF0.5
a(lp202
tp203
((lp204
F0.6666666666666666
aF0.5
a(lp205
F0.5
aF0.5
a(lp206
F1.0
atp207
tp208
sS'FTT_2006-06-22pair1_refexps.p(1, 167)'
p209
(S'incorrect'
p210
S'confident'
p211
I9
((lp212
g9
(g13
S'\x9a\x99\x99\x99\x99\x99\xc9\xbf'
p213
tp214
Rp215
ag9
(g13
S'\x9a\x99\x99\x99\x99\x99\xc9\xbf'
p216
tp217
Rp218
ag9
(g13
S'\x9a\x99\x99\x99\x99\x99\xc9\xbf'
p219
tp220
Rp221
ag9
(g13
S'\xc0M1j\xf8\xdb\xd4?'
p222
tp223
Rp224
a(lp225
g9
(g13
S'\x9a\x99\x99\x99\x99\x99\xc9\xbf'
p226
tp227
Rp228
ag9
(g13
S'\x9a\x99\x99\x99\x99\x99\xc9\xbf'
p229
tp230
Rp231
ag9
(g13
S'\x9a\x99\x99\x99\x99\x99\xc9\xbf'
p232
tp233
Rp234
ag9
(g13
S'&\xb4\x97\xd0^B\xeb?'
p235
tp236
Rp237
a(lp238
g9
(g13
S'&\xb4\x97\xd0^B\xeb?'
p239
tp240
Rp241
atp242
((lp243
F0.5555555555555556
aF0.5555555555555556
aF0.5555555555555556
aF0.5555555555555556
a(lp244
F0.5555555555555556
aF0.5555555555555556
aF0.5555555555555556
aF0.5555555555555556
a(lp245
tp246
((lp247
F1.0
aF1.0
aF1.0
aF0.5
a(lp248
F1.0
aF1.0
aF1.0
aF1.0
a(lp249
F0.0
atp250
tp251
sS'FTT_2006-03-27Pair1_refexps.p(2082, 2354)'
p252
(S'correct'
p253
S'confident'
p254
I30
((lp255
g9
(g13
S'\x00\x00\x00\x00\x00\x00\x00\x00'
p256
tp257
Rp258
ag9
(g13
S'\x1c\xb9\x91\x1b\xb9\x91\xcb\xbf'
p259
tp260
Rp261
ag9
(g13
S'\xbc\xbb\xbb\xbb\xbb\xbb\xcb\xbf'
p262
tp263
Rp264
ag9
(g13
S'UUUUUU\xd5?'
p265
tp266
Rp267
ag9
(g13
S'b\x80\x8cCN\xb0\xb7?'
p268
tp269
Rp270
a(lp271
g9
(g13
S'\x00\x00\x00\x00\x00\x00\x00\x00'
p272
tp273
Rp274
ag9
(g13
S'\x1c\xb9\x91\x1b\xb9\x91\xcb\xbf'
p275
tp276
Rp277
ag9
(g13
S'\xbc\xbb\xbb\xbb\xbb\xbb\xcb\xbf'
p278
tp279
Rp280
ag9
(g13
S'UUUUUU\xd5?'
p281
tp282
Rp283
ag9
(g13
S'N\r\x9d$\xcc\xfe\xb1?'
p284
tp285
Rp286
a(lp287
g9
(g13
S'\xbc\xbb\xbb\xbb\xbb\xbb\xcb\xbf'
p288
tp289
Rp290
ag9
(g13
S'UUUUUU\xd5?'
p291
tp292
Rp293
ag9
(g13
S'N\r\x9d$\xcc\xfe\xb1?'
p294
tp295
Rp296
atp297
((lp298
F0.5
aF0.0
aF0.2
aF0.0
aF0.2857142857142857
a(lp299
F0.5
aF0.0
aF0.2
aF0.0
aF0.5
a(lp300
F0.0
atp301
((lp302
F0.0
aF1.0
aF0.75
aF1.0
aF0.9230769230769231
a(lp303
F0.0
aF1.0
aF0.75
aF1.0
aF1.0
a(lp304
F0.6666666666666666
atp305
tp306
sS'FTT_2006-03-27Pair1_refexps.p(1117, 1518)'
p307
(S'not_moved'
p308
S'on_hold'
p309
I115
((lp310
g9
(g13
S'S\xcc\x8e\xd2P\xcf\xba?'
p311
tp312
Rp313
ag9
(g13
S'\x00l9L\xe0\x94\xbe?'
p314
tp315
Rp316
ag9
(g13
S'\x00\x00\x00\x00\x00\x00\xe0?'
p317
tp318
Rp319
ag9
(g13
S'S\xcc\x8e\xd2P\xcf\xba?'
p320
tp321
Rp322
ag9
(g13
S'S\xcc\x8e\xd2P\xcf\xba?'
p323
tp324
Rp325
ag9
(g13
S'S\xcc\x8e\xd2P\xcf\xba?'
p326
tp327
Rp328
ag9
(g13
S'\x9a\x99\x99\x99\x99\x99\xc9\xbf'
p329
tp330
Rp331
a(lp332
g9
(g13
S"\xe8\xbfy'V\xfe\xbf?"
p333
tp334
Rp335
ag9
(g13
S'\x00l9L\xe0\x94\xbe?'
p336
tp337
Rp338
ag9
(g13
S'\x00\x00\x00\x00\x00\x00\xe0?'
p339
tp340
Rp341
ag9
(g13
S"\xe8\xbfy'V\xfe\xbf?"
p342
tp343
Rp344
ag9
(g13
S"\xe8\xbfy'V\xfe\xbf?"
p345
tp346
Rp347
ag9
(g13
S"\xe8\xbfy'V\xfe\xbf?"
p348
tp349
Rp350
a(lp351
g9
(g13
S"\xe8\xbfy'V\xfe\xbf?"
p352
tp353
Rp354
ag9
(g13
S"\xe8\xbfy'V\xfe\xbf?"
p355
tp356
Rp357
ag9
(g13
S"\xe8\xbfy'V\xfe\xbf?"
p358
tp359
Rp360
ag9
(g13
S"\xe8\xbfy'V\xfe\xbf?"
p361
tp362
Rp363
ag9
(g13
S'\x9a\x99\x99\x99\x99\x99\xc9\xbf'
p364
tp365
Rp366
atp367
((lp368
F0.5384615384615384
aF0.4
aF0.5384615384615384
aF0.5384615384615384
aF0.5384615384615384
aF0.6666666666666666
a(lp369
F0.4
aF0.4
aF0.4
aF0.4
aF0.4
a(lp370
F1.0
aF1.0
aF1.0
aF1.0
aF0.6666666666666666
atp371
((lp372
F0.9047619047619048
aF0.9
aF0.0
aF0.9047619047619048
aF0.9047619047619048
aF0.9047619047619048
aF1.0
a(lp373
F0.9
aF0.9
aF0.0
aF0.9
aF0.9
aF0.9
a(lp374
F1.0
aF1.0
aF1.0
aF1.0
aF1.0
atp375
tp376
sS'FTT_2006-03-28pair2_refexps.p(1, 132)'
p377
(S'incorrect'
p378
S'unconfident'
p379
I33
((lp380
g9
(g13
S'a\xd7\x87\x00~\xab\xd2?'
p381
tp382
Rp383
ag9
(g13
S'a\xd7\x87\x00~\xab\xd2?'
p384
tp385
Rp386
ag9
(g13
S'/\xa68U\xcb\xf0\xcd?'
p387
tp388
Rp389
ag9
(g13
S'a\xd7\x87\x00~\xab\xd2?'
p390
tp391
Rp392
a(lp393
g9
(g13
S'a\xd7\x87\x00~\xab\xd2?'
p394
tp395
Rp396
ag9
(g13
S'a\xd7\x87\x00~\xab\xd2?'
p397
tp398
Rp399
ag9
(g13
S'\xdb\x95\xa8]\x89\xda\xc5\xbf'
p400
tp401
Rp402
ag9
(g13
S'a\xd7\x87\x00~\xab\xd2?'
p403
tp404
Rp405
a(lp406
g9
(g13
S'\xdb\x95\xa8]\x89\xda\xc5\xbf'
p407
tp408
Rp409
atp410
((lp411
F0.0
aF0.0
aF0.0
aF0.0
a(lp412
F0.0
aF0.0
aF0.0
aF0.0
a(lp413
F0.0
atp414
((lp415
F0.7142857142857143
aF0.7142857142857143
aF0.625
aF0.7142857142857143
a(lp416
F0.7142857142857143
aF0.7142857142857143
aF0.7142857142857143
aF0.7142857142857143
a(lp417
F0.0
atp418
tp419
sS'FTT_2006-03-28pair2_refexps.p(940, 1355)'
p420
(S'incorrect'
p421
S'confident'
p422
I44
((lp423
g9
(g13
S'X|\xc5W|\xc5\xd7\xbf'
p424
tp425
Rp426
ag9
(g13
S'\xea5I+\x8b\xe7\xca?'
p427
tp428
Rp429
ag9
(g13
S'\x00\x00\x00\x00\x00\x00\x00\x00'
p430
tp431
Rp432
ag9
(g13
S'\xd2\xd9pF#\xbd\xbf?'
p433
tp434
Rp435
ag9
(g13
S'[Y\x86\xffO\x9d\xc8\xbf'
p436
tp437
Rp438
ag9
(g13
S'\x9e\x12\xe4)A\x9e\xc2\xbf'
p439
tp440
Rp441
a(lp442
g9
(g13
S'X|\xc5W|\xc5\xd7\xbf'
p443
tp444
Rp445
ag9
(g13
S'\xd4\xd4\xb7\xa7\xc7 \xd0?'
p446
tp447
Rp448
ag9
(g13
S'\x00\x00\x00\x00\x00\x00\x00\x00'
p449
tp450
Rp451
ag9
(g13
S'N\xb3\x1b\x12L\xa7\xbb?'
p452
tp453
Rp454
ag9
(g13
S'[Y\x86\xffO\x9d\xc8\xbf'
p455
tp456
Rp457
ag9
(g13
S'\x9e\x12\xe4)A\x9e\xc2\xbf'
p458
tp459
Rp460
a(lp461
g9
(g13
S'\xd4\xd4\xb7\xa7\xc7 \xd0?'
p462
tp463
Rp464
ag9
(g13
S'\x00\x00\x00\x00\x00\x00\x00\x00'
p465
tp466
Rp467
ag9
(g13
S'N\xb3\x1b\x12L\xa7\xbb?'
p468
tp469
Rp470
ag9
(g13
S'\x9e\x12\xe4)A\x9e\xc2\xbf'
p471
tp472
Rp473
atp474
((lp475
F0.18181818181818182
aF0.2777777777777778
aF0.3333333333333333
aF0.55
aF0.30434782608695654
aF0.0
a(lp476
F0.18181818181818182
aF0.3125
aF0.0
aF0.4375
aF0.30434782608695654
a(lp477
F0.0
aF0.5
aF1.0
aF0.0
atp478
((lp479
F1.0
aF0.8888888888888888
aF1.0
aF0.8
aF1.0
aF0.5
a(lp480
F1.0
aF0.8666666666666667
aF1.0
aF0.8571428571428571
aF1.0
a(lp481
F1.0
aF1.0
aF0.6666666666666666
aF0.5
atp482
tp483
sS'FTT_2006-03-28pair2_refexps.p(2618, 2680)'
p484
(S'not_moved'
p485
S'on_hold'
p486
I5
((lp487
g9
(g13
S'\x00\x00\x00\x00\x00\x00\x00\x00'
p488
tp489
Rp490
ag9
(g13
S'\x00\x00\x00\x00\x00\x00\x00\x00'
p491
tp492
Rp493
a(lp494
g9
(g13
S'\x00\x00\x00\x00\x00\x00\x00\x00'
p495
tp496
Rp497
ag9
(g13
S'\x00\x00\x00\x00\x00\x00\x00\x00'
p498
tp499
Rp500
a(lp501
g9
(g13
S'\x00\x00\x00\x00\x00\x00\x00\x00'
p502
tp503
Rp504
atp505
((lp506
F0.0
aF0.25
a(lp507
F0.0
aF0.0
a(lp508
F0.5
atp509
((lp510
F1.0
aF1.0
a(lp511
F1.0
aF1.0
a(lp512
F1.0
atp513
tp514
sS'FTT_2006-06-22pair1_refexps.p(505, 549)'
p515
(S'correct'
p516
S'confident'
p517
I8
((lp518
g9
(g13
S'\x9a\x99\x99\x99\x99\x99\xc9\xbf'
p519
tp520
Rp521
ag9
(g13
S'\xaa\xaa\xaa\xaa\xaa\xaa\xda?'
p522
tp523
Rp524
a(lp525
g9
(g13
S'\x9a\x99\x99\x99\x99\x99\xc9\xbf'
p526
tp527
Rp528
ag9
(g13
S'UUUUUU\xd5?'
p529
tp530
Rp531
a(lp532
g9
(g13
S'UUUUUU\xd5?'
p533
tp534
Rp535
atp536
((lp537
F0.0
a(lp538
F0.0
a(lp539
tp540
((lp541
F1.0
aF1.0
a(lp542
F1.0
aF1.0
a(lp543
F1.0
atp544
tp545
sS'FTT_2006-03-27Pair1_refexps.p(760, 945)'
p546
(S'correct'
p547
S'confident'
p548
I31
((lp549
g9
(g13
S'\x1d\xc8\x81\x1c\xc8\x81\xbc?'
p550
tp551
Rp552
ag9
(g13
S"'\x04+\xc3\xa7\x9a\xc1?"
p553
tp554
Rp555
ag9
(g13
S'\x1d\xc8\x81\x1c\xc8\x81\xbc?'
p556
tp557
Rp558
ag9
(g13
S'\x1d\xc8\x81\x1c\xc8\x81\xbc?'
p559
tp560
Rp561
ag9
(g13
S'\x1d\xc8\x81\x1c\xc8\x81\xbc?'
p562
tp563
Rp564
a(lp565
g9
(g13
S'\x1d\xc8\x81\x1c\xc8\x81\xbc?'
p566
tp567
Rp568
ag9
(g13
S'\xe7\xf4\xd9\x0f\xa4{\xd4?'
p569
tp570
Rp571
ag9
(g13
S'\x1d\xc8\x81\x1c\xc8\x81\xbc?'
p572
tp573
Rp574
ag9
(g13
S'\x1d\xc8\x81\x1c\xc8\x81\xbc?'
p575
tp576
Rp577
ag9
(g13
S'\x1d\xc8\x81\x1c\xc8\x81\xbc?'
p578
tp579
Rp580
a(lp581
g9
(g13
S'\xe7\xf4\xd9\x0f\xa4{\xd4?'
p582
tp583
Rp584
atp585
((lp586
F1.0
aF0.4
aF1.0
aF1.0
aF1.0
a(lp587
F1.0
aF1.0
aF1.0
aF1.0
aF1.0
a(lp588
F0.25
atp589
((lp590
F0.75
aF0.7142857142857143
aF0.75
aF0.75
aF0.75
a(lp591
F0.75
aF1.0
aF0.75
aF0.75
aF0.75
a(lp592
F0.3333333333333333
atp593
tp594
sS'FTT_2006-06-22pair2_refexps.p(2583, 2844)'
p595
(S'correct'
p596
S'confident'
p597
I58
((lp598
g9
(g13
S'\x16\x94n\xe5\x03\xa4\xa2?'
p599
tp600
Rp601
ag9
(g13
S'\x16\x94n\xe5\x03\xa4\xa2?'
p602
tp603
Rp604
ag9
(g13
S'Ei7}]\xcf\x85?'
p605
tp606
Rp607
ag9
(g13
S'Ei7}]\xcf\x85?'
p608
tp609
Rp610
a(lp611
g9
(g13
S'\x16\x94n\xe5\x03\xa4\xa2?'
p612
tp613
Rp614
ag9
(g13
S'\x16\x94n\xe5\x03\xa4\xa2?'
p615
tp616
Rp617
ag9
(g13
S'\xdb\x96\x9a\r\xfb\xbb\x98?'
p618
tp619
Rp620
ag9
(g13
S'\xdb\x96\x9a\r\xfb\xbb\x98?'
p621
tp622
Rp623
a(lp624
g9
(g13
S'\xdb\x96\x9a\r\xfb\xbb\x98?'
p625
tp626
Rp627
ag9
(g13
S'\xdb\x96\x9a\r\xfb\xbb\x98?'
p628
tp629
Rp630
atp631
((lp632
F0.6666666666666666
aF0.6666666666666666
aF0.5
aF0.5
a(lp633
F0.6666666666666666
aF0.6666666666666666
aF0.6666666666666666
aF0.6666666666666666
a(lp634
F0.0
aF0.0
atp635
((lp636
F0.9166666666666666
aF0.9166666666666666
aF0.9333333333333333
aF0.9333333333333333
a(lp637
F0.9166666666666666
aF0.9166666666666666
aF0.9166666666666666
aF0.9166666666666666
a(lp638
F1.0
aF1.0
atp639
tp640
sS'FTT_2006-03-27Pair1_refexps.p(3568, 3607)'
p641
(S'not_moved'
p642
S'reconfirm'
p643
I3
((lp644
g9
(g13
S'\xd4A\x1d\xd4A\x1d\xd4?'
p645
tp646
Rp647
a(lp648
g9
(g13
S'\xd4A\x1d\xd4A\x1d\xd4?'
p649
tp650
Rp651
a(lp652
tp653
((lp654
F0.0
a(lp655
F0.0
a(lp656
tp657
((lp658
F0.5
a(lp659
F0.5
a(lp660
tp661
tp662
sS'FTT_2006-03-28pair2_refexps.p(177, 225)'
p663
(S'correct'
p664
S'confident'
p665
I10
((lp666
g9
(g13
S'\x9a\x99\x99\x99\x99\x99\xc9\xbf'
p667
tp668
Rp669
ag9
(g13
S'\x9a\x99\x99\x99\x99\x99\xc9\xbf'
p670
tp671
Rp672
ag9
(g13
S'\x9a\x99\x99\x99\x99\x99\xb9\xbf'
p673
tp674
Rp675
ag9
(g13
S'\x9a\x99\x99\x99\x99\x99\xb9\xbf'
p676
tp677
Rp678
a(lp679
g9
(g13
S'\x9a\x99\x99\x99\x99\x99\xc9\xbf'
p680
tp681
Rp682
ag9
(g13
S'\x9a\x99\x99\x99\x99\x99\xc9\xbf'
p683
tp684
Rp685
ag9
(g13
S'\x9a\x99\x99\x99\x99\x99\xb9\xbf'
p686
tp687
Rp688
ag9
(g13
S'\x9a\x99\x99\x99\x99\x99\xb9\xbf'
p689
tp690
Rp691
a(lp692
g9
(g13
S'\x9a\x99\x99\x99\x99\x99\xb9\xbf'
p693
tp694
Rp695
ag9
(g13
S'\x9a\x99\x99\x99\x99\x99\xb9\xbf'
p696
tp697
Rp698
atp699
((lp700
F0.0
aF0.0
aF0.0
aF0.0
a(lp701
F0.0
aF0.0
aF0.0
aF0.0
a(lp702
tp703
((lp704
F0.0
aF0.0
aF0.0
aF0.0
a(lp705
F0.0
aF0.0
aF0.0
aF0.0
a(lp706
tp707
tp708
sS'FTT_2006-03-28pair2_refexps.p(2932, 3021)'
p709
(S'not_moved'
p710
S'on_hold'
p711
I5
((lp712
g9
(g13
S'\xdb\xb6m\xdb\xb6m\xeb?'
p713
tp714
Rp715
ag9
(g13
S'\xdb\xb6m\xdb\xb6m\xeb?'
p716
tp717
Rp718
a(lp719
g9
(g13
S'\xdb\xb6m\xdb\xb6m\xeb?'
p720
tp721
Rp722
ag9
(g13
S'\xdb\xb6m\xdb\xb6m\xeb?'
p723
tp724
Rp725
a(lp726
g9
(g13
S'\xdb\xb6m\xdb\xb6m\xeb?'
p727
tp728
Rp729
ag9
(g13
S'\xdb\xb6m\xdb\xb6m\xeb?'
p730
tp731
Rp732
atp733
((lp734
(lp735
(lp736
tp737
((lp738
F0.0
aF0.0
a(lp739
F0.0
aF0.0
a(lp740
tp741
tp742
sS'FTT_2006-03-28pair2_refexps.p(1696, 1944)'
p743
(S'not_moved'
p744
S'on_hold'
p745
I7
((lp746
g9
(g13
S'Y\x94EY\x94E\xe9?'
p747
tp748
Rp749
a(lp750
g9
(g13
S'Y\x94EY\x94E\xe9?'
p751
tp752
Rp753
a(lp754
g9
(g13
S'Y\x94EY\x94E\xe9?'
p755
tp756
Rp757
atp758
((lp759
(lp760
(lp761
tp762
((lp763
F0.5
a(lp764
(lp765
F0.5
atp766
tp767
sS'FTT_2006-03-27Pair1_refexps.p(696, 703)'
p768
(S'correct'
p769
S'confident'
p770
I1
((lp771
(lp772
(lp773
tp774
((lp775
(lp776
(lp777
tp778
((lp779
(lp780
(lp781
tp782
tp783
sS'FTT_2006-06-22pair2_refexps.p(3295, 3456)'
p784
(S'incorrect'
p785
S'unconfident'
p786
I11
((lp787
g9
(g13
S'\x97r)\x97r)\xb7?'
p788
tp789
Rp790
ag9
(g13
S'\x00\x00\x00\x00\x00\x00\xe0\xbf'
p791
tp792
Rp793
a(lp794
g9
(g13
S'[\xb0\x05[\xb0\x05\xbb?'
p795
tp796
Rp797
ag9
(g13
S'\x00\x00\x00\x00\x00\x00\xe0\xbf'
p798
tp799
Rp800
a(lp801
g9
(g13
S'[\xb0\x05[\xb0\x05\xbb?'
p802
tp803
Rp804
ag9
(g13
S'\x00\x00\x00\x00\x00\x00\xe0\xbf'
p805
tp806
Rp807
atp808
((lp809
F0.8333333333333334
a(lp810
F1.0
a(lp811
F0.8
atp812
((lp813
F0.8571428571428571
aF1.0
a(lp814
F1.0
a(lp815
F0.8333333333333334
aF0.0
atp816
tp817
sS'FTT_2006-03-27Pair1_refexps.p(2553, 2749)'
p818
(S'incorrect'
p819
S'confident'
p820
I26
((lp821
g9
(g13
S'`\xadA.\tN\xc7?'
p822
tp823
Rp824
ag9
(g13
S'\xff\x14\x89\xdbB\x03\xc7?'
p825
tp826
Rp827
ag9
(g13
S'`\x96\x94\x03"\xc3\xd5?'
p828
tp829
Rp830
ag9
(g13
S'\xa61`\x1a\x03\xa6\xe1?'
p831
tp832
Rp833
a(lp834
g9
(g13
S'5\xc2rO#,\xe7?'
p835
tp836
Rp837
ag9
(g13
S'\x90\xcd\xe1Qh\x80\xc6?'
p838
tp839
Rp840
ag9
(g13
S']t\xd1E\x17]\xd4?'
p841
tp842
Rp843
ag9
(g13
S'\xa61`\x1a\x03\xa6\xe1?'
p844
tp845
Rp846
a(lp847
g9
(g13
S'5\xc2rO#,\xe7?'
p848
tp849
Rp850
ag9
(g13
S'\x90\xcd\xe1Qh\x80\xc6?'
p851
tp852
Rp853
ag9
(g13
S']t\xd1E\x17]\xd4?'
p854
tp855
Rp856
atp857
((lp858
F0.0
aF0.8
aF0.5714285714285714
aF0.5
a(lp859
F0.0
aF1.0
aF0.8888888888888888
aF0.5
a(lp860
F0.0
aF0.75
aF0.0
atp861
((lp862
F0.0
aF0.9090909090909091
aF0.6666666666666666
aF1.0
a(lp863
F0.0
aF0.8571428571428571
aF0.5
aF1.0
a(lp864
F0.0
aF1.0
aF1.0
atp865
tp866
sS'FTT_2006-03-27Pair1_refexps.p(2974, 3031)'
p867
(S'not_moved'
p868
S'reconfirm'
p869
I15
((lp870
g9
(g13
S'\x00\x00\x00\x00\x00\x00\x00\x00'
p871
tp872
Rp873
ag9
(g13
S'\xe5\n{}\xa4\x14\xa7\xbf'
p874
tp875
Rp876
ag9
(g13
S'\x00\x00\x00\x00\x00\x00\x00\x00'
p877
tp878
Rp879
ag9
(g13
S'\x00\x00\x00\x00\x00\x00\x00\x00'
p880
tp881
Rp882
a(lp883
g9
(g13
S'\x00\x00\x00\x00\x00\x00\x00\x00'
p884
tp885
Rp886
ag9
(g13
S'\xe95\t>\x8b^\xc3\xbf'
p887
tp888
Rp889
ag9
(g13
S'\x00\x00\x00\x00\x00\x00\x00\x00'
p890
tp891
Rp892
ag9
(g13
S'\x00\x00\x00\x00\x00\x00\x00\x00'
p893
tp894
Rp895
a(lp896
g9
(g13
S'\xe95\t>\x8b^\xc3\xbf'
p897
tp898
Rp899
atp900
((lp901
F0.5
aF0.4
aF0.5
aF0.5
a(lp902
F0.5
aF0.3333333333333333
aF0.5
aF0.5
a(lp903
F0.5
atp904
((lp905
F1.0
aF0.8
aF1.0
aF1.0
a(lp906
F1.0
aF1.0
aF1.0
aF1.0
a(lp907
F0.5
atp908
tp909
sS'FTT_2006-03-28pair2_refexps.p(2543, 2566)'
p910
(S'not_moved'
p911
S'on_hold'
p912
I2
((lp913
(lp914
(lp915
tp916
((lp917
(lp918
(lp919
tp920
((lp921
(lp922
(lp923
tp924
tp925
sS'FTT_2006-06-22pair2_refexps.p(2845, 3294)'
p926
(S'correct'
p927
S'unconfident'
p928
I83
((lp929
g9
(g13
S'\xa2b\x93PRK\xd0?'
p930
tp931
Rp932
ag9
(g13
S'\xa2b\x93PRK\xd0?'
p933
tp934
Rp935
ag9
(g13
S'\xf2Qd,\xe2\xff\xd0?'
p936
tp937
Rp938
ag9
(g13
S'\xf2Qd,\xe2\xff\xd0?'
p939
tp940
Rp941
ag9
(g13
S'\x9a\x99\x99\x99\x99\x99\xd9?'
p942
tp943
Rp944
ag9
(g13
S'\xa2b\x93PRK\xd0?'
p945
tp946
Rp947
ag9
(g13
S'\x00\x00\x00\x00\x00\x00\x00\x00'
p948
tp949
Rp950
a(lp951
g9
(g13
S'\xb3\xadD\xbb\xd6\xe8\xd0?'
p952
tp953
Rp954
ag9
(g13
S'\xb3\xadD\xbb\xd6\xe8\xd0?'
p955
tp956
Rp957
ag9
(g13
S'\xf2Qd,\xe2\xff\xd0?'
p958
tp959
Rp960
ag9
(g13
S'\xf2Qd,\xe2\xff\xd0?'
p961
tp962
Rp963
ag9
(g13
S'\xb3\xadD\xbb\xd6\xe8\xd0?'
p964
tp965
Rp966
a(lp967
g9
(g13
S'\xb3\xadD\xbb\xd6\xe8\xd0?'
p968
tp969
Rp970
ag9
(g13
S'\xb3\xadD\xbb\xd6\xe8\xd0?'
p971
tp972
Rp973
ag9
(g13
S'\x9a\x99\x99\x99\x99\x99\xd9?'
p974
tp975
Rp976
ag9
(g13
S'\xb3\xadD\xbb\xd6\xe8\xd0?'
p977
tp978
Rp979
ag9
(g13
S'\x00\x00\x00\x00\x00\x00\x00\x00'
p980
tp981
Rp982
atp983
((lp984
F0.4
aF0.4
aF0.3076923076923077
aF0.3076923076923077
aF1.0
aF0.4
a(lp985
F0.3076923076923077
aF0.3076923076923077
aF0.3076923076923077
aF0.3076923076923077
aF0.3076923076923077
a(lp986
F1.0
aF1.0
aF1.0
aF1.0
atp987
((lp988
F0.8
aF0.8
aF0.7857142857142857
aF0.7857142857142857
aF0.0
aF0.8
aF0.5
a(lp989
F0.7857142857142857
aF0.7857142857142857
aF0.7857142857142857
aF0.7857142857142857
aF0.7857142857142857
a(lp990
F1.0
aF1.0
aF0.0
aF1.0
aF0.5
atp991
tp992
sS'FTT_2006-03-28pair2_refexps.p(893, 939)'
p993
(S'correct'
p994
S'confident'
p995
I9
((lp996
g9
(g13
S'\x00\x00\x00\x00\x00\x00\xe0\xbf'
p997
tp998
Rp999
ag9
(g13
S'\x9d\xcd\xd9\x9c\xcd\xd9\xcc?'
p1000
tp1001
Rp1002
a(lp1003
g9
(g13
S'\x00\x00\x00\x00\x00\x00\xe0\xbf'
p1004
tp1005
Rp1006
ag9
(g13
S'\x9d\xcd\xd9\x9c\xcd\xd9\xcc?'
p1007
tp1008
Rp1009
a(lp1010
tp1011
((lp1012
(lp1013
(lp1014
tp1015
((lp1016
F0.0
aF0.6666666666666666
a(lp1017
F0.0
aF0.6666666666666666
a(lp1018
tp1019
tp1020
sS'FTT_2006-03-28pair2_refexps.p(1945, 1966)'
p1021
(S'not_moved'
p1022
S'reconfirm'
p1023
I4
((lp1024
g9
(g13
S'UUUUUU\xd5?'
p1025
tp1026
Rp1027
ag9
(g13
S'UUUUUU\xd5?'
p1028
tp1029
Rp1030
a(lp1031
g9
(g13
S'UUUUUU\xd5?'
p1032
tp1033
Rp1034
ag9
(g13
S'UUUUUU\xd5?'
p1035
tp1036
Rp1037
a(lp1038
tp1039
((lp1040
(lp1041
(lp1042
tp1043
((lp1044
F1.0
aF1.0
a(lp1045
F1.0
aF1.0
a(lp1046
tp1047
tp1048
sS'FTT_2006-06-22pair1_refexps.p(1388, 1416)'
p1049
(S'not_moved'
p1050
S'reconfirm'
p1051
I4
((lp1052
(lp1053
(lp1054
tp1055
((lp1056
(lp1057
(lp1058
tp1059
((lp1060
(lp1061
(lp1062
tp1063
tp1064
sS'FTT_2006-06-22pair1_refexps.p(4879, 5032)'
p1065
(S'correct'
p1066
S'confident'
p1067
I22
((lp1068
g9
(g13
S'\x9a\x99\x99\x99\x99\x99\xc9\xbf'
p1069
tp1070
Rp1071
ag9
(g13
S'\xa2\x9cx\xdeB\x7f\xd4?'
p1072
tp1073
Rp1074
ag9
(g13
S'UUUUUU\xd5?'
p1075
tp1076
Rp1077
ag9
(g13
S',\x15\xb1T\xc4R\xb1\xbf'
p1078
tp1079
Rp1080
ag9
(g13
S'\x9e\xe7y\x9e\xe7y\xce\xbf'
p1081
tp1082
Rp1083
a(lp1084
g9
(g13
S'\xfb\xef0\xe3\x92\xbc\xd1?'
p1085
tp1086
Rp1087
ag9
(g13
S'UUUUUU\xd5?'
p1088
tp1089
Rp1090
ag9
(g13
S'\x90qA\xc6\x05\x19\xb7\xbf'
p1091
tp1092
Rp1093
ag9
(g13
S'\x9e\xe7y\x9e\xe7y\xce\xbf'
p1094
tp1095
Rp1096
a(lp1097
g9
(g13
S'\x9a\x99\x99\x99\x99\x99\xc9\xbf'
p1098
tp1099
Rp1100
ag9
(g13
S'\xfb\xef0\xe3\x92\xbc\xd1?'
p1101
tp1102
Rp1103
ag9
(g13
S'UUUUUU\xd5?'
p1104
tp1105
Rp1106
ag9
(g13
S'\x90qA\xc6\x05\x19\xb7\xbf'
p1107
tp1108
Rp1109
ag9
(g13
S'\x9e\xe7y\x9e\xe7y\xce\xbf'
p1110
tp1111
Rp1112
atp1113
((lp1114
F0.2
aF0.0
aF0.16666666666666666
aF0.15384615384615385
a(lp1115
F0.0
a(lp1116
F0.2
aF0.0
aF1.0
aF0.15384615384615385
atp1117
((lp1118
F1.0
aF0.7142857142857143
aF1.0
aF1.0
aF1.0
a(lp1119
F0.6666666666666666
aF1.0
a(lp1120
F1.0
aF0.75
aF1.0
aF1.0
aF1.0
atp1121
tp1122
sS'FTT_2006-06-22pair2_refexps.p(4882, 4906)'
p1123
(S'correct'
p1124
S'confident'
p1125
I2
((lp1126
g9
(g13
S'\x00\x00\x00\x00\x00\x00\x00\x00'
p1127
tp1128
Rp1129
a(lp1130
(lp1131
g9
(g13
S'\x00\x00\x00\x00\x00\x00\x00\x00'
p1132
tp1133
Rp1134
atp1135
((lp1136
F1.0
a(lp1137
(lp1138
F1.0
atp1139
((lp1140
F1.0
a(lp1141
(lp1142
F1.0
atp1143
tp1144
sS'FTT_2006-06-22pair2_refexps.p(3764, 3963)'
p1145
(S'correct'
p1146
S'confident'
p1147
I40
((lp1148
g9
(g13
S'c)\x96b)\x96\xc2?'
p1149
tp1150
Rp1151
ag9
(g13
S'0]N\x9f\xf9\xdc\xb6?'
p1152
tp1153
Rp1154
ag9
(g13
S'\x00\x00\x00\x00\x00\x00\xe0\xbf'
p1155
tp1156
Rp1157
ag9
(g13
S'c)\x96b)\x96\xc2?'
p1158
tp1159
Rp1160
ag9
(g13
S'0]N\x9f\xf9\xdc\xb6?'
p1161
tp1162
Rp1163
ag9
(g13
S'0]N\x9f\xf9\xdc\xb6?'
p1164
tp1165
Rp1166
a(lp1167
g9
(g13
S'c)\x96b)\x96\xc2?'
p1168
tp1169
Rp1170
ag9
(g13
S'\xa3&\r^\x0f\xb0\xc9?'
p1171
tp1172
Rp1173
ag9
(g13
S'\x00\x00\x00\x00\x00\x00\xe0\xbf'
p1174
tp1175
Rp1176
ag9
(g13
S'c)\x96b)\x96\xc2?'
p1177
tp1178
Rp1179
ag9
(g13
S'\xa3&\r^\x0f\xb0\xc9?'
p1180
tp1181
Rp1182
ag9
(g13
S'\xa3&\r^\x0f\xb0\xc9?'
p1183
tp1184
Rp1185
a(lp1186
g9
(g13
S'\xa3&\r^\x0f\xb0\xc9?'
p1187
tp1188
Rp1189
ag9
(g13
S'\xa3&\r^\x0f\xb0\xc9?'
p1190
tp1191
Rp1192
ag9
(g13
S'\xa3&\r^\x0f\xb0\xc9?'
p1193
tp1194
Rp1195
atp1196
((lp1197
F0.3333333333333333
aF0.25
aF0.0
aF0.3333333333333333
aF0.25
aF0.25
a(lp1198
F0.3333333333333333
aF0.3333333333333333
aF0.0
aF0.3333333333333333
aF0.3333333333333333
aF0.3333333333333333
a(lp1199
F0.0
aF0.0
aF0.0
atp1200
((lp1201
F0.6666666666666666
aF0.5714285714285714
aF1.0
aF0.6666666666666666
aF0.5714285714285714
aF0.5714285714285714
a(lp1202
F0.6666666666666666
aF0.6666666666666666
aF1.0
aF0.6666666666666666
aF0.6666666666666666
aF0.6666666666666666
a(lp1203
F0.0
aF0.0
aF0.0
atp1204
tp1205
sS'FTT_2006-03-28pair2_refexps.p(2681, 2723)'
p1206
(S'not_moved'
p1207
S'reconfirm'
p1208
I8
((lp1209
g9
(g13
S'\x00\x00\x00\x00\x00\x00\x00\x00'
p1210
tp1211
Rp1212
ag9
(g13
S'\xb7m\xdb\xb6m\xdb\xe6\xbf'
p1213
tp1214
Rp1215
ag9
(g13
S'\xb7m\xdb\xb6m\xdb\xe6\xbf'
p1216
tp1217
Rp1218
a(lp1219
g9
(g13
S'\x00\x00\x00\x00\x00\x00\x00\x00'
p1220
tp1221
Rp1222
a(lp1223
g9
(g13
S'\x00\x00\x00\x00\x00\x00\x00\x00'
p1224
tp1225
Rp1226
ag9
(g13
S'\xb7m\xdb\xb6m\xdb\xe6\xbf'
p1227
tp1228
Rp1229
ag9
(g13
S'\xb7m\xdb\xb6m\xdb\xe6\xbf'
p1230
tp1231
Rp1232
atp1233
((lp1234
F1.0
a(lp1235
F1.0
a(lp1236
F1.0
atp1237
((lp1238
F1.0
aF1.0
aF1.0
a(lp1239
F1.0
a(lp1240
F1.0
aF1.0
aF1.0
atp1241
tp1242
sS'FTT_2006-03-27Pair1_refexps.p(1761, 1787)'
p1243
(S'not_moved'
p1244
S'reconfirm'
p1245
I2
((lp1246
(lp1247
(lp1248
tp1249
((lp1250
(lp1251
(lp1252
tp1253
((lp1254
(lp1255
(lp1256
tp1257
tp1258
sS'FTT_2006-03-28pair2_refexps.p(1664, 1695)'
p1259
(S'correct'
p1260
S'confident'
p1261
I6
((lp1262
g9
(g13
S'\x00\x00\x00\x00\x00\x00\xe8?'
p1263
tp1264
Rp1265
ag9
(g13
S'\x00\x00\x00\x00\x00\x00\xe8?'
p1266
tp1267
Rp1268
ag9
(g13
S'\x00\x00\x00\x00\x00\x00\xe8?'
p1269
tp1270
Rp1271
a(lp1272
g9
(g13
S'\x00\x00\x00\x00\x00\x00\xe8?'
p1273
tp1274
Rp1275
ag9
(g13
S'\x00\x00\x00\x00\x00\x00\xe8?'
p1276
tp1277
Rp1278
ag9
(g13
S'\x00\x00\x00\x00\x00\x00\xe8?'
p1279
tp1280
Rp1281
a(lp1282
tp1283
((lp1284
(lp1285
(lp1286
tp1287
((lp1288
F0.0
aF0.0
aF0.0
a(lp1289
F0.0
aF0.0
aF0.0
a(lp1290
tp1291
tp1292
sS'FTT_2006-03-28pair2_refexps.p(1967, 2127)'
p1293
(S'not_moved'
p1294
S'on_hold'
p1295
I21
((lp1296
g9
(g13
S'\x13\x95\x9a\x8e\xad\x91\xea?'
p1297
tp1298
Rp1299
ag9
(g13
S'V\xd0\xa3H\x88\xf0\xe1?'
p1300
tp1301
Rp1302
ag9
(g13
S'V\xd0\xa3H\x88\xf0\xe1?'
p1303
tp1304
Rp1305
a(lp1306
g9
(g13
S'\x13\x95\x9a\x8e\xad\x91\xea?'
p1307
tp1308
Rp1309
ag9
(g13
S'1\x17Z\x05\xc6\x9e\xd2?'
p1310
tp1311
Rp1312
ag9
(g13
S'1\x17Z\x05\xc6\x9e\xd2?'
p1313
tp1314
Rp1315
a(lp1316
g9
(g13
S'1\x17Z\x05\xc6\x9e\xd2?'
p1317
tp1318
Rp1319
ag9
(g13
S'1\x17Z\x05\xc6\x9e\xd2?'
p1320
tp1321
Rp1322
atp1323
((lp1324
F0.75
aF0.75
a(lp1325
(lp1326
F0.75
aF0.75
atp1327
((lp1328
F0.6666666666666666
aF0.8571428571428571
aF0.8571428571428571
a(lp1329
F0.6666666666666666
aF0.6666666666666666
aF0.6666666666666666
a(lp1330
F1.0
aF1.0
atp1331
tp1332
sS'FTT_2006-03-27Pair1_refexps.p(2022, 2081)'
p1333
(S'not_moved'
p1334
S'reconfirm'
p1335
I6
((lp1336
g9
(g13
S'UUUUUU\xc5\xbf'
p1337
tp1338
Rp1339
ag9
(g13
S'UUUUUU\xc5?'
p1340
tp1341
Rp1342
a(lp1343
g9
(g13
S'UUUUUU\xd5\xbf'
p1344
tp1345
Rp1346
ag9
(g13
S'UUUUUU\xc5?'
p1347
tp1348
Rp1349
a(lp1350
g9
(g13
S'UUUUUU\xd5\xbf'
p1351
tp1352
Rp1353
atp1354
((lp1355
F0.25
aF1.0
a(lp1356
F0.0
aF1.0
a(lp1357
F0.5
atp1358
((lp1359
F1.0
aF0.5
a(lp1360
F1.0
aF0.5
a(lp1361
F1.0
atp1362
tp1363
sS'FTT_2006-03-27Pair1_refexps.p(3032, 3049)'
p1364
(S'correct'
p1365
S'confident'
p1366
I3
((lp1367
g9
(g13
S'\x00\x00\x00\x00\x00\x00\x00\x00'
p1368
tp1369
Rp1370
a(lp1371
g9
(g13
S'\x00\x00\x00\x00\x00\x00\x00\x00'
p1372
tp1373
Rp1374
a(lp1375
tp1376
((lp1377
F0.0
a(lp1378
F0.0
a(lp1379
tp1380
((lp1381
F1.0
a(lp1382
F1.0
a(lp1383
tp1384
tp1385
sS'FTT_2006-03-28pair2_refexps.p(3101, 3233)'
p1386
(S'correct'
p1387
S'confident'
p1388
I14
((lp1389
g9
(g13
S'\xcf\xbc\xe0\x98(\t\xe0?'
p1390
tp1391
Rp1392
ag9
(g13
S'\xdb\xb6m\xdb\xb6m\xdb?'
p1393
tp1394
Rp1395
ag9
(g13
S'\xcf\xbc\xe0\x98(\t\xe0?'
p1396
tp1397
Rp1398
a(lp1399
g9
(g13
S'\x12\xdcGp\x1f\xc1\xd5?'
p1400
tp1401
Rp1402
ag9
(g13
S'\xdb\xb6m\xdb\xb6m\xdb?'
p1403
tp1404
Rp1405
ag9
(g13
S'\x12\xdcGp\x1f\xc1\xd5?'
p1406
tp1407
Rp1408
a(lp1409
g9
(g13
S'\x12\xdcGp\x1f\xc1\xd5?'
p1410
tp1411
Rp1412
ag9
(g13
S'\x12\xdcGp\x1f\xc1\xd5?'
p1413
tp1414
Rp1415
atp1416
((lp1417
F0.42857142857142855
aF0.42857142857142855
a(lp1418
(lp1419
F0.42857142857142855
aF0.42857142857142855
atp1420
((lp1421
F0.75
aF1.0
aF0.75
a(lp1422
F1.0
aF1.0
aF1.0
a(lp1423
F0.6666666666666666
aF0.6666666666666666
atp1424
tp1425
sS'FTT_2006-03-28pair2_refexps.p(2436, 2542)'
p1426
(S'not_moved'
p1427
S'reconfirm'
p1428
I9
((lp1429
g9
(g13
S'%\xb6\xbe{-\x19\xb9?'
p1430
tp1431
Rp1432
a(lp1433
g9
(g13
S'\x04\x1b\xe6\xf55\xb0\xc1?'
p1434
tp1435
Rp1436
a(lp1437
g9
(g13
S'\x04\x1b\xe6\xf55\xb0\xc1?'
p1438
tp1439
Rp1440
atp1441
((lp1442
F0.5714285714285714
a(lp1443
F0.5
a(lp1444
F1.0
atp1445
((lp1446
F0.875
a(lp1447
F0.8333333333333334
a(lp1448
F1.0
atp1449
tp1450
sS'FTT_2006-06-22pair2_refexps.p(5496, 5553)'
p1451
(S'correct'
p1452
S'confident'
p1453
I12
((lp1454
g9
(g13
S'\x14EQ\x14EQ\xb4\xbf'
p1455
tp1456
Rp1457
ag9
(g13
S'\x14EQ\x14EQ\xb4\xbf'
p1458
tp1459
Rp1460
a(lp1461
g9
(g13
S'\xdb\xb6m\xdb\xb6m\xdb\xbf'
p1462
tp1463
Rp1464
ag9
(g13
S'\xdb\xb6m\xdb\xb6m\xdb\xbf'
p1465
tp1466
Rp1467
a(lp1468
g9
(g13
S'\xdb\xb6m\xdb\xb6m\xdb\xbf'
p1469
tp1470
Rp1471
ag9
(g13
S'\xdb\xb6m\xdb\xb6m\xdb\xbf'
p1472
tp1473
Rp1474
atp1475
((lp1476
F0.0
aF0.0
a(lp1477
F0.0
aF0.0
a(lp1478
F0.0
aF0.0
atp1479
((lp1480
F0.6
aF0.6
a(lp1481
F0.5
aF0.5
a(lp1482
F1.0
aF1.0
atp1483
tp1484
sS'FTT_2006-03-28pair2_refexps.p(1356, 1437)'
p1485
(S'not_moved'
p1486
S'on_hold'
p1487
I13
((lp1488
g9
(g13
S'UUUUUU\xd5\xbf'
p1489
tp1490
Rp1491
ag9
(g13
S'\x16\x86a\x18\x86a\xa8?'
p1492
tp1493
Rp1494
ag9
(g13
S'\x9a\x99\x99\x99\x99\x99\xc9\xbf'
p1495
tp1496
Rp1497
ag9
(g13
S'UUUUUU\xd5\xbf'
p1498
tp1499
Rp1500
a(lp1501
g9
(g13
S'UUUUUU\xd5\xbf'
p1502
tp1503
Rp1504
ag9
(g13
S'\x92$I\x92$I\xc2\xbf'
p1505
tp1506
Rp1507
ag9
(g13
S'UUUUUU\xd5\xbf'
p1508
tp1509
Rp1510
a(lp1511
g9
(g13
S'\x92$I\x92$I\xc2\xbf'
p1512
tp1513
Rp1514
ag9
(g13
S'\x9a\x99\x99\x99\x99\x99\xc9\xbf'
p1515
tp1516
Rp1517
atp1518
((lp1519
F0.0
aF1.0
aF0.0
aF0.5
a(lp1520
F0.0
aF0.5
a(lp1521
F1.0
aF0.0
atp1522
((lp1523
F0.0
aF0.75
aF1.0
aF1.0
a(lp1524
F0.0
aF0.6666666666666666
aF1.0
a(lp1525
F1.0
aF1.0
atp1526
tp1527
sS'FTT_2006-03-27Pair1_refexps.p(1750, 1760)'
p1528
(S'not_moved'
p1529
S'on_hold'
p1530
I1
((lp1531
(lp1532
(lp1533
tp1534
((lp1535
(lp1536
(lp1537
tp1538
((lp1539
(lp1540
(lp1541
tp1542
tp1543
sS'FTT_2006-03-28pair2_refexps.p(2813, 2824)'
p1544
(S'not_moved'
p1545
S'reconfirm'
p1546
I1
((lp1547
(lp1548
(lp1549
tp1550
((lp1551
(lp1552
(lp1553
tp1554
((lp1555
(lp1556
(lp1557
tp1558
tp1559
sS'FTT_2006-06-22pair1_refexps.p(1417, 1479)'
p1560
(S'not_moved'
p1561
S'on_hold'
p1562
I3
((lp1563
(lp1564
(lp1565
tp1566
((lp1567
(lp1568
(lp1569
tp1570
((lp1571
(lp1572
(lp1573
tp1574
tp1575
sS'FTT_2006-03-27Pair1_refexps.p(731, 759)'
p1576
(S'not_moved'
p1577
S'reconfirm'
p1578
I2
((lp1579
(lp1580
(lp1581
tp1582
((lp1583
(lp1584
(lp1585
tp1586
((lp1587
(lp1588
(lp1589
tp1590
tp1591
sS'FTT_2006-06-22pair1_refexps.p(192, 236)'
p1592
(S'correct'
p1593
S'confident'
p1594
I4
((lp1595
(lp1596
(lp1597
tp1598
((lp1599
(lp1600
(lp1601
tp1602
((lp1603
(lp1604
(lp1605
tp1606
tp1607
sS'FTT_2006-03-27Pair1_refexps.p(2505, 2552)'
p1608
(S'correct'
p1609
S'confident'
p1610
I9
((lp1611
g9
(g13
S'\x00\x00\x00\x00\x00\x00\xe0?'
p1612
tp1613
Rp1614
ag9
(g13
S'\xaa\xaa\xaa\xaa\xaa\xaa\xda?'
p1615
tp1616
Rp1617
ag9
(g13
S'\x00\x00\x00\x00\x00\x00\xe0?'
p1618
tp1619
Rp1620
ag9
(g13
S'\x00\x00\x00\x00\x00\x00\xe0?'
p1621
tp1622
Rp1623
a(lp1624
g9
(g13
S'\x00\x00\x00\x00\x00\x00\xe0?'
p1625
tp1626
Rp1627
ag9
(g13
S'UUUUUU\xd5?'
p1628
tp1629
Rp1630
ag9
(g13
S'\x00\x00\x00\x00\x00\x00\xe0?'
p1631
tp1632
Rp1633
ag9
(g13
S'\x00\x00\x00\x00\x00\x00\xe0?'
p1634
tp1635
Rp1636
a(lp1637
g9
(g13
S'UUUUUU\xd5?'
p1638
tp1639
Rp1640
atp1641
((lp1642
F0.0
a(lp1643
(lp1644
F0.0
atp1645
((lp1646
F0.0
aF0.5
aF0.0
aF0.0
a(lp1647
F0.0
aF0.0
aF0.0
aF0.0
a(lp1648
F1.0
atp1649
tp1650
sS'FTT_2006-03-28pair2_refexps.p(1555, 1663)'
p1651
(S'incorrect'
p1652
S'on_hold'
p1653
I9
((lp1654
g9
(g13
S'4\xaf\xc4\x90#\x96\xc6?'
p1655
tp1656
Rp1657
ag9
(g13
S'\xbfp:a\xfch\xbb?'
p1658
tp1659
Rp1660
a(lp1661
g9
(g13
S'\x17Wq\x15Wq\xb5?'
p1662
tp1663
Rp1664
a(lp1665
g9
(g13
S'\x17Wq\x15Wq\xb5?'
p1666
tp1667
Rp1668
ag9
(g13
S'\xbfp:a\xfch\xbb?'
p1669
tp1670
Rp1671
atp1672
((lp1673
F0.25
aF0.25
a(lp1674
(lp1675
F0.25
aF0.25
atp1676
((lp1677
F0.75
aF0.6666666666666666
a(lp1678
F0.0
a(lp1679
F1.0
aF0.6666666666666666
atp1680
tp1681
sS'FTT_2006-03-27Pair1_refexps.p(946, 1116)'
p1682
(S'incorrect'
p1683
S'confident'
p1684
I42
((lp1685
g9
(g13
S'\xd3[\xf08\xc2V\xbf?'
p1686
tp1687
Rp1688
ag9
(g13
S'eB\x83\xa8Y\xe0\x9c?'
p1689
tp1690
Rp1691
ag9
(g13
S'\xd3[\xf08\xc2V\xbf?'
p1692
tp1693
Rp1694
ag9
(g13
S'\x00\x00\x00\x00\x00\x00\x00\x00'
p1695
tp1696
Rp1697
ag9
(g13
S'\x00\x00\x00\x00\x00\x00\x00\x00'
p1698
tp1699
Rp1700
ag9
(g13
S'\xd3[\xf08\xc2V\xbf?'
p1701
tp1702
Rp1703
ag9
(g13
S'eB\x83\xa8Y\xe0\x9c?'
p1704
tp1705
Rp1706
a(lp1707
g9
(g13
S'\xd3[\xf08\xc2V\xbf?'
p1708
tp1709
Rp1710
ag9
(g13
S'Hub\x92\x05\n\xc7?'
p1711
tp1712
Rp1713
ag9
(g13
S'\xd3[\xf08\xc2V\xbf?'
p1714
tp1715
Rp1716
ag9
(g13
S'\x00\x00\x00\x00\x00\x00\x00\x00'
p1717
tp1718
Rp1719
ag9
(g13
S'\x00\x00\x00\x00\x00\x00\x00\x00'
p1720
tp1721
Rp1722
ag9
(g13
S'\xd3[\xf08\xc2V\xbf?'
p1723
tp1724
Rp1725
ag9
(g13
S'Hub\x92\x05\n\xc7?'
p1726
tp1727
Rp1728
a(lp1729
g9
(g13
S'Hub\x92\x05\n\xc7?'
p1730
tp1731
Rp1732
ag9
(g13
S'Hub\x92\x05\n\xc7?'
p1733
tp1734
Rp1735
atp1736
((lp1737
F0.0
aF0.125
aF0.0
aF0.6666666666666666
aF0.3333333333333333
aF0.0
aF0.125
a(lp1738
F0.0
aF0.0
aF0.0
aF0.6666666666666666
aF0.3333333333333333
aF0.0
aF0.0
a(lp1739
F0.16666666666666666
aF0.16666666666666666
atp1740
((lp1741
F0.6
aF0.6666666666666666
aF0.6
aF1.0
aF1.0
aF0.6
aF0.6666666666666666
a(lp1742
F0.6
aF0.6
aF0.6
aF1.0
aF1.0
aF0.6
aF0.6
a(lp1743
F1.0
aF1.0
atp1744
tp1745
sS'FTT_2006-06-22pair2_refexps.p(1622, 2582)'
p1746
(S'incorrect'
p1747
S'confident'
p1748
I68
((lp1749
g9
(g13
S'r\xd2\x0eB\xb7\x8c\x9c\xbf'
p1750
tp1751
Rp1752
ag9
(g13
S'\x16`\xd9\xf8\xb9\x7f\xad\xbf'
p1753
tp1754
Rp1755
ag9
(g13
S'\xab\xaa\xaa\xaa\xaa\xaa\xea?'
p1756
tp1757
Rp1758
ag9
(g13
S'\xc6&s\x9e\x8f\xef\xc4?'
p1759
tp1760
Rp1761
ag9
(g13
S'\xc5\x8f\x1e\x16\xd6\xbb\xac?'
p1762
tp1763
Rp1764
a(lp1765
g9
(g13
S'Bx\x08\xb8hP\xa0\xbf'
p1766
tp1767
Rp1768
ag9
(g13
S'\xe07\xe3\x8a4\x82\xbe\xbf'
p1769
tp1770
Rp1771
ag9
(g13
S'\xab\xaa\xaa\xaa\xaa\xaa\xea?'
p1772
tp1773
Rp1774
ag9
(g13
S'\x05mba\xb7\xb2\xc6?'
p1775
tp1776
Rp1777
ag9
(g13
S'1*\x82\xf6\xfbT\xbf?'
p1778
tp1779
Rp1780
a(lp1781
g9
(g13
S'Bx\x08\xb8hP\xa0\xbf'
p1782
tp1783
Rp1784
ag9
(g13
S'\xe07\xe3\x8a4\x82\xbe\xbf'
p1785
tp1786
Rp1787
ag9
(g13
S'\x05mba\xb7\xb2\xc6?'
p1788
tp1789
Rp1790
ag9
(g13
S'1*\x82\xf6\xfbT\xbf?'
p1791
tp1792
Rp1793
atp1794
((lp1795
F0.5
aF0.6956521739130435
aF0.6071428571428571
aF0.5
a(lp1796
F0.5
aF0.6923076923076923
aF0.5
aF0.3333333333333333
a(lp1797
F0.5
aF0.7
aF0.8
aF0.6
atp1798
((lp1799
F0.875
aF0.9583333333333334
aF0.0
aF0.8823529411764706
aF0.7777777777777778
a(lp1800
F0.0
aF0.9411764705882353
aF0.0
aF0.8
aF0.0
a(lp1801
F1.0
aF1.0
aF1.0
aF1.0
atp1802
tp1803
sS'FTT_2006-06-22pair2_refexps.p(4732, 4881)'
p1804
(S'correct'
p1805
S'confident'
p1806
I22
((lp1807
g9
(g13
S'\x94\xc8\r\xef:\xd7\xb4?'
p1808
tp1809
Rp1810
ag9
(g13
S'\xdb\xb6m\xdb\xb6m\xdb\xbf'
p1811
tp1812
Rp1813
ag9
(g13
S'\x00\x00\x00\x00\x00\x00\xd0\xbf'
p1814
tp1815
Rp1816
ag9
(g13
S'\xcd\xcc\xcc\xcc\xcc\xcc\xd4?'
p1817
tp1818
Rp1819
ag9
(g13
S'\x00\x00\x00\x00\x00\x00\x00\x00'
p1820
tp1821
Rp1822
a(lp1823
g9
(g13
S'\xcf&\x84\x9fl\x9b\xbc?'
p1824
tp1825
Rp1826
ag9
(g13
S'\xdb\xb6m\xdb\xb6m\xdb\xbf'
p1827
tp1828
Rp1829
ag9
(g13
S'\x00\x00\x00\x00\x00\x00\xd0\xbf'
p1830
tp1831
Rp1832
ag9
(g13
S'\xcd\xcc\xcc\xcc\xcc\xcc\xd4?'
p1833
tp1834
Rp1835
ag9
(g13
S'\x00\x00\x00\x00\x00\x00\x00\x00'
p1836
tp1837
Rp1838
a(lp1839
g9
(g13
S'\xcf&\x84\x9fl\x9b\xbc?'
p1840
tp1841
Rp1842
ag9
(g13
S'\xdb\xb6m\xdb\xb6m\xdb\xbf'
p1843
tp1844
Rp1845
atp1846
((lp1847
F0.75
aF0.3333333333333333
aF0.0
aF0.5
aF1.0
a(lp1848
F0.6666666666666666
aF0.0
aF0.5
aF1.0
a(lp1849
F1.0
aF0.3333333333333333
atp1850
((lp1851
F0.9
aF1.0
aF0.0
aF0.5
aF1.0
a(lp1852
F0.8888888888888888
aF0.0
aF0.5
aF1.0
a(lp1853
F1.0
aF1.0
atp1854
tp1855
sS'FTT_2006-06-22pair1_refexps.p(5033, 5067)'
p1856
(S'correct'
p1857
S'confident'
p1858
I3
((lp1859
(lp1860
(lp1861
tp1862
((lp1863
(lp1864
(lp1865
tp1866
((lp1867
(lp1868
(lp1869
tp1870
tp1871
sS'FTT_2006-06-22pair1_refexps.p(393, 504)'
p1872
(S'incorrect'
p1873
S'confident'
p1874
I24
((lp1875
g9
(g13
S'[u\x19[u\x19\xcb?'
p1876
tp1877
Rp1878
ag9
(g13
S'[u\x19[u\x19\xcb?'
p1879
tp1880
Rp1881
ag9
(g13
S'[u\x19[u\x19\xcb?'
p1882
tp1883
Rp1884
ag9
(g13
S'[u\x19[u\x19\xcb?'
p1885
tp1886
Rp1887
a(lp1888
g9
(g13
S'[u\x19[u\x19\xcb?'
p1889
tp1890
Rp1891
ag9
(g13
S'[u\x19[u\x19\xcb?'
p1892
tp1893
Rp1894
ag9
(g13
S'[u\x19[u\x19\xcb?'
p1895
tp1896
Rp1897
ag9
(g13
S'[u\x19[u\x19\xcb?'
p1898
tp1899
Rp1900
a(lp1901
tp1902
((lp1903
F0.16666666666666666
aF0.16666666666666666
aF0.16666666666666666
aF0.16666666666666666
a(lp1904
F0.16666666666666666
aF0.16666666666666666
aF0.16666666666666666
aF0.16666666666666666
a(lp1905
tp1906
((lp1907
F0.5
aF0.5
aF0.5
aF0.5
a(lp1908
F0.5
aF0.5
aF0.5
aF0.5
a(lp1909
tp1910
tp1911
sS'FTT_2006-06-22pair1_refexps.p(3277, 3285)'
p1912
(S'not_moved'
p1913
S'reconfirm'
p1914
I1
((lp1915
(lp1916
(lp1917
tp1918
((lp1919
(lp1920
(lp1921
tp1922
((lp1923
(lp1924
(lp1925
tp1926
tp1927
sS'FTT_2006-06-22pair1_refexps.p(2004, 2097)'
p1928
(S'not_moved'
p1929
S'reconfirm'
p1930
I23
((lp1931
g9
(g13
S'\xe0\x00\x9f\xa4kd\x8b?'
p1932
tp1933
Rp1934
ag9
(g13
S'|\xf0\xc1\x07\x1f|\xc0?'
p1935
tp1936
Rp1937
ag9
(g13
S'|\xf0\xc1\x07\x1f|\xc0?'
p1938
tp1939
Rp1940
a(lp1941
g9
(g13
S'\xd5\x08\xcb=\x8d\xb0\xdc\xbf'
p1942
tp1943
Rp1944
ag9
(g13
S'|\xf0\xc1\x07\x1f|\xc0?'
p1945
tp1946
Rp1947
ag9
(g13
S'|\xf0\xc1\x07\x1f|\xc0?'
p1948
tp1949
Rp1950
a(lp1951
g9
(g13
S'\xd5\x08\xcb=\x8d\xb0\xdc\xbf'
p1952
tp1953
Rp1954
atp1955
((lp1956
F0.6666666666666666
aF1.0
aF1.0
a(lp1957
F1.0
aF1.0
aF1.0
a(lp1958
F0.0
atp1959
((lp1960
F0.7142857142857143
aF0.8333333333333334
aF0.8333333333333334
a(lp1961
F0.8333333333333334
aF0.8333333333333334
aF0.8333333333333334
a(lp1962
F0.0
atp1963
tp1964
sS'FTT_2006-03-27Pair1_refexps.p(3166, 3426)'
p1965
(S'not_moved'
p1966
S'on_hold'
p1967
I23
((lp1968
g9
(g13
S'\x00\x00\x00\x00\x00\x00\x00\x00'
p1969
tp1970
Rp1971
ag9
(g13
S'\x00\x00\x00\x00\x00\x00\xe0?'
p1972
tp1973
Rp1974
ag9
(g13
S'\x82\xeb&\xf6L\xcc\x93?'
p1975
tp1976
Rp1977
ag9
(g13
S'\x9a\x99\x99\x99\x99\x99\xc9?'
p1978
tp1979
Rp1980
a(lp1981
g9
(g13
S'\x00\x00\x00\x00\x00\x00\x00\x00'
p1982
tp1983
Rp1984
ag9
(g13
S'\x00\x00\x00\x00\x00\x00\xe0?'
p1985
tp1986
Rp1987
ag9
(g13
S'\xcd\x9c\xfbTm\x18\x90\xbf'
p1988
tp1989
Rp1990
ag9
(g13
S'\x9a\x99\x99\x99\x99\x99\xc9?'
p1991
tp1992
Rp1993
a(lp1994
g9
(g13
S'\xcd\x9c\xfbTm\x18\x90\xbf'
p1995
tp1996
Rp1997
atp1998
((lp1999
F0.6666666666666666
aF0.46153846153846156
aF0.5
a(lp2000
F0.6666666666666666
aF0.36363636363636365
aF0.5
a(lp2001
F1.0
atp2002
((lp2003
F1.0
aF0.0
aF0.9230769230769231
aF0.0
a(lp2004
F1.0
aF0.0
aF1.0
aF0.0
a(lp2005
F0.5
atp2006
tp2007
sS'FTT_2006-03-27Pair1_refexps.p(191, 410)'
p2008
(S'incorrect'
p2009
S'confident'
p2010
I96
((lp2011
g9
(g13
S'5\x90\x99\xb9\xdd\xd6\xbc?'
p2012
tp2013
Rp2014
ag9
(g13
S'5\x90\x99\xb9\xdd\xd6\xbc?'
p2015
tp2016
Rp2017
ag9
(g13
S'=\xc5\xfe&\xbc\x1e\xb9?'
p2018
tp2019
Rp2020
ag9
(g13
S'5\x90\x99\xb9\xdd\xd6\xbc?'
p2021
tp2022
Rp2023
ag9
(g13
S'5\x90\x99\xb9\xdd\xd6\xbc?'
p2024
tp2025
Rp2026
a(lp2027
g9
(g13
S'5\x90\x99\xb9\xdd\xd6\xbc?'
p2028
tp2029
Rp2030
ag9
(g13
S'5\x90\x99\xb9\xdd\xd6\xbc?'
p2031
tp2032
Rp2033
ag9
(g13
S'\xe5\x8c\x9dK\x00\x86\xbf?'
p2034
tp2035
Rp2036
ag9
(g13
S'5\x90\x99\xb9\xdd\xd6\xbc?'
p2037
tp2038
Rp2039
ag9
(g13
S'5\x90\x99\xb9\xdd\xd6\xbc?'
p2040
tp2041
Rp2042
a(lp2043
g9
(g13
S'\xe5\x8c\x9dK\x00\x86\xbf?'
p2044
tp2045
Rp2046
atp2047
((lp2048
F0.5
aF0.5
aF0.42857142857142855
aF0.5
aF0.5
a(lp2049
F0.5
aF0.5
aF0.5
aF0.5
aF0.5
a(lp2050
F0.0
atp2051
((lp2052
F0.8888888888888888
aF0.8888888888888888
aF0.8421052631578947
aF0.8888888888888888
aF0.8888888888888888
a(lp2053
F0.8888888888888888
aF0.8888888888888888
aF0.8888888888888888
aF0.8888888888888888
aF0.8888888888888888
a(lp2054
F0.0
atp2055
tp2056
sS'FTT_2006-06-22pair1_refexps.p(2351, 2380)'
p2057
(S'not_moved'
p2058
S'reconfirm'
p2059
I3
((lp2060
g9
(g13
S'\x00\x00\x00\x00\x00\x00\x00\x00'
p2061
tp2062
Rp2063
a(lp2064
g9
(g13
S'\x00\x00\x00\x00\x00\x00\x00\x00'
p2065
tp2066
Rp2067
a(lp2068
g9
(g13
S'\x00\x00\x00\x00\x00\x00\x00\x00'
p2069
tp2070
Rp2071
atp2072
((lp2073
F0.0
a(lp2074
(lp2075
F0.0
atp2076
((lp2077
F0.0
a(lp2078
(lp2079
F0.0
atp2080
tp2081
sS'FTT_2006-06-22pair1_refexps.p(237, 260)'
p2082
(S'correct'
p2083
S'confident'
p2084
I4
((lp2085
(lp2086
(lp2087
tp2088
((lp2089
(lp2090
(lp2091
tp2092
((lp2093
(lp2094
(lp2095
tp2096
tp2097
sS'FTT_2006-06-22pair1_refexps.p(5101, 5143)'
p2098
(S'correct'
p2099
S'confident'
p2100
I4
((lp2101
(lp2102
(lp2103
tp2104
((lp2105
(lp2106
(lp2107
tp2108
((lp2109
(lp2110
(lp2111
tp2112
tp2113
sS'FTT_2006-06-22pair2_refexps.p(4938, 5360)'
p2114
(S'correct'
p2115
S'unconfident'
p2116
I33
((lp2117
g9
(g13
S'^\xddf\xf3\x9d\x1e\xc3?'
p2118
tp2119
Rp2120
ag9
(g13
S'^\xddf\xf3\x9d\x1e\xc3?'
p2121
tp2122
Rp2123
ag9
(g13
S'\x17w3\xb7\xbc?\xc4?'
p2124
tp2125
Rp2126
a(lp2127
g9
(g13
S'^\xddf\xf3\x9d\x1e\xc3?'
p2128
tp2129
Rp2130
ag9
(g13
S'^\xddf\xf3\x9d\x1e\xc3?'
p2131
tp2132
Rp2133
ag9
(g13
S'O=\xc5\xde\xd7%\xcb?'
p2134
tp2135
Rp2136
a(lp2137
g9
(g13
S'O=\xc5\xde\xd7%\xcb?'
p2138
tp2139
Rp2140
atp2141
((lp2142
F0.21428571428571427
aF0.21428571428571427
aF0.21428571428571427
a(lp2143
F0.21428571428571427
aF0.21428571428571427
aF0.21428571428571427
a(lp2144
tp2145
((lp2146
F0.75
aF0.75
aF0.7692307692307693
a(lp2147
F0.75
aF0.75
aF0.75
a(lp2148
F0.8
atp2149
tp2150
sS'FTT_2006-06-22pair2_refexps.p(5361, 5495)'
p2151
(S'correct'
p2152
S'confident'
p2153
I15
((lp2154
g9
(g13
S'UUUUUU\xd5?'
p2155
tp2156
Rp2157
ag9
(g13
S'\x8f\xd3\xfd\x0cY!\x90?'
p2158
tp2159
Rp2160
a(lp2161
g9
(g13
S'UUUUUU\xd5?'
p2162
tp2163
Rp2164
ag9
(g13
S':f\xf0\x03\xa1\xc0\xba?'
p2165
tp2166
Rp2167
a(lp2168
g9
(g13
S':f\xf0\x03\xa1\xc0\xba?'
p2169
tp2170
Rp2171
atp2172
((lp2173
F0.0
aF0.0
a(lp2174
F0.0
aF0.0
a(lp2175
tp2176
((lp2177
F0.0
aF0.8888888888888888
a(lp2178
F0.0
aF0.75
a(lp2179
F1.0
atp2180
tp2181
sS'FTT_2006-03-28pair2_refexps.p(133, 176)'
p2182
(S'correct'
p2183
S'confident'
p2184
I4
((lp2185
g9
(g13
S'\xdb\xb6m\xdb\xb6m\xdb\xbf'
p2186
tp2187
Rp2188
ag9
(g13
S'\xdb\xb6m\xdb\xb6m\xdb\xbf'
p2189
tp2190
Rp2191
a(lp2192
g9
(g13
S'\xdb\xb6m\xdb\xb6m\xdb\xbf'
p2193
tp2194
Rp2195
ag9
(g13
S'\xdb\xb6m\xdb\xb6m\xdb\xbf'
p2196
tp2197
Rp2198
a(lp2199
tp2200
((lp2201
F0.0
aF0.0
a(lp2202
F0.0
aF0.0
a(lp2203
tp2204
((lp2205
F0.0
aF0.0
a(lp2206
F0.0
aF0.0
a(lp2207
tp2208
tp2209
sS'FTT_2006-03-28pair2_refexps.p(2376, 2435)'
p2210
(S'not_moved'
p2211
S'on_hold'
p2212
I7
((lp2213
g9
(g13
S'\x18l\xc1\x16l\xc1\xa6\xbf'
p2214
tp2215
Rp2216
ag9
(g13
S'\x07$\xeb\\y@\xb2\xbf'
p2217
tp2218
Rp2219
a(lp2220
g9
(g13
S'\x18l\xc1\x16l\xc1\xa6\xbf'
p2221
tp2222
Rp2223
ag9
(g13
S'\xfd\xff\xff\xff\xff\xff\xbf\xbf'
p2224
tp2225
Rp2226
a(lp2227
g9
(g13
S'\xfd\xff\xff\xff\xff\xff\xbf\xbf'
p2228
tp2229
Rp2230
atp2231
((lp2232
F0.3333333333333333
aF0.6
a(lp2233
F0.3333333333333333
aF0.3333333333333333
a(lp2234
F1.0
atp2235
((lp2236
F1.0
aF1.0
a(lp2237
F1.0
aF1.0
a(lp2238
F1.0
atp2239
tp2240
sS'FTT_2006-06-22pair1_refexps.p(922, 1299)'
p2241
(S'not_moved'
p2242
S'on_hold'
p2243
I48
((lp2244
g9
(g13
S'\x10\x11\x11\x11\x11\x11\xa1\xbf'
p2245
tp2246
Rp2247
ag9
(g13
S'\n\xc5\xcf4-\xc5\xca?'
p2248
tp2249
Rp2250
ag9
(g13
S'\x11\x11\x11\x11\x11\x11\xd1?'
p2251
tp2252
Rp2253
ag9
(g13
S'\\\xeb\xc9\x8e\x12\x1f\xc4?'
p2254
tp2255
Rp2256
ag9
(g13
S'\x00\x00\x00\x00\x00\x00\x00\x00'
p2257
tp2258
Rp2259
ag9
(g13
S'\x00\x00\x00\x00\x00\x00\x00\x00'
p2260
tp2261
Rp2262
ag9
(g13
S'\x00\x00\x00\x00\x00\x00\x00\x00'
p2263
tp2264
Rp2265
ag9
(g13
S'\x10\x11\x11\x11\x11\x11\xa1\xbf'
p2266
tp2267
Rp2268
a(lp2269
g9
(g13
S'\x14\x11\x11\x11\x11\x11\xa1?'
p2270
tp2271
Rp2272
ag9
(g13
S'\xd5\xcd\x86\r\xaex\xc5?'
p2273
tp2274
Rp2275
ag9
(g13
S'\x11\x11\x11\x11\x11\x11\xd1?'
p2276
tp2277
Rp2278
ag9
(g13
S'8\xb0A,\x8a\x98\xb4?'
p2279
tp2280
Rp2281
ag9
(g13
S'\x00\x00\x00\x00\x00\x00\x00\x00'
p2282
tp2283
Rp2284
ag9
(g13
S'\x00\x00\x00\x00\x00\x00\x00\x00'
p2285
tp2286
Rp2287
ag9
(g13
S'\x00\x00\x00\x00\x00\x00\x00\x00'
p2288
tp2289
Rp2290
ag9
(g13
S'\x14\x11\x11\x11\x11\x11\xa1?'
p2291
tp2292
Rp2293
a(lp2294
g9
(g13
S'\x14\x11\x11\x11\x11\x11\xa1?'
p2295
tp2296
Rp2297
ag9
(g13
S'\xd5\xcd\x86\r\xaex\xc5?'
p2298
tp2299
Rp2300
ag9
(g13
S'8\xb0A,\x8a\x98\xb4?'
p2301
tp2302
Rp2303
ag9
(g13
S'\x00\x00\x00\x00\x00\x00\x00\x00'
p2304
tp2305
Rp2306
ag9
(g13
S'\x00\x00\x00\x00\x00\x00\x00\x00'
p2307
tp2308
Rp2309
ag9
(g13
S'\x14\x11\x11\x11\x11\x11\xa1?'
p2310
tp2311
Rp2312
atp2313
((lp2314
F0.16666666666666666
aF0.16666666666666666
aF1.0
aF0.5
aF1.0
aF0.3333333333333333
aF0.16666666666666666
a(lp2315
F0.0
aF0.25
aF1.0
aF0.5
aF1.0
aF0.0
aF0.0
a(lp2316
F0.3333333333333333
aF0.0
aF1.0
aF1.0
aF0.3333333333333333
atp2317
((lp2318
F0.75
aF0.5
aF1.0
aF0.9375
aF1.0
aF0.0
aF1.0
aF0.75
a(lp2319
F1.0
aF0.6666666666666666
aF1.0
aF0.8
aF1.0
aF0.0
aF1.0
aF1.0
a(lp2320
F0.5
aF0.0
aF1.1666666666666667
aF1.0
aF1.0
aF0.5
atp2321
tp2322
sS'FTT_2006-06-22pair2_refexps.p(5640, 5688)'
p2323
(S'correct'
p2324
S'confident'
p2325
I4
((lp2326
(lp2327
(lp2328
tp2329
((lp2330
(lp2331
(lp2332
tp2333
((lp2334
(lp2335
(lp2336
tp2337
tp2338
sS'FTT_2006-03-27Pair1_refexps.p(411, 600)'
p2339
(S'correct'
p2340
S'confident'
p2341
I56
((lp2342
g9
(g13
S'C{\t\xed%\xb4\xd7?'
p2343
tp2344
Rp2345
ag9
(g13
S')\xbc\x82R\xd4G\xc5?'
p2346
tp2347
Rp2348
ag9
(g13
S'\xf7\tL\xd9S\x99\xbf?'
p2349
tp2350
Rp2351
ag9
(g13
S')\xbc\x82R\xd4G\xc5?'
p2352
tp2353
Rp2354
ag9
(g13
S'\xf7\tL\xd9S\x99\xbf?'
p2355
tp2356
Rp2357
a(lp2358
g9
(g13
S'C{\t\xed%\xb4\xd7?'
p2359
tp2360
Rp2361
ag9
(g13
S')\xbc\x82R\xd4G\xc5?'
p2362
tp2363
Rp2364
ag9
(g13
S'\xfd|\xf5H\xb4Q\xc8?'
p2365
tp2366
Rp2367
ag9
(g13
S')\xbc\x82R\xd4G\xc5?'
p2368
tp2369
Rp2370
ag9
(g13
S'\xfd|\xf5H\xb4Q\xc8?'
p2371
tp2372
Rp2373
a(lp2374
g9
(g13
S'\xfd|\xf5H\xb4Q\xc8?'
p2375
tp2376
Rp2377
ag9
(g13
S'\xfd|\xf5H\xb4Q\xc8?'
p2378
tp2379
Rp2380
atp2381
((lp2382
F1.0
aF0.42857142857142855
aF0.4
aF0.42857142857142855
aF0.4
a(lp2383
F1.0
aF0.42857142857142855
aF0.42857142857142855
aF0.42857142857142855
aF0.42857142857142855
a(lp2384
F0.3333333333333333
aF0.3333333333333333
atp2385
((lp2386
F0.6666666666666666
aF0.9090909090909091
aF0.8461538461538461
aF0.9090909090909091
aF0.8461538461538461
a(lp2387
F0.6666666666666666
aF0.9090909090909091
aF0.9090909090909091
aF0.9090909090909091
aF0.9090909090909091
a(lp2388
F0.5
aF0.5
atp2389
tp2390
sS'FTT_2006-06-22pair1_refexps.p(333, 392)'
p2391
(S'correct'
p2392
S'confident'
p2393
I9
((lp2394
g9
(g13
S'\xd0\x02-\xd0\x02-\xd0?'
p2395
tp2396
Rp2397
ag9
(g13
S'\x00\x00\x00\x00\x00\x00\xd0?'
p2398
tp2399
Rp2400
ag9
(g13
S'\x00\x00\x00\x00\x00\x00\xd0?'
p2401
tp2402
Rp2403
ag9
(g13
S'\x00\x00\x00\x00\x00\x00\xd0?'
p2404
tp2405
Rp2406
a(lp2407
g9
(g13
S'\x14;\xb1\x13;\xb1\xb3?'
p2408
tp2409
Rp2410
ag9
(g13
S'\x00\x00\x00\x00\x00\x00\xd0?'
p2411
tp2412
Rp2413
ag9
(g13
S'\x00\x00\x00\x00\x00\x00\xd0?'
p2414
tp2415
Rp2416
ag9
(g13
S'\x00\x00\x00\x00\x00\x00\xd0?'
p2417
tp2418
Rp2419
a(lp2420
g9
(g13
S'\x14;\xb1\x13;\xb1\xb3?'
p2421
tp2422
Rp2423
atp2424
((lp2425
F0.6666666666666666
aF0.0
aF0.0
aF0.0
a(lp2426
F1.0
aF0.0
aF0.0
aF0.0
a(lp2427
F0.5
atp2428
((lp2429
F0.5
aF1.0
aF1.0
aF1.0
a(lp2430
F1.0
aF1.0
aF1.0
aF1.0
a(lp2431
F0.0
atp2432
tp2433
sS'FTT_2006-03-27Pair1_refexps.p(3496, 3533)'
p2434
(S'correct'
p2435
S'confident'
p2436
I6
((lp2437
g9
(g13
S'\xb7m\xdb\xb6m\xdb\xe6?'
p2438
tp2439
Rp2440
ag9
(g13
S'\xb7m\xdb\xb6m\xdb\xe6?'
p2441
tp2442
Rp2443
ag9
(g13
S'\xb7m\xdb\xb6m\xdb\xe6?'
p2444
tp2445
Rp2446
a(lp2447
(lp2448
g9
(g13
S'\xb7m\xdb\xb6m\xdb\xe6?'
p2449
tp2450
Rp2451
ag9
(g13
S'\xb7m\xdb\xb6m\xdb\xe6?'
p2452
tp2453
Rp2454
ag9
(g13
S'\xb7m\xdb\xb6m\xdb\xe6?'
p2455
tp2456
Rp2457
atp2458
((lp2459
F0.0
aF0.0
aF0.0
a(lp2460
(lp2461
F0.0
aF0.0
aF0.0
atp2462
((lp2463
F0.0
aF0.0
aF0.0
a(lp2464
(lp2465
F0.0
aF0.0
aF0.0
atp2466
tp2467
sS'FTT_2006-06-22pair1_refexps.p(687, 877)'
p2468
(S'not_moved'
p2469
S'on_hold'
p2470
I17
((lp2471
g9
(g13
S'(.\x8d}\x83\xe2\xd2?'
p2472
tp2473
Rp2474
ag9
(g13
S'\x00\x00\x00\x00\x00\x00\x00\x00'
p2475
tp2476
Rp2477
ag9
(g13
S'(.\x8d}\x83\xe2\xd2?'
p2478
tp2479
Rp2480
ag9
(g13
S'\x00\x00\x00\x00\x00\x00\x00\x00'
p2481
tp2482
Rp2483
ag9
(g13
S'(.\x8d}\x83\xe2\xd2?'
p2484
tp2485
Rp2486
a(lp2487
g9
(g13
S'\xd9\x89\x9d\xd8\x89\x9d\xd8\xbf'
p2488
tp2489
Rp2490
ag9
(g13
S'\x00\x00\x00\x00\x00\x00\x00\x00'
p2491
tp2492
Rp2493
ag9
(g13
S'\xd9\x89\x9d\xd8\x89\x9d\xd8\xbf'
p2494
tp2495
Rp2496
ag9
(g13
S'\x00\x00\x00\x00\x00\x00\x00\x00'
p2497
tp2498
Rp2499
ag9
(g13
S'\xd9\x89\x9d\xd8\x89\x9d\xd8\xbf'
p2500
tp2501
Rp2502
a(lp2503
g9
(g13
S'\xd9\x89\x9d\xd8\x89\x9d\xd8\xbf'
p2504
tp2505
Rp2506
ag9
(g13
S'\xd9\x89\x9d\xd8\x89\x9d\xd8\xbf'
p2507
tp2508
Rp2509
ag9
(g13
S'\xd9\x89\x9d\xd8\x89\x9d\xd8\xbf'
p2510
tp2511
Rp2512
atp2513
((lp2514
F0.6666666666666666
aF1.0
aF0.6666666666666666
aF1.0
aF0.6666666666666666
a(lp2515
F1.0
aF1.0
aF1.0
aF1.0
aF1.0
a(lp2516
F0.0
aF0.0
aF0.0
atp2517
((lp2518
F0.6666666666666666
aF1.0
aF0.6666666666666666
aF1.0
aF0.6666666666666666
a(lp2519
F1.0
aF1.0
aF1.0
aF1.0
aF1.0
a(lp2520
F0.5
aF0.5
aF0.5
atp2521
tp2522
sS'FTT_2006-03-28pair2_refexps.p(276, 453)'
p2523
(S'incorrect'
p2524
S'unconfident'
p2525
I20
((lp2526
g9
(g13
S'\x10\x04A\x10\x04A\xb0\xbf'
p2527
tp2528
Rp2529
ag9
(g13
S'\x10\x04A\x10\x04A\xb0\xbf'
p2530
tp2531
Rp2532
ag9
(g13
S'\x00\x00\x00\x00\x00\x00\x00\x00'
p2533
tp2534
Rp2535
ag9
(g13
S'\x00\x00\x00\x00\x00\x00\x00\x00'
p2536
tp2537
Rp2538
ag9
(g13
S'\x10\x04A\x10\x04A\xb0\xbf'
p2539
tp2540
Rp2541
a(lp2542
g9
(g13
S'\x92$I\x92$I\xb2?'
p2543
tp2544
Rp2545
ag9
(g13
S'\x92$I\x92$I\xb2?'
p2546
tp2547
Rp2548
ag9
(g13
S'\x00\x00\x00\x00\x00\x00\x00\x00'
p2549
tp2550
Rp2551
ag9
(g13
S'\x00\x00\x00\x00\x00\x00\x00\x00'
p2552
tp2553
Rp2554
ag9
(g13
S'\x92$I\x92$I\xb2?'
p2555
tp2556
Rp2557
a(lp2558
g9
(g13
S'\x92$I\x92$I\xb2?'
p2559
tp2560
Rp2561
ag9
(g13
S'\x92$I\x92$I\xb2?'
p2562
tp2563
Rp2564
ag9
(g13
S'\x00\x00\x00\x00\x00\x00\x00\x00'
p2565
tp2566
Rp2567
ag9
(g13
S'\x00\x00\x00\x00\x00\x00\x00\x00'
p2568
tp2569
Rp2570
ag9
(g13
S'\x92$I\x92$I\xb2?'
p2571
tp2572
Rp2573
atp2574
((lp2575
F0.0
aF0.0
aF1.0
aF0.0
aF0.0
a(lp2576
F0.0
aF0.0
aF0.0
aF0.0
a(lp2577
F1.0
atp2578
((lp2579
F0.6666666666666666
aF0.6666666666666666
aF1.0
aF1.0
aF0.6666666666666666
a(lp2580
F1.0
aF1.0
aF1.0
aF1.0
a(lp2581
F0.5
aF0.5
aF1.0
aF0.5
atp2582
tp2583
sS'FTT_2006-03-28pair2_refexps.p(2342, 2375)'
p2584
(S'not_moved'
p2585
S'reconfirm'
p2586
I3
((lp2587
g9
(g13
S'\x00\x00\x00\x00\x00\x00\x00\x00'
p2588
tp2589
Rp2590
a(lp2591
g9
(g13
S'\x00\x00\x00\x00\x00\x00\x00\x00'
p2592
tp2593
Rp2594
a(lp2595
tp2596
((lp2597
F0.5
a(lp2598
F0.5
a(lp2599
tp2600
((lp2601
F1.0
a(lp2602
F1.0
a(lp2603
tp2604
tp2605
sS'FTT_2006-06-22pair1_refexps.p(261, 332)'
p2606
(S'incorrect'
p2607
S'confident'
p2608
I9
((lp2609
g9
(g13
S'\xbeC\xa2\x8a\x10o\xd7?'
p2610
tp2611
Rp2612
ag9
(g13
S'\x00\x00\x00\x00\x00\x00\x00\x00'
p2613
tp2614
Rp2615
a(lp2616
g9
(g13
S'\xbeC\xa2\x8a\x10o\xd7?'
p2617
tp2618
Rp2619
ag9
(g13
S'\x00\x00\x00\x00\x00\x00\x00\x00'
p2620
tp2621
Rp2622
a(lp2623
g9
(g13
S'\xbeC\xa2\x8a\x10o\xd7?'
p2624
tp2625
Rp2626
atp2627
((lp2628
F0.3333333333333333
aF0.5
a(lp2629
F0.5
a(lp2630
F0.3333333333333333
atp2631
((lp2632
F0.5
aF1.0
a(lp2633
F1.0
a(lp2634
F0.5
atp2635
tp2636
sS'FTT_2006-06-22pair1_refexps.p(3211, 3239)'
p2637
(S'correct'
p2638
S'confident'
p2639
I3
((lp2640
(lp2641
(lp2642
tp2643
((lp2644
(lp2645
(lp2646
tp2647
((lp2648
(lp2649
(lp2650
tp2651
tp2652
sS'FTT_2006-06-22pair1_refexps.p(1581, 1605)'
p2653
(S'incorrect'
p2654
S'reconfirm'
p2655
I4
((lp2656
g9
(g13
S'333333\xe3?'
p2657
tp2658
Rp2659
ag9
(g13
S'333333\xe3?'
p2660
tp2661
Rp2662
a(lp2663
g9
(g13
S'333333\xe3?'
p2664
tp2665
Rp2666
ag9
(g13
S'333333\xe3?'
p2667
tp2668
Rp2669
a(lp2670
tp2671
((lp2672
(lp2673
(lp2674
tp2675
((lp2676
F1.0
aF1.0
a(lp2677
F1.0
aF1.0
a(lp2678
tp2679
tp2680
sS'FTT_2006-03-27Pair1_refexps.p(3050, 3165)'
p2681
(S'not_moved'
p2682
S'on_hold'
p2683
I4
((lp2684
g9
(g13
S'\x9a\x99\x99\x99\x99\x99\xe1?'
p2685
tp2686
Rp2687
a(lp2688
g9
(g13
S'\x9a\x99\x99\x99\x99\x99\xe1?'
p2689
tp2690
Rp2691
a(lp2692
g9
(g13
S'\x9a\x99\x99\x99\x99\x99\xe1?'
p2693
tp2694
Rp2695
atp2696
((lp2697
F0.0
a(lp2698
(lp2699
F0.0
atp2700
((lp2701
F0.0
a(lp2702
(lp2703
F0.0
atp2704
tp2705
sS'FTT_2006-06-22pair1_refexps.p(3672, 4291)'
p2706
(S'not_moved'
p2707
S'reconfirm'
p2708
I71
((lp2709
g9
(g13
S'\x00\x00\x00\x00\x00\x00\xc0\xbf'
p2710
tp2711
Rp2712
ag9
(g13
S'\xc5\xd0\xe3\x88z\xa9\xba?'
p2713
tp2714
Rp2715
ag9
(g13
S'\x00\x00\x00\x00\x00\x00\x00\x00'
p2716
tp2717
Rp2718
ag9
(g13
S'Ke=y\x1f&\xbc?'
p2719
tp2720
Rp2721
ag9
(g13
S'\xb8\x9e=\xed_\xb6\xb8?'
p2722
tp2723
Rp2724
ag9
(g13
S'@\xca\x91S\xe4X\xa6?'
p2725
tp2726
Rp2727
ag9
(g13
S'\x00\x00\x00\x00\x00\x00\x00\x00'
p2728
tp2729
Rp2730
ag9
(g13
S'\x00\x00\x00\x00\x00\x00\xc0\xbf'
p2731
tp2732
Rp2733
a(lp2734
g9
(g13
S'\x00\x00\x00\x00\x00\x00\xc0\xbf'
p2735
tp2736
Rp2737
ag9
(g13
S'\xedY\xa6\xe1\x86Z\xc0?'
p2738
tp2739
Rp2740
ag9
(g13
S'\x00\x00\x00\x00\x00\x00\x00\x00'
p2741
tp2742
Rp2743
ag9
(g13
S'A\x9e\x12\xe4)A\xce?'
p2744
tp2745
Rp2746
ag9
(g13
S'\xd6\x03\xbb\xbe\x94U\xcf?'
p2747
tp2748
Rp2749
ag9
(g13
S'TA\xd4a<\x00\xa3?'
p2750
tp2751
Rp2752
ag9
(g13
S'\x00\x00\x00\x00\x00\x00\x00\x00'
p2753
tp2754
Rp2755
ag9
(g13
S'\x00\x00\x00\x00\x00\x00\xc0\xbf'
p2756
tp2757
Rp2758
a(lp2759
g9
(g13
S'\xedY\xa6\xe1\x86Z\xc0?'
p2760
tp2761
Rp2762
ag9
(g13
S'A\x9e\x12\xe4)A\xce?'
p2763
tp2764
Rp2765
ag9
(g13
S'\xd6\x03\xbb\xbe\x94U\xcf?'
p2766
tp2767
Rp2768
ag9
(g13
S'TA\xd4a<\x00\xa3?'
p2769
tp2770
Rp2771
atp2772
((lp2773
F0.8
aF0.5294117647058824
aF1.0
aF0.5
aF0.5
aF0.5
aF1.0
aF0.8
a(lp2774
F0.8
aF0.7857142857142857
aF1.0
aF0.0
aF0.14285714285714285
aF0.7777777777777778
aF1.0
aF0.8
a(lp2775
F0.35
aF1.0
aF0.8571428571428571
aF0.0
atp2776
((lp2777
F1.0
aF0.8947368421052632
aF1.0
aF1.0
aF1.0
aF0.9
aF1.0
aF1.0
a(lp2778
F1.0
aF0.8888888888888888
aF1.0
aF1.0
aF1.0
aF0.8947368421052632
aF1.0
aF1.0
a(lp2779
F0.9
aF1.0
aF1.0
aF0.9090909090909091
atp2780
tp2781
sS'FTT_2006-06-22pair1_refexps.p(2322, 2337)'
p2782
(S'not_moved'
p2783
S'reconfirm'
p2784
I3
((lp2785
g9
(g13
S'\x00\x00\x00\x00\x00\x00\x00\x00'
p2786
tp2787
Rp2788
a(lp2789
g9
(g13
S'\x00\x00\x00\x00\x00\x00\x00\x00'
p2790
tp2791
Rp2792
a(lp2793
tp2794
((lp2795
F0.0
a(lp2796
F0.0
a(lp2797
tp2798
((lp2799
F0.5
a(lp2800
F0.5
a(lp2801
tp2802
tp2803
sS'FTT_2006-06-22pair2_refexps.p(3708, 3753)'
p2804
(S'not_moved'
p2805
S'unconfident'
p2806
I1
((lp2807
(lp2808
(lp2809
tp2810
((lp2811
(lp2812
(lp2813
tp2814
((lp2815
(lp2816
(lp2817
tp2818
tp2819
sS'FTT_2006-03-28pair2_refexps.p(1438, 1484)'
p2820
(S'not_moved'
p2821
S'on_hold'
p2822
I6
((lp2823
g9
(g13
S"\xdd+5'\xbc\xdc\xcb?"
p2824
tp2825
Rp2826
a(lp2827
g9
(g13
S'j;\x81\x98\xf5i\xd1?'
p2828
tp2829
Rp2830
a(lp2831
g9
(g13
S'j;\x81\x98\xf5i\xd1?'
p2832
tp2833
Rp2834
atp2835
((lp2836
F0.5
a(lp2837
F0.5
a(lp2838
F0.5
atp2839
((lp2840
F0.8
a(lp2841
F0.75
a(lp2842
F1.0
atp2843
tp2844
sS'FTT_2006-06-22pair2_refexps.p(3464, 3707)'
p2845
(S'incorrect'
p2846
S'unconfident'
p2847
I13
((lp2848
g9
(g13
S'\x00\x00\x00\x00\x00\x00\x00\x00'
p2849
tp2850
Rp2851
ag9
(g13
S'\x9a\x99\x99\x99\x99\x99\xe1\xbf'
p2852
tp2853
Rp2854
a(lp2855
g9
(g13
S'\x00\x00\x00\x00\x00\x00\xe0\xbf'
p2856
tp2857
Rp2858
a(lp2859
g9
(g13
S'\x00\x00\x00\x00\x00\x00\x00\x00'
p2860
tp2861
Rp2862
ag9
(g13
S'\x00\x00\x00\x00\x00\x00\xe0\xbf'
p2863
tp2864
Rp2865
atp2866
((lp2867
F1.0
aF0.0
a(lp2868
F0.0
a(lp2869
F1.0
atp2870
((lp2871
F1.0
aF0.3333333333333333
a(lp2872
F0.0
a(lp2873
F1.0
aF0.5
atp2874
tp2875
sS'FTT_2006-03-28pair2_refexps.p(2825, 2867)'
p2876
(S'not_moved'
p2877
S'on_hold'
p2878
I3
((lp2879
(lp2880
(lp2881
tp2882
((lp2883
(lp2884
(lp2885
tp2886
((lp2887
(lp2888
(lp2889
tp2890
tp2891
sS'FTT_2006-03-27Pair1_refexps.p(601, 695)'
p2892
(S'not_moved'
p2893
S'on_hold'
p2894
I29
((lp2895
g9
(g13
S'\xe0\x08zGH\x89\x8a\xbf'
p2896
tp2897
Rp2898
ag9
(g13
S'\x00\x00\x00\x00\x00\x00\x00\x00'
p2899
tp2900
Rp2901
ag9
(g13
S'\x92M\x0f\x00 \x9d\xb0\xbf'
p2902
tp2903
Rp2904
ag9
(g13
S'\xe0\x08zGH\x89\x8a\xbf'
p2905
tp2906
Rp2907
ag9
(g13
S'\x92M\x0f\x00 \x9d\xb0\xbf'
p2908
tp2909
Rp2910
a(lp2911
g9
(g13
S'\xce\xcb\x15\x7f\xcf@\xbb\xbf'
p2912
tp2913
Rp2914
ag9
(g13
S'\x00\x00\x00\x00\x00\x00\x00\x00'
p2915
tp2916
Rp2917
ag9
(g13
S'\x92M\x0f\x00 \x9d\xb0\xbf'
p2918
tp2919
Rp2920
ag9
(g13
S'\xce\xcb\x15\x7f\xcf@\xbb\xbf'
p2921
tp2922
Rp2923
ag9
(g13
S'\x92M\x0f\x00 \x9d\xb0\xbf'
p2924
tp2925
Rp2926
a(lp2927
g9
(g13
S'\xce\xcb\x15\x7f\xcf@\xbb\xbf'
p2928
tp2929
Rp2930
ag9
(g13
S'\xce\xcb\x15\x7f\xcf@\xbb\xbf'
p2931
tp2932
Rp2933
atp2934
((lp2935
F0.4444444444444444
aF1.0
aF0.4444444444444444
aF0.4444444444444444
aF0.4444444444444444
a(lp2936
F0.4444444444444444
aF1.0
aF0.4444444444444444
aF0.4444444444444444
aF0.4444444444444444
a(lp2937
tp2938
((lp2939
F0.16666666666666666
aF1.0
aF0.2
aF0.16666666666666666
aF0.2
a(lp2940
F0.2
aF1.0
aF0.2
aF0.2
aF0.2
a(lp2941
F0.0
aF0.0
atp2942
tp2943
sS'FTT_2006-06-22pair2_refexps.p(4715, 4731)'
p2944
(S'correct'
p2945
S'unconfident'
p2946
I1
((lp2947
(lp2948
(lp2949
tp2950
((lp2951
(lp2952
(lp2953
tp2954
((lp2955
(lp2956
(lp2957
tp2958
tp2959
sS'FTT_2006-03-28pair2_refexps.p(226, 275)'
p2960
(S'correct'
p2961
S'confident'
p2962
I9
((lp2963
g9
(g13
S'333333\xe3\xbf'
p2964
tp2965
Rp2966
ag9
(g13
S'333333\xe3\xbf'
p2967
tp2968
Rp2969
ag9
(g13
S'\x16_\xf1\x15_\xf1\xb5\xbf'
p2970
tp2971
Rp2972
ag9
(g13
S'333333\xe3\xbf'
p2973
tp2974
Rp2975
a(lp2976
g9
(g13
S'333333\xe3\xbf'
p2977
tp2978
Rp2979
ag9
(g13
S'333333\xe3\xbf'
p2980
tp2981
Rp2982
ag9
(g13
S'\xdb\xb6m\xdb\xb6m\xdb?'
p2983
tp2984
Rp2985
ag9
(g13
S'333333\xe3\xbf'
p2986
tp2987
Rp2988
a(lp2989
g9
(g13
S'\xdb\xb6m\xdb\xb6m\xdb?'
p2990
tp2991
Rp2992
atp2993
((lp2994
F0.4
aF0.4
aF0.3333333333333333
aF0.4
a(lp2995
F0.4
aF0.4
aF0.4
aF0.4
a(lp2996
F0.0
atp2997
((lp2998
F1.0
aF1.0
aF0.5
aF1.0
a(lp2999
F1.0
aF1.0
aF1.0
aF1.0
a(lp3000
F0.0
atp3001
tp3002
sS'FTT_2006-06-22pair2_refexps.p(3965, 4714)'
p3003
(S'correct'
p3004
S'unconfident'
p3005
I74
((lp3006
g9
(g13
S':\xd9D)~&\x7f?'
p3007
tp3008
Rp3009
ag9
(g13
S'\x00\x00\x00\x00\x00\x00\x00\x00'
p3010
tp3011
Rp3012
ag9
(g13
S':\xd9D)~&\x7f?'
p3013
tp3014
Rp3015
ag9
(g13
S':\xd9D)~&\x7f?'
p3016
tp3017
Rp3018
ag9
(g13
S'\x98\x99\x99\x99\x99\x99\x89\xbf'
p3019
tp3020
Rp3021
ag9
(g13
S':\xd9D)~&\x7f?'
p3022
tp3023
Rp3024
a(lp3025
g9
(g13
S'\xbc\xf8\x9e\xa0\xef\x9b\xaf?'
p3026
tp3027
Rp3028
ag9
(g13
S'\x00\x00\x00\x00\x00\x00\x00\x00'
p3029
tp3030
Rp3031
ag9
(g13
S'\xbc\xf8\x9e\xa0\xef\x9b\xaf?'
p3032
tp3033
Rp3034
ag9
(g13
S'\xbc\xf8\x9e\xa0\xef\x9b\xaf?'
p3035
tp3036
Rp3037
ag9
(g13
S'\xbc\xf8\x9e\xa0\xef\x9b\xaf?'
p3038
tp3039
Rp3040
a(lp3041
g9
(g13
S'\xbc\xf8\x9e\xa0\xef\x9b\xaf?'
p3042
tp3043
Rp3044
ag9
(g13
S'\x00\x00\x00\x00\x00\x00\x00\x00'
p3045
tp3046
Rp3047
ag9
(g13
S'\xbc\xf8\x9e\xa0\xef\x9b\xaf?'
p3048
tp3049
Rp3050
ag9
(g13
S'\xbc\xf8\x9e\xa0\xef\x9b\xaf?'
p3051
tp3052
Rp3053
ag9
(g13
S'\x98\x99\x99\x99\x99\x99\x89\xbf'
p3054
tp3055
Rp3056
ag9
(g13
S'\xbc\xf8\x9e\xa0\xef\x9b\xaf?'
p3057
tp3058
Rp3059
atp3060
((lp3061
F0.5714285714285714
aF0.5714285714285714
aF0.5714285714285714
aF0.5714285714285714
a(lp3062
F0.6666666666666666
aF0.6666666666666666
aF0.6666666666666666
aF0.6666666666666666
a(lp3063
F0.5
aF0.5
aF0.5
aF0.5
atp3064
((lp3065
F0.8
aF1.0
aF0.8
aF0.8
aF1.0
aF0.8
a(lp3066
F0.5
aF0.0
aF0.5
aF0.5
aF0.5
a(lp3067
F0.9090909090909091
aF0.9090909090909091
aF0.9090909090909091
aF1.0
aF0.9090909090909091
atp3068
tp3069
sS'FTT_2006-06-22pair2_refexps.p(5602, 5639)'
p3070
(S'correct'
p3071
S'confident'
p3072
I6
((lp3073
g9
(g13
S'\x9a\x99\x99\x99\x99\x99\xd9\xbf'
p3074
tp3075
Rp3076
a(lp3077
g9
(g13
S'\x9a\x99\x99\x99\x99\x99\xd9\xbf'
p3078
tp3079
Rp3080
a(lp3081
tp3082
((lp3083
F0.0
a(lp3084
F0.0
a(lp3085
tp3086
((lp3087
F0.0
aF1.0
aF0.0
a(lp3088
F0.0
aF1.0
aF0.0
a(lp3089
tp3090
tp3091
sS'FTT_2006-03-28pair2_refexps.p(3234, 3399)'
p3092
(S'correct'
p3093
S'confident'
p3094
I29
((lp3095
g9
(g13
S'\x12\xc6S\x059C\xde?'
p3096
tp3097
Rp3098
ag9
(g13
S'\xc8.x\xb1\xd1\x03\xd0?'
p3099
tp3100
Rp3101
ag9
(g13
S'\x12\xc6S\x059C\xde?'
p3102
tp3103
Rp3104
a(lp3105
g9
(g13
S' 2\xdc\xab`\x96\xc4?'
p3106
tp3107
Rp3108
ag9
(g13
S'\xc8.x\xb1\xd1\x03\xd0?'
p3109
tp3110
Rp3111
ag9
(g13
S' 2\xdc\xab`\x96\xc4?'
p3112
tp3113
Rp3114
a(lp3115
g9
(g13
S' 2\xdc\xab`\x96\xc4?'
p3116
tp3117
Rp3118
ag9
(g13
S' 2\xdc\xab`\x96\xc4?'
p3119
tp3120
Rp3121
atp3122
((lp3123
F0.13333333333333333
aF0.0
aF0.13333333333333333
a(lp3124
F0.0
aF0.0
aF0.0
a(lp3125
F0.14285714285714285
aF0.14285714285714285
atp3126
((lp3127
F0.7
aF0.6666666666666666
aF0.7
a(lp3128
F0.8333333333333334
aF0.6666666666666666
aF0.8333333333333334
a(lp3129
F0.5
aF0.5
atp3130
tp3131
sS'FTT_2006-03-27Pair1_refexps.p(1711, 1749)'
p3132
(S'not_moved'
p3133
S'reconfirm'
p3134
I1
((lp3135
(lp3136
(lp3137
tp3138
((lp3139
(lp3140
(lp3141
tp3142
((lp3143
(lp3144
(lp3145
tp3146
tp3147
sS'FTT_2006-03-28pair2_refexps.p(2128, 2155)'
p3148
(S'not_moved'
p3149
S'reconfirm'
p3150
I3
((lp3151
g9
(g13
S'UUUUUU\xd5?'
p3152
tp3153
Rp3154
a(lp3155
g9
(g13
S'UUUUUU\xd5?'
p3156
tp3157
Rp3158
a(lp3159
tp3160
((lp3161
(lp3162
(lp3163
tp3164
((lp3165
F0.0
a(lp3166
F0.0
a(lp3167
tp3168
tp3169
sS'FTT_2006-03-27Pair1_refexps.p(3444, 3495)'
p3170
(S'not_moved'
p3171
S'on_hold'
p3172
I3
((lp3173
g9
(g13
S'\x00\x00\x00\x00\x00\x00\xe0\xbf'
p3174
tp3175
Rp3176
a(lp3177
g9
(g13
S'\x00\x00\x00\x00\x00\x00\xe0\xbf'
p3178
tp3179
Rp3180
a(lp3181
tp3182
((lp3183
(lp3184
(lp3185
tp3186
((lp3187
F0.0
a(lp3188
F0.0
a(lp3189
tp3190
tp3191
sS'FTT_2006-06-22pair1_refexps.p(550, 686)'
p3192
(S'not_moved'
p3193
S'on_hold'
p3194
I17
((lp3195
g9
(g13
S'\x96eY\x96eY\xd6?'
p3196
tp3197
Rp3198
ag9
(g13
S'\x1d\xc8\x81\x1c\xc8\x81\xbc?'
p3199
tp3200
Rp3201
ag9
(g13
S'\xd0\x02-\xd0\x02-\xd0?'
p3202
tp3203
Rp3204
a(lp3205
g9
(g13
S'\x96eY\x96eY\xd6?'
p3206
tp3207
Rp3208
ag9
(g13
S'\x14O\xf1\x14O\xf1\xb4?'
p3209
tp3210
Rp3211
ag9
(g13
S'\x14;\xb1\x13;\xb1\xd3?'
p3212
tp3213
Rp3214
a(lp3215
g9
(g13
S'\x14O\xf1\x14O\xf1\xb4?'
p3216
tp3217
Rp3218
ag9
(g13
S'\x14;\xb1\x13;\xb1\xd3?'
p3219
tp3220
Rp3221
atp3222
((lp3223
F1.0
aF1.0
aF1.0
a(lp3224
F1.0
aF1.0
aF1.0
a(lp3225
F1.0
atp3226
((lp3227
F1.0
aF0.75
aF1.0
a(lp3228
F1.0
aF0.6666666666666666
aF1.0
a(lp3229
F1.0
aF1.0
atp3230
tp3231
sS'FTT_2006-06-22pair1_refexps.p(5068, 5100)'
p3232
(S'correct'
p3233
S'confident'
p3234
I5
((lp3235
g9
(g13
S'\xb7m\xdb\xb6m\xdb\xe6\xbf'
p3236
tp3237
Rp3238
a(lp3239
g9
(g13
S'\xb7m\xdb\xb6m\xdb\xe6\xbf'
p3240
tp3241
Rp3242
a(lp3243
g9
(g13
S'\xb7m\xdb\xb6m\xdb\xe6\xbf'
p3244
tp3245
Rp3246
atp3247
((lp3248
(lp3249
(lp3250
tp3251
((lp3252
F1.0
a(lp3253
(lp3254
F0.0
atp3255
tp3256
sS'FTT_2006-03-27Pair1_refexps.p(2815, 2842)'
p3257
(S'not_moved'
p3258
S'on_hold'
p3259
I6
((lp3260
g9
(g13
S'\x00\x00\x00\x00\x00\x00\xd0?'
p3261
tp3262
Rp3263
ag9
(g13
S'\x00\x00\x00\x00\x00\x00\xd0?'
p3264
tp3265
Rp3266
ag9
(g13
S'\x00\x00\x00\x00\x00\x00\xd0?'
p3267
tp3268
Rp3269
a(lp3270
g9
(g13
S'\x00\x00\x00\x00\x00\x00\xd0?'
p3271
tp3272
Rp3273
ag9
(g13
S'\x00\x00\x00\x00\x00\x00\xd0?'
p3274
tp3275
Rp3276
ag9
(g13
S'\x00\x00\x00\x00\x00\x00\xd0?'
p3277
tp3278
Rp3279
a(lp3280
tp3281
((lp3282
F1.0
aF1.0
aF1.0
a(lp3283
F1.0
aF1.0
aF1.0
a(lp3284
tp3285
((lp3286
F0.0
aF0.0
aF0.0
a(lp3287
F0.0
aF0.0
aF0.0
a(lp3288
tp3289
tp3290
sS'FTT_2006-03-27Pair1_refexps.p(1519, 1710)'
p3291
(S'not_moved'
p3292
S'on_hold'
p3293
I12
((lp3294
g9
(g13
S'\x1c\xd4A\x1d\xd4A\xbd?'
p3295
tp3296
Rp3297
ag9
(g13
S'\xbe\xa1\x0f\xe4\xb2a\xa1?'
p3298
tp3299
Rp3300
ag9
(g13
S'\x1c\xd4A\x1d\xd4A\xbd?'
p3301
tp3302
Rp3303
a(lp3304
g9
(g13
S'\x1c\xd4A\x1d\xd4A\xbd?'
p3305
tp3306
Rp3307
ag9
(g13
S'\xf0\x8c\xc13\x06\xcf\x98\xbf'
p3308
tp3309
Rp3310
ag9
(g13
S'\x1c\xd4A\x1d\xd4A\xbd?'
p3311
tp3312
Rp3313
a(lp3314
g9
(g13
S'\xf0\x8c\xc13\x06\xcf\x98\xbf'
p3315
tp3316
Rp3317
atp3318
((lp3319
F0.0
aF0.2222222222222222
aF0.0
a(lp3320
F0.0
aF0.0
aF0.0
a(lp3321
F0.6666666666666666
atp3322
((lp3323
F0.0
aF0.4
aF0.0
a(lp3324
F0.0
aF0.3333333333333333
aF0.0
a(lp3325
F0.5
atp3326
tp3327
sS'FTT_2006-03-27Pair1_refexps.p(3534, 3567)'
p3328
(S'correct'
p3329
S'confident'
p3330
I1
((lp3331
(lp3332
(lp3333
tp3334
((lp3335
(lp3336
(lp3337
tp3338
((lp3339
(lp3340
(lp3341
tp3342
tp3343
sS'FTT_2006-03-27Pair1_refexps.p(704, 730)'
p3344
(S'not_moved'
p3345
S'confident'
p3346
I1
((lp3347
(lp3348
(lp3349
tp3350
((lp3351
(lp3352
(lp3353
tp3354
((lp3355
(lp3356
(lp3357
tp3358
tp3359
sS'FTT_2006-03-28pair2_refexps.p(1485, 1554)'
p3360
(S'correct'
p3361
S'confident'
p3362
I4
((lp3363
g9
(g13
S'\x00\x00\x00\x00\x00\x00\x00\x00'
p3364
tp3365
Rp3366
a(lp3367
g9
(g13
S'\x00\x00\x00\x00\x00\x00\x00\x00'
p3368
tp3369
Rp3370
a(lp3371
g9
(g13
S'\x00\x00\x00\x00\x00\x00\x00\x00'
p3372
tp3373
Rp3374
atp3375
((lp3376
F1.0
a(lp3377
(lp3378
F1.0
atp3379
((lp3380
F1.0
a(lp3381
(lp3382
F1.0
atp3383
tp3384
sS'FTT_2006-06-22pair1_refexps.p(4292, 4878)'
p3385
(S'correct'
p3386
S'confident'
p3387
I108
((lp3388
g9
(g13
S'G\xb3&\xd7\xcc\x80\xa8?'
p3389
tp3390
Rp3391
ag9
(g13
S'G\xb3&\xd7\xcc\x80\xa8?'
p3392
tp3393
Rp3394
ag9
(g13
S'G\xb3&\xd7\xcc\x80\xa8?'
p3395
tp3396
Rp3397
ag9
(g13
S'\xd3%\x00\x8e\x0e\xa3\xb9\xbf'
p3398
tp3399
Rp3400
ag9
(g13
S'G\xb3&\xd7\xcc\x80\xa8?'
p3401
tp3402
Rp3403
ag9
(g13
S')\x15\xac\x91\xf9\x91\xb4\xbf'
p3404
tp3405
Rp3406
a(lp3407
g9
(g13
S'\xe8\xd5\x8a@\xe5M\xc0?'
p3408
tp3409
Rp3410
ag9
(g13
S'\xe8\xd5\x8a@\xe5M\xc0?'
p3411
tp3412
Rp3413
ag9
(g13
S'\xe8\xd5\x8a@\xe5M\xc0?'
p3414
tp3415
Rp3416
ag9
(g13
S'\xd3%\x00\x8e\x0e\xa3\xb9\xbf'
p3417
tp3418
Rp3419
ag9
(g13
S'\xe8\xd5\x8a@\xe5M\xc0?'
p3420
tp3421
Rp3422
ag9
(g13
S')\x15\xac\x91\xf9\x91\xb4\xbf'
p3423
tp3424
Rp3425
a(lp3426
g9
(g13
S'\xe8\xd5\x8a@\xe5M\xc0?'
p3427
tp3428
Rp3429
ag9
(g13
S'\xe8\xd5\x8a@\xe5M\xc0?'
p3430
tp3431
Rp3432
ag9
(g13
S'\xe8\xd5\x8a@\xe5M\xc0?'
p3433
tp3434
Rp3435
ag9
(g13
S'\xe8\xd5\x8a@\xe5M\xc0?'
p3436
tp3437
Rp3438
atp3439
((lp3440
F0.5333333333333333
aF0.5333333333333333
aF0.5333333333333333
aF0.6666666666666666
aF0.5333333333333333
aF0.6666666666666666
a(lp3441
F0.6666666666666666
aF0.6666666666666666
aF0.6666666666666666
aF0.6666666666666666
aF0.6666666666666666
aF0.6666666666666666
a(lp3442
F0.4444444444444444
aF0.4444444444444444
aF0.4444444444444444
aF0.4444444444444444
atp3443
((lp3444
F0.9
aF0.9
aF0.9
aF0.75
aF0.9
aF0.9333333333333333
a(lp3445
F0.9333333333333333
aF0.9333333333333333
aF0.9333333333333333
aF0.75
aF0.9333333333333333
aF0.9333333333333333
a(lp3446
F0.8
aF0.8
aF0.8
aF0.8
atp3447
tp3448
sS'FTT_2006-03-28pair2_refexps.p(3022, 3063)'
p3449
(S'not_moved'
p3450
S'reconfirm'
p3451
I6
((lp3452
g9
(g13
S'\x00\x00\x00\x00\x00\x00\x00\x00'
p3453
tp3454
Rp3455
ag9
(g13
S'333333\xe3\xbf'
p3456
tp3457
Rp3458
a(lp3459
g9
(g13
S'\x00\x00\x00\x00\x00\x00\x00\x00'
p3460
tp3461
Rp3462
ag9
(g13
S'333333\xe3\xbf'
p3463
tp3464
Rp3465
a(lp3466
tp3467
((lp3468
F0.25
a(lp3469
F0.25
a(lp3470
tp3471
((lp3472
F0.0
aF1.0
a(lp3473
F0.0
aF1.0
a(lp3474
tp3475
tp3476
sS'FTT_2006-03-27Pair1_refexps.p(2843, 2973)'
p3477
(S'not_moved'
p3478
S'on_hold'
p3479
I12
((lp3480
g9
(g13
S'\x16l\xc1\x16l\xc1\xd6?'
p3481
tp3482
Rp3483
ag9
(g13
S'UUUUUU\xd5\xbf'
p3484
tp3485
Rp3486
ag9
(g13
S'\x18l\xc1\x16l\xc1\xa6\xbf'
p3487
tp3488
Rp3489
a(lp3490
g9
(g13
S'\x16l\xc1\x16l\xc1\xd6?'
p3491
tp3492
Rp3493
ag9
(g13
S'\x18l\xc1\x16l\xc1\xa6\xbf'
p3494
tp3495
Rp3496
a(lp3497
g9
(g13
S'\x16l\xc1\x16l\xc1\xd6?'
p3498
tp3499
Rp3500
ag9
(g13
S'UUUUUU\xd5\xbf'
p3501
tp3502
Rp3503
atp3504
((lp3505
F0.3333333333333333
aF0.5
aF0.75
a(lp3506
F0.75
a(lp3507
F0.3333333333333333
aF0.5
atp3508
((lp3509
F0.5
aF0.0
aF0.5
a(lp3510
F0.5
a(lp3511
F0.5
aF0.0
atp3512
tp3513
sS'FTT_2006-06-22pair1_refexps.p(3286, 3306)'
p3514
(S'not_moved'
p3515
S'reconfirm'
p3516
I2
((lp3517
g9
(g13
S'\x00\x00\x00\x00\x00\x00\xe0?'
p3518
tp3519
Rp3520
a(lp3521
g9
(g13
S'\x00\x00\x00\x00\x00\x00\xe0?'
p3522
tp3523
Rp3524
a(lp3525
g9
(g13
S'\x00\x00\x00\x00\x00\x00\xe0?'
p3526
tp3527
Rp3528
atp3529
((lp3530
(lp3531
(lp3532
tp3533
((lp3534
F1.0
a(lp3535
(lp3536
F1.0
atp3537
tp3538
sS'FTT_2006-03-28pair2_refexps.p(2755, 2812)'
p3539
(S'not_moved'
p3540
S'on_hold'
p3541
I6
((lp3542
g9
(g13
S'\xab\xaa\xaa\xaa\xaa\xaa\xea?'
p3543
tp3544
Rp3545
ag9
(g13
S'5\xda\x1b6\xda\x1b\xe6?'
p3546
tp3547
Rp3548
a(lp3549
g9
(g13
S'\xab\xaa\xaa\xaa\xaa\xaa\xea?'
p3550
tp3551
Rp3552
ag9
(g13
S'\x96\x0bn\x95\x0bn\xe5?'
p3553
tp3554
Rp3555
a(lp3556
g9
(g13
S'\x96\x0bn\x95\x0bn\xe5?'
p3557
tp3558
Rp3559
atp3560
((lp3561
F1.0
a(lp3562
(lp3563
F1.0
atp3564
((lp3565
F1.0
aF1.0
a(lp3566
F1.0
aF1.0
a(lp3567
F1.0
atp3568
tp3569
sS'FTT_2006-03-28pair2_refexps.p(2156, 2341)'
p3570
(S'not_moved'
p3571
S'on_hold'
p3572
I17
((lp3573
g9
(g13
S'\xd7[\xbd\xd5[\xbd\xe5?'
p3574
tp3575
Rp3576
ag9
(g13
S'^\xca\xa5\\\xca\xa5\xdc?'
p3577
tp3578
Rp3579
ag9
(g13
S'^\xca\xa5\\\xca\xa5\xdc?'
p3580
tp3581
Rp3582
a(lp3583
g9
(g13
S'\xd7[\xbd\xd5[\xbd\xe5?'
p3584
tp3585
Rp3586
ag9
(g13
S'\x9a\x99\x99\x99\x99\x99\xb9?'
p3587
tp3588
Rp3589
ag9
(g13
S'\x9a\x99\x99\x99\x99\x99\xb9?'
p3590
tp3591
Rp3592
a(lp3593
g9
(g13
S'\x9a\x99\x99\x99\x99\x99\xb9?'
p3594
tp3595
Rp3596
ag9
(g13
S'\x9a\x99\x99\x99\x99\x99\xb9?'
p3597
tp3598
Rp3599
atp3600
((lp3601
F0.25
aF0.25
a(lp3602
(lp3603
F0.25
aF0.25
atp3604
((lp3605
F0.6666666666666666
aF0.6
aF0.6
a(lp3606
F0.6666666666666666
aF0.6666666666666666
aF0.6666666666666666
a(lp3607
F0.5
aF0.5
atp3608
tp3609
sS'FTT_2006-03-27Pair1_refexps.p(1888, 2021)'
p3610
(S'correct'
p3611
S'confident'
p3612
I10
((lp3613
g9
(g13
S'8\x8e\xe38\x8e\xe3\xc8?'
p3614
tp3615
Rp3616
ag9
(g13
S'8\x8e\xe38\x8e\xe3\xc8?'
p3617
tp3618
Rp3619
a(lp3620
g9
(g13
S'\xaa\xaa\xaa\xaa\xaa\xaa\xd2?'
p3621
tp3622
Rp3623
ag9
(g13
S'\xaa\xaa\xaa\xaa\xaa\xaa\xd2?'
p3624
tp3625
Rp3626
a(lp3627
g9
(g13
S'\xaa\xaa\xaa\xaa\xaa\xaa\xd2?'
p3628
tp3629
Rp3630
ag9
(g13
S'\xaa\xaa\xaa\xaa\xaa\xaa\xd2?'
p3631
tp3632
Rp3633
atp3634
((lp3635
F0.0
aF0.0
a(lp3636
F0.0
aF0.0
a(lp3637
F0.0
aF0.0
atp3638
((lp3639
F0.3333333333333333
aF0.3333333333333333
a(lp3640
F0.0
aF0.0
a(lp3641
F0.5
aF0.5
atp3642
tp3643
sS'FTT_2006-03-27Pair1_refexps.p(2355, 2504)'
p3644
(S'correct'
p3645
S'confident'
p3646
I39
((lp3647
g9
(g13
S'\x10x\xbd\x8f_\x91\xc3?'
p3648
tp3649
Rp3650
ag9
(g13
S'\x10x\xbd\x8f_\x91\xc3?'
p3651
tp3652
Rp3653
ag9
(g13
S'\x05\xf7"E\xee\x80\xb6?'
p3654
tp3655
Rp3656
ag9
(g13
S'\x00\x00\x00\x00\x00\x00\x00\x00'
p3657
tp3658
Rp3659
ag9
(g13
S'\x10x\xbd\x8f_\x91\xc3?'
p3660
tp3661
Rp3662
ag9
(g13
S'\x05\xf7"E\xee\x80\xb6?'
p3663
tp3664
Rp3665
a(lp3666
g9
(g13
S'\x10x\xbd\x8f_\x91\xc3?'
p3667
tp3668
Rp3669
ag9
(g13
S'\x10x\xbd\x8f_\x91\xc3?'
p3670
tp3671
Rp3672
ag9
(g13
S'\x8b9\x96\xc5\t\r\xc5?'
p3673
tp3674
Rp3675
ag9
(g13
S'\x00\x00\x00\x00\x00\x00\x00\x00'
p3676
tp3677
Rp3678
ag9
(g13
S'\x10x\xbd\x8f_\x91\xc3?'
p3679
tp3680
Rp3681
ag9
(g13
S'\x8b9\x96\xc5\t\r\xc5?'
p3682
tp3683
Rp3684
a(lp3685
g9
(g13
S'\x8b9\x96\xc5\t\r\xc5?'
p3686
tp3687
Rp3688
ag9
(g13
S'\x8b9\x96\xc5\t\r\xc5?'
p3689
tp3690
Rp3691
atp3692
((lp3693
F1.0
aF1.0
aF0.6
aF1.0
aF1.0
aF0.6
a(lp3694
F1.0
aF1.0
aF1.0
aF1.0
aF1.0
aF1.0
a(lp3695
F0.0
aF0.0
atp3696
((lp3697
F0.8333333333333334
aF0.8333333333333334
aF0.7142857142857143
aF1.0
aF0.8333333333333334
aF0.7142857142857143
a(lp3698
F0.8333333333333334
aF0.8333333333333334
aF0.8333333333333334
aF1.0
aF0.8333333333333334
aF0.8333333333333334
a(lp3699
F0.0
aF0.0
atp3700
tp3701
sS'FTT_2006-06-22pair1_refexps.p(2381, 2763)'
p3702
(S'incorrect'
p3703
S'on_hold'
p3704
I41
((lp3705
g9
(g13
S'\x04\xda\xa1\xc4\x8dd\xd2?'
p3706
tp3707
Rp3708
ag9
(g13
S'\x00\x00\x00\x00\x00\x00\x00\x00'
p3709
tp3710
Rp3711
ag9
(g13
S'\x00\x00\x00\x00\x00\x00\x00\x00'
p3712
tp3713
Rp3714
ag9
(g13
S'\x00\x00\x00\x00\x00\x00\x00\x00'
p3715
tp3716
Rp3717
ag9
(g13
S'\x04\xda\xa1\xc4\x8dd\xd2?'
p3718
tp3719
Rp3720
a(lp3721
g9
(g13
S'|\xace\xe8\x80\xdd\xbe?'
p3722
tp3723
Rp3724
ag9
(g13
S'\x00\x00\x00\x00\x00\x00\x00\x00'
p3725
tp3726
Rp3727
ag9
(g13
S'|\xace\xe8\x80\xdd\xbe?'
p3728
tp3729
Rp3730
a(lp3731
g9
(g13
S'|\xace\xe8\x80\xdd\xbe?'
p3732
tp3733
Rp3734
ag9
(g13
S'\x00\x00\x00\x00\x00\x00\x00\x00'
p3735
tp3736
Rp3737
ag9
(g13
S'\x00\x00\x00\x00\x00\x00\x00\x00'
p3738
tp3739
Rp3740
ag9
(g13
S'|\xace\xe8\x80\xdd\xbe?'
p3741
tp3742
Rp3743
atp3744
((lp3745
F0.5
aF1.0
aF1.0
aF1.0
aF0.5
a(lp3746
F0.5
aF1.0
aF0.5
a(lp3747
F0.5
aF1.0
aF1.0
aF0.5
atp3748
((lp3749
F0.8666666666666667
aF1.0
aF1.0
aF1.0
aF0.8666666666666667
a(lp3750
F0.9166666666666666
aF1.0
aF0.9166666666666666
a(lp3751
F0.6666666666666666
aF1.0
aF1.0
aF0.6666666666666666
atp3752
tp3753
sS'FTT_2006-03-27Pair1_refexps.p(2750, 2814)'
p3754
(S'correct'
p3755
S'confident'
p3756
I24
((lp3757
g9
(g13
S'nv\x95\x11\x02\xc4\xd3?'
p3758
tp3759
Rp3760
ag9
(g13
S'nv\x95\x11\x02\xc4\xd3?'
p3761
tp3762
Rp3763
ag9
(g13
S'nv\x95\x11\x02\xc4\xd3?'
p3764
tp3765
Rp3766
ag9
(g13
S'nv\x95\x11\x02\xc4\xd3?'
p3767
tp3768
Rp3769
a(lp3770
g9
(g13
S'nv\x95\x11\x02\xc4\xd3?'
p3771
tp3772
Rp3773
ag9
(g13
S'nv\x95\x11\x02\xc4\xd3?'
p3774
tp3775
Rp3776
ag9
(g13
S'nv\x95\x11\x02\xc4\xd3?'
p3777
tp3778
Rp3779
ag9
(g13
S'nv\x95\x11\x02\xc4\xd3?'
p3780
tp3781
Rp3782
a(lp3783
tp3784
((lp3785
F0.4
aF0.4
aF0.4
aF0.4
a(lp3786
F0.4
aF0.4
aF0.4
aF0.4
a(lp3787
tp3788
((lp3789
F0.6
aF0.6
aF0.6
aF0.6
a(lp3790
F0.6
aF0.6
aF0.6
aF0.6
a(lp3791
tp3792
tp3793
sS'FTT_2006-06-22pair1_refexps.p(168, 191)'
p3794
(S'correct'
p3795
S'confident'
p3796
I12
((lp3797
g9
(g13
S'\x11\x11\x11\x11\x11\x11\xd1?'
p3798
tp3799
Rp3800
ag9
(g13
S'\x11\x11\x11\x11\x11\x11\xd1?'
p3801
tp3802
Rp3803
ag9
(g13
S'\x11\x11\x11\x11\x11\x11\xd1?'
p3804
tp3805
Rp3806
ag9
(g13
S'\x11\x11\x11\x11\x11\x11\xd1?'
p3807
tp3808
Rp3809
a(lp3810
g9
(g13
S'\x11\x11\x11\x11\x11\x11\xd1?'
p3811
tp3812
Rp3813
ag9
(g13
S'\x11\x11\x11\x11\x11\x11\xd1?'
p3814
tp3815
Rp3816
ag9
(g13
S'\x11\x11\x11\x11\x11\x11\xd1?'
p3817
tp3818
Rp3819
ag9
(g13
S'\x11\x11\x11\x11\x11\x11\xd1?'
p3820
tp3821
Rp3822
a(lp3823
tp3824
((lp3825
(lp3826
(lp3827
tp3828
((lp3829
F0.5
aF0.5
aF0.5
aF0.5
a(lp3830
F0.5
aF0.5
aF0.5
aF0.5
a(lp3831
tp3832
tp3833
sS'FTT_2006-03-28pair2_refexps.p(3064, 3100)'
p3834
(S'correct'
p3835
S'confident'
p3836
I4
((lp3837
g9
(g13
S'\x00\x00\x00\x00\x00\x00\xe0?'
p3838
tp3839
Rp3840
a(lp3841
g9
(g13
S'\x00\x00\x00\x00\x00\x00\xe0?'
p3842
tp3843
Rp3844
a(lp3845
g9
(g13
S'\x00\x00\x00\x00\x00\x00\xe0?'
p3846
tp3847
Rp3848
atp3849
((lp3850
(lp3851
(lp3852
tp3853
((lp3854
F0.0
a(lp3855
(lp3856
F0.0
atp3857
tp3858
sS'FTT_2006-03-27Pair1_refexps.p(1788, 1887)'
p3859
(S'not_moved'
p3860
S'on_hold'
p3861
I10
((lp3862
g9
(g13
S'\x00\x00\x00\x00\x00\x00\x00\x00'
p3863
tp3864
Rp3865
ag9
(g13
S'\x9a\x99\x99\x99\x99\x99\xc9?'
p3866
tp3867
Rp3868
ag9
(g13
S'UUUUUU\xd5\xbf'
p3869
tp3870
Rp3871
ag9
(g13
S'\x9d\xcd\xd9\x9c\xcd\xd9\xcc?'
p3872
tp3873
Rp3874
a(lp3875
g9
(g13
S'\x00\x00\x00\x00\x00\x00\x00\x00'
p3876
tp3877
Rp3878
ag9
(g13
S'\x9a\x99\x99\x99\x99\x99\xc9?'
p3879
tp3880
Rp3881
ag9
(g13
S'UUUUUU\xd5\xbf'
p3882
tp3883
Rp3884
ag9
(g13
S'\x9d\xcd\xd9\x9c\xcd\xd9\xcc?'
p3885
tp3886
Rp3887
a(lp3888
tp3889
((lp3890
F0.0
aF1.0
aF0.0
a(lp3891
F0.0
aF1.0
aF0.0
a(lp3892
tp3893
((lp3894
F1.0
aF1.0
aF0.0
aF0.6666666666666666
a(lp3895
F1.0
aF1.0
aF0.0
aF0.6666666666666666
a(lp3896
tp3897
tp3898
sS'FTT_2006-06-22pair2_refexps.p(1, 1621)'
p3899
(S'incorrect'
p3900
S'unconfident'
p3901
I149
((lp3902
g9
(g13
S'\xf7\xd5$G\xb8\xa5\xb1?'
p3903
tp3904
Rp3905
ag9
(g13
S'~E\xc5\xbe\x9e6\xb2?'
p3906
tp3907
Rp3908
ag9
(g13
S'\xf7\xd5$G\xb8\xa5\xb1?'
p3909
tp3910
Rp3911
ag9
(g13
S'\xf7\xd5$G\xb8\xa5\xb1?'
p3912
tp3913
Rp3914
ag9
(g13
S'~E\xc5\xbe\x9e6\xb2?'
p3915
tp3916
Rp3917
a(lp3918
g9
(g13
S'\xf7\xd5$G\xb8\xa5\xb1?'
p3919
tp3920
Rp3921
ag9
(g13
S'"P\x83\xea9J\xb5?'
p3922
tp3923
Rp3924
ag9
(g13
S'\xf7\xd5$G\xb8\xa5\xb1?'
p3925
tp3926
Rp3927
ag9
(g13
S'\xf7\xd5$G\xb8\xa5\xb1?'
p3928
tp3929
Rp3930
ag9
(g13
S'"P\x83\xea9J\xb5?'
p3931
tp3932
Rp3933
a(lp3934
g9
(g13
S'"P\x83\xea9J\xb5?'
p3935
tp3936
Rp3937
ag9
(g13
S'"P\x83\xea9J\xb5?'
p3938
tp3939
Rp3940
atp3941
((lp3942
F0.45454545454545453
aF0.4090909090909091
aF0.45454545454545453
aF0.45454545454545453
aF0.4090909090909091
a(lp3943
F0.45454545454545453
aF0.45454545454545453
aF0.45454545454545453
aF0.45454545454545453
aF0.45454545454545453
a(lp3944
F0.36363636363636365
aF0.36363636363636365
atp3945
((lp3946
F0.9523809523809523
aF0.975
aF0.9523809523809523
aF0.9523809523809523
aF0.975
a(lp3947
F0.9523809523809523
aF0.9523809523809523
aF0.9523809523809523
aF0.9523809523809523
aF0.9523809523809523
a(lp3948
F1.0
aF1.0
atp3949
tp3950
sS'FTT_2006-06-22pair1_refexps.p(3394, 3671)'
p3951
(S'not_moved'
p3952
S'on_hold'
p3953
I30
((lp3954
g9
(g13
S'\xceN>\xae2X\xc2?'
p3955
tp3956
Rp3957
ag9
(g13
S'\x96v_i\xf7\x95\xc6?'
p3958
tp3959
Rp3960
ag9
(g13
S'\xceN>\xae2X\xc2?'
p3961
tp3962
Rp3963
ag9
(g13
S'\x00\x00\x00\x00\x00\x00\x00\x00'
p3964
tp3965
Rp3966
ag9
(g13
S'>\x9b{\x99R\x87\xcd?'
p3967
tp3968
Rp3969
ag9
(g13
S'\xceN>\xae2X\xc2?'
p3970
tp3971
Rp3972
a(lp3973
g9
(g13
S'\xadoF^)\x87\xb8?'
p3974
tp3975
Rp3976
ag9
(g13
S'\x96v_i\xf7\x95\xc6?'
p3977
tp3978
Rp3979
ag9
(g13
S'\xadoF^)\x87\xb8?'
p3980
tp3981
Rp3982
ag9
(g13
S'\x00\x00\x00\x00\x00\x00\x00\x00'
p3983
tp3984
Rp3985
ag9
(g13
S'{\xd3\x9b\xde\xf4\xa6\xc7?'
p3986
tp3987
Rp3988
ag9
(g13
S'\xadoF^)\x87\xb8?'
p3989
tp3990
Rp3991
a(lp3992
g9
(g13
S'\xadoF^)\x87\xb8?'
p3993
tp3994
Rp3995
ag9
(g13
S'\xadoF^)\x87\xb8?'
p3996
tp3997
Rp3998
ag9
(g13
S'{\xd3\x9b\xde\xf4\xa6\xc7?'
p3999
tp4000
Rp4001
ag9
(g13
S'\xadoF^)\x87\xb8?'
p4002
tp4003
Rp4004
atp4005
((lp4006
F0.4444444444444444
aF0.5714285714285714
aF0.4444444444444444
aF1.0
aF0.8333333333333334
aF0.4444444444444444
a(lp4007
F0.5714285714285714
aF0.5714285714285714
aF0.5714285714285714
aF1.0
aF0.8
aF0.5714285714285714
a(lp4008
F0.0
aF0.0
aF1.0
aF0.0
atp4009
((lp4010
F0.8
aF0.75
aF0.8
aF1.0
aF1.0
aF0.8
a(lp4011
F0.75
aF0.75
aF0.75
aF1.0
aF1.0
aF0.75
a(lp4012
F1.0
aF1.0
aF1.0
aF1.0
atp4013
tp4014
sS'FTT_2006-03-28pair2_refexps.p(3441, 3556)'
p4015
(S'correct'
p4016
S'confident'
p4017
I17
((lp4018
g9
(g13
S'[\xcc"\xa1\xe3\x7f\xb5?'
p4019
tp4020
Rp4021
ag9
(g13
S'[\xcc"\xa1\xe3\x7f\xb5?'
p4022
tp4023
Rp4024
ag9
(g13
S'[\xcc"\xa1\xe3\x7f\xb5?'
p4025
tp4026
Rp4027
ag9
(g13
S'[\xcc"\xa1\xe3\x7f\xb5?'
p4028
tp4029
Rp4030
a(lp4031
g9
(g13
S'[\xcc"\xa1\xe3\x7f\xb5?'
p4032
tp4033
Rp4034
ag9
(g13
S'[\xcc"\xa1\xe3\x7f\xb5?'
p4035
tp4036
Rp4037
ag9
(g13
S'[\xcc"\xa1\xe3\x7f\xb5?'
p4038
tp4039
Rp4040
ag9
(g13
S'[\xcc"\xa1\xe3\x7f\xb5?'
p4041
tp4042
Rp4043
a(lp4044
tp4045
((lp4046
F0.3333333333333333
aF0.3333333333333333
aF0.3333333333333333
aF0.3333333333333333
a(lp4047
F0.3333333333333333
aF0.3333333333333333
aF0.3333333333333333
aF0.3333333333333333
a(lp4048
tp4049
((lp4050
F1.0
aF1.0
aF1.0
aF1.0
a(lp4051
F1.0
aF1.0
aF1.0
aF1.0
a(lp4052
tp4053
tp4054
sS'FTT_2006-03-28pair2_refexps.p(454, 526)'
p4055
(S'correct'
p4056
S'confident'
p4057
I25
((lp4058
g9
(g13
S'\n\xd4\xfa\x95\x02\xb5\xd0?'
p4059
tp4060
Rp4061
ag9
(g13
S'\n\xd4\xfa\x95\x02\xb5\xd0?'
p4062
tp4063
Rp4064
ag9
(g13
S'\n\xd4\xfa\x95\x02\xb5\xd0?'
p4065
tp4066
Rp4067
ag9
(g13
S'\n\xd4\xfa\x95\x02\xb5\xd0?'
p4068
tp4069
Rp4070
ag9
(g13
S'\n\xd4\xfa\x95\x02\xb5\xd0?'
p4071
tp4072
Rp4073
a(lp4074
g9
(g13
S'\n\xd4\xfa\x95\x02\xb5\xd0?'
p4075
tp4076
Rp4077
ag9
(g13
S'\n\xd4\xfa\x95\x02\xb5\xd0?'
p4078
tp4079
Rp4080
ag9
(g13
S'\n\xd4\xfa\x95\x02\xb5\xd0?'
p4081
tp4082
Rp4083
ag9
(g13
S'\n\xd4\xfa\x95\x02\xb5\xd0?'
p4084
tp4085
Rp4086
ag9
(g13
S'\n\xd4\xfa\x95\x02\xb5\xd0?'
p4087
tp4088
Rp4089
a(lp4090
tp4091
((lp4092
F0.0
aF0.0
aF0.0
aF0.0
aF0.0
a(lp4093
F0.0
aF0.0
aF0.0
aF0.0
aF0.0
a(lp4094
tp4095
((lp4096
F0.5
aF0.5
aF0.5
aF0.5
aF0.5
a(lp4097
F0.5
aF0.5
aF0.5
aF0.5
aF0.5
a(lp4098
tp4099
tp4100
sS'FTT_2006-06-22pair1_refexps.p(1521, 1580)'
p4101
(S'not_moved'
p4102
S'reconfirm'
p4103
I12
((lp4104
g9
(g13
S'\x00\x00\x00\x00\x00\x00\xc0?'
p4105
tp4106
Rp4107
ag9
(g13
S'\x00\x00\x00\x00\x00\x00\xc0?'
p4108
tp4109
Rp4110
a(lp4111
g9
(g13
S'\xf4<\xcf\xf3<\xcf\xd3?'
p4112
tp4113
Rp4114
ag9
(g13
S'\xf4<\xcf\xf3<\xcf\xd3?'
p4115
tp4116
Rp4117
a(lp4118
g9
(g13
S'\xf4<\xcf\xf3<\xcf\xd3?'
p4119
tp4120
Rp4121
ag9
(g13
S'\xf4<\xcf\xf3<\xcf\xd3?'
p4122
tp4123
Rp4124
atp4125
((lp4126
F0.25
aF0.25
a(lp4127
F0.0
aF0.0
a(lp4128
F1.0
aF1.0
atp4129
((lp4130
F0.75
aF0.75
a(lp4131
F0.0
aF0.0
a(lp4132
F1.0
aF1.0
atp4133
tp4134
sag1
(g2
tp4135
Rp4136
S'20070201_run3pento_nonoise_refexps.p(998, 1093)'
p4137
(S'incorrect'
p4138
S'confident'
p4139
I15
((lp4140
g9
(g13
S"\x14n\x8a(\xe5'\x8c?"
p4141
tp4142
Rp4143
a(lp4144
g9
(g13
S"\x14n\x8a(\xe5'\x8c?"
p4145
tp4146
Rp4147
a(lp4148
tp4149
((lp4150
F0.3333333333333333
a(lp4151
F0.3333333333333333
a(lp4152
tp4153
((lp4154
F0.7777777777777778
a(lp4155
F0.7777777777777778
a(lp4156
tp4157
tp4158
sS'20070201_run1pento_nonoise_refexps.p(4, 251)'
p4159
(S'correct'
p4160
g4139
I21
((lp4161
g9
(g13
S'\xd0\x02-\xd0\x02-\xd0?'
p4162
tp4163
Rp4164
ag9
(g13
S's\xa3\x9f\x14g\xef\xb8?'
p4165
tp4166
Rp4167
ag9
(g13
S's\xa3\x9f\x14g\xef\xb8?'
p4168
tp4169
Rp4170
ag9
(g13
S's\xa3\x9f\x14g\xef\xb8?'
p4171
tp4172
Rp4173
a(lp4174
g9
(g13
S'\xd0\x02-\xd0\x02-\xd0?'
p4175
tp4176
Rp4177
ag9
(g13
S'\xd0\xc64\x8c\x10;y\xbf'
p4178
tp4179
Rp4180
ag9
(g13
S'\xd0\xc64\x8c\x10;y\xbf'
p4181
tp4182
Rp4183
ag9
(g13
S'\xd0\xc64\x8c\x10;y\xbf'
p4184
tp4185
Rp4186
a(lp4187
g9
(g13
S'\xd0\xc64\x8c\x10;y\xbf'
p4188
tp4189
Rp4190
ag9
(g13
S'\xd0\xc64\x8c\x10;y\xbf'
p4191
tp4192
Rp4193
ag9
(g13
S'\xd0\xc64\x8c\x10;y\xbf'
p4194
tp4195
Rp4196
atp4197
((lp4198
F0.5
aF0.6
aF0.6
aF0.6
a(lp4199
F0.5
aF0.5
aF0.5
aF0.5
a(lp4200
F0.6666666666666666
aF0.6666666666666666
aF0.6666666666666666
atp4201
((lp4202
F0.5
aF0.6
aF0.6
aF0.6
a(lp4203
F0.5
aF0.5
aF0.5
aF0.5
a(lp4204
F0.6666666666666666
aF0.6666666666666666
aF0.6666666666666666
atp4205
tp4206
sS'20070201_run1pento_nonoise_refexps.p(1786, 2114)'
p4207
(g4160
g4139
I66
((lp4208
g9
(g13
S'f\xe1\xc3Yo\xa6\xd1?'
p4209
tp4210
Rp4211
ag9
(g13
S'L_RV_\n\xc4?'
p4212
tp4213
Rp4214
ag9
(g13
S'L_RV_\n\xc4?'
p4215
tp4216
Rp4217
ag9
(g13
S'\x00\x00\x00\x00\x00\x00\xe8?'
p4218
tp4219
Rp4220
ag9
(g13
S'L_RV_\n\xc4?'
p4221
tp4222
Rp4223
ag9
(g13
S'f\xe1\xc3Yo\xa6\xd1?'
p4224
tp4225
Rp4226
ag9
(g13
S'UUUUUU\xd5\xbf'
p4227
tp4228
Rp4229
a(lp4230
g9
(g13
S'\x9d\xa4\xde~y\xfa\xda?'
p4231
tp4232
Rp4233
ag9
(g13
S'L_RV_\n\xc4?'
p4234
tp4235
Rp4236
ag9
(g13
S'L_RV_\n\xc4?'
p4237
tp4238
Rp4239
ag9
(g13
S'\x00\x00\x00\x00\x00\x00\xe8?'
p4240
tp4241
Rp4242
ag9
(g13
S'L_RV_\n\xc4?'
p4243
tp4244
Rp4245
ag9
(g13
S'\x9d\xa4\xde~y\xfa\xda?'
p4246
tp4247
Rp4248
ag9
(g13
S'UUUUUU\xd5\xbf'
p4249
tp4250
Rp4251
a(lp4252
g9
(g13
S'\x9d\xa4\xde~y\xfa\xda?'
p4253
tp4254
Rp4255
ag9
(g13
S'\x9d\xa4\xde~y\xfa\xda?'
p4256
tp4257
Rp4258
atp4259
((lp4260
F0.5555555555555556
aF0.5882352941176471
aF0.5882352941176471
aF0.5882352941176471
aF0.5555555555555556
aF1.0
a(lp4261
F0.5882352941176471
aF0.5882352941176471
aF0.5882352941176471
aF0.5882352941176471
aF0.5882352941176471
aF1.0
a(lp4262
F0.0
aF0.0
atp4263
((lp4264
F0.8
aF0.625
aF0.625
aF0.0
aF0.625
aF0.8
aF1.0
a(lp4265
F0.75
aF0.625
aF0.625
aF0.0
aF0.625
aF0.75
aF1.0
a(lp4266
F0.8571428571428571
aF0.8571428571428571
atp4267
tp4268
sS'20070201_run3pento_nonoise_refexps.p(1196, 1407)'
p4269
(g4160
g4139
I29
((lp4270
g9
(g13
S'\xfc\xc0\x0f\xfc\xc0\x0f\xcc?'
p4271
tp4272
Rp4273
ag9
(g13
S'U\xa3\x1b\xe9\xb4\xb5\xce?'
p4274
tp4275
Rp4276
ag9
(g13
S'\x00\x00\x00\x00\x00\x00\xe0\xbf'
p4277
tp4278
Rp4279
ag9
(g13
S'TH\x85TH\x85\xd4?'
p4280
tp4281
Rp4282
ag9
(g13
S'TH\x85TH\x85\xd4?'
p4283
tp4284
Rp4285
a(lp4286
g9
(g13
S'\xfc\xc0\x0f\xfc\xc0\x0f\xcc?'
p4287
tp4288
Rp4289
ag9
(g13
S'/M,\x8bg\x93\xcb?'
p4290
tp4291
Rp4292
a(lp4293
g9
(g13
S'/M,\x8bg\x93\xcb?'
p4294
tp4295
Rp4296
ag9
(g13
S'\x00\x00\x00\x00\x00\x00\xe0\xbf'
p4297
tp4298
Rp4299
ag9
(g13
S'TH\x85TH\x85\xd4?'
p4300
tp4301
Rp4302
ag9
(g13
S'TH\x85TH\x85\xd4?'
p4303
tp4304
Rp4305
atp4306
((lp4307
F0.16666666666666666
aF1.0
aF0.0
aF1.0
aF1.0
a(lp4308
F0.16666666666666666
a(lp4309
F1.0
aF0.0
aF1.0
aF1.0
atp4310
((lp4311
F0.5
aF0.8888888888888888
aF0.0
aF0.6666666666666666
aF0.6666666666666666
a(lp4312
F0.5
aF0.8333333333333334
a(lp4313
F1.0
aF0.0
aF0.6666666666666666
aF0.6666666666666666
atp4314
tp4315
sS'20070201_run4pento_nonoise_refexps.p(288, 785)'
p4316
(g4160
g4139
I110
((lp4317
g9
(g13
S'\x00\x00\x00\x00\x00\x00\xc0?'
p4318
tp4319
Rp4320
ag9
(g13
S'\x98\xff\xefm(\x94\xb9?'
p4321
tp4322
Rp4323
ag9
(g13
S'\x98\xff\xefm(\x94\xb9?'
p4324
tp4325
Rp4326
ag9
(g13
S'\x98\xff\xefm(\x94\xb9?'
p4327
tp4328
Rp4329
ag9
(g13
S'\xfd\xc7\x16\xef{!\xc5?'
p4330
tp4331
Rp4332
a(lp4333
g9
(g13
S'\x9e\xfb\xdc\x14\x14\x84\xcc?'
p4334
tp4335
Rp4336
ag9
(g13
S'\x9e\xfb\xdc\x14\x14\x84\xcc?'
p4337
tp4338
Rp4339
ag9
(g13
S'\x9e\xfb\xdc\x14\x14\x84\xcc?'
p4340
tp4341
Rp4342
ag9
(g13
S'\xfd\xc7\x16\xef{!\xc5?'
p4343
tp4344
Rp4345
a(lp4346
g9
(g13
S'\x00\x00\x00\x00\x00\x00\xc0?'
p4347
tp4348
Rp4349
ag9
(g13
S'\x9e\xfb\xdc\x14\x14\x84\xcc?'
p4350
tp4351
Rp4352
ag9
(g13
S'\x9e\xfb\xdc\x14\x14\x84\xcc?'
p4353
tp4354
Rp4355
ag9
(g13
S'\x9e\xfb\xdc\x14\x14\x84\xcc?'
p4356
tp4357
Rp4358
atp4359
((lp4360
F1.0
aF0.5333333333333333
aF0.5333333333333333
aF0.5333333333333333
aF0.5555555555555556
a(lp4361
F0.5555555555555556
aF0.5555555555555556
aF0.5555555555555556
aF0.5555555555555556
a(lp4362
F1.0
aF0.5238095238095238
aF0.5238095238095238
aF0.5238095238095238
atp4363
((lp4364
F0.0
aF0.8928571428571429
aF0.8928571428571429
aF0.8928571428571429
aF0.8947368421052632
a(lp4365
F0.8947368421052632
aF0.8947368421052632
aF0.8947368421052632
aF0.8947368421052632
a(lp4366
F0.0
aF0.8888888888888888
aF0.8888888888888888
aF0.8888888888888888
atp4367
tp4368
sS'20061123_pento_nonoise_refexps.p(1015, 1397)'
p4369
(S'not_moved'
p4370
S'on_hold'
p4371
I51
((lp4372
g9
(g13
S'J0\xa1L\xa6\xcf\xd0?'
p4373
tp4374
Rp4375
ag9
(g13
S'\xe8\x0e\xa5>\x83\xdf\xc7?'
p4376
tp4377
Rp4378
ag9
(g13
S'H\x97?\x9a\x89\x9e\xc8?'
p4379
tp4380
Rp4381
ag9
(g13
S'\x00\x00\x00\x00\x00\x00\x00\x00'
p4382
tp4383
Rp4384
ag9
(g13
S'\x9a\x99\x99\x99\x99\x99\xc9\xbf'
p4385
tp4386
Rp4387
ag9
(g13
S'\\\xcc\xb3\x97t4x?'
p4388
tp4389
Rp4390
a(lp4391
g9
(g13
S'i\xf9\xd9\x18\x9b\x96\xcf?'
p4392
tp4393
Rp4394
ag9
(g13
S'\xa2\xb6\x01\x92\x1a\x03\xbf?'
p4395
tp4396
Rp4397
ag9
(g13
S'\xc3\x14\xf9\xac\x1bL\xc1\xbf'
p4398
tp4399
Rp4400
ag9
(g13
S'\x00\x00\x00\x00\x00\x00\x00\x00'
p4401
tp4402
Rp4403
ag9
(g13
S'\x9a\x99\x99\x99\x99\x99\xc9\xbf'
p4404
tp4405
Rp4406
ag9
(g13
S'0\x0c\x9f\xb2&\xc2H?'
p4407
tp4408
Rp4409
a(lp4410
g9
(g13
S'i\xf9\xd9\x18\x9b\x96\xcf?'
p4411
tp4412
Rp4413
ag9
(g13
S'\xa2\xb6\x01\x92\x1a\x03\xbf?'
p4414
tp4415
Rp4416
ag9
(g13
S'\xc3\x14\xf9\xac\x1bL\xc1\xbf'
p4417
tp4418
Rp4419
ag9
(g13
S'\x00\x00\x00\x00\x00\x00\x00\x00'
p4420
tp4421
Rp4422
ag9
(g13
S'\x9a\x99\x99\x99\x99\x99\xc9\xbf'
p4423
tp4424
Rp4425
ag9
(g13
S'0\x0c\x9f\xb2&\xc2H?'
p4426
tp4427
Rp4428
atp4429
((lp4430
F0.3333333333333333
aF0.5714285714285714
aF0.38461538461538464
aF0.6666666666666666
aF0.7647058823529411
a(lp4431
F0.1111111111111111
aF0.5
aF0.3
aF0.5
aF0.6666666666666666
a(lp4432
F1.0
aF0.6666666666666666
aF0.6666666666666666
aF1.0
aF0.875
atp4433
((lp4434
F1.0
aF0.8823529411764706
aF0.6666666666666666
aF1.0
aF1.0
aF1.0
a(lp4435
F1.0
aF0.8
aF0.6
aF1.0
aF0.0
aF1.0
a(lp4436
F1.0
aF1.0
aF1.0
aF1.0
aF1.0
atp4437
tp4438
sS'20070201_run3pento_nonoise_refexps.p(225, 374)'
p4439
(g4160
g4139
I48
((lp4440
g9
(g13
S'\xc5\xe7F\xf3\xa1/\xc6?'
p4441
tp4442
Rp4443
ag9
(g13
S'\xb4\xf8\xda\x07\x7f\x88\xc5?'
p4444
tp4445
Rp4446
ag9
(g13
S'\xb4\xf8\xda\x07\x7f\x88\xc5?'
p4447
tp4448
Rp4449
ag9
(g13
S'\xc5\xe7F\xf3\xa1/\xc6?'
p4450
tp4451
Rp4452
ag9
(g13
S'\xb4\xf8\xda\x07\x7f\x88\xc5?'
p4453
tp4454
Rp4455
ag9
(g13
S'UUUUUU\xd5\xbf'
p4456
tp4457
Rp4458
a(lp4459
g9
(g13
S'\xc5\xe7F\xf3\xa1/\xc6?'
p4460
tp4461
Rp4462
ag9
(g13
S'\xe8\x8d\x84\x84#$\xc5?'
p4463
tp4464
Rp4465
ag9
(g13
S'\xe8\x8d\x84\x84#$\xc5?'
p4466
tp4467
Rp4468
ag9
(g13
S'\xc5\xe7F\xf3\xa1/\xc6?'
p4469
tp4470
Rp4471
ag9
(g13
S'\xe8\x8d\x84\x84#$\xc5?'
p4472
tp4473
Rp4474
ag9
(g13
S'UUUUUU\xd5\xbf'
p4475
tp4476
Rp4477
a(lp4478
g9
(g13
S'\xe8\x8d\x84\x84#$\xc5?'
p4479
tp4480
Rp4481
ag9
(g13
S'\xe8\x8d\x84\x84#$\xc5?'
p4482
tp4483
Rp4484
ag9
(g13
S'\xe8\x8d\x84\x84#$\xc5?'
p4485
tp4486
Rp4487
atp4488
((lp4489
F0.6666666666666666
aF0.6666666666666666
aF0.6666666666666666
aF0.6666666666666666
aF0.6666666666666666
aF0.0
a(lp4490
F0.6666666666666666
aF0.6666666666666666
aF0.6666666666666666
aF0.6666666666666666
aF0.6666666666666666
aF0.0
a(lp4491
tp4492
((lp4493
F0.7142857142857143
aF0.7777777777777778
aF0.7777777777777778
aF0.7142857142857143
aF0.7777777777777778
aF1.0
a(lp4494
F0.7142857142857143
aF0.7142857142857143
aF0.7142857142857143
aF0.7142857142857143
aF0.7142857142857143
aF1.0
a(lp4495
F1.0
aF1.0
aF1.0
atp4496
tp4497
sS'20061123_pento_nonoise_refexps.p(3754, 3811)'
p4498
(g4160
g4139
I9
((lp4499
g9
(g13
S'\xc7q\x1c\xc7q\x1c\xd7?'
p4500
tp4501
Rp4502
a(lp4503
g9
(g13
S'\xaa\xaa\xaa\xaa\xaa\xaa\xd2?'
p4504
tp4505
Rp4506
a(lp4507
g9
(g13
S'\xaa\xaa\xaa\xaa\xaa\xaa\xd2?'
p4508
tp4509
Rp4510
atp4511
((lp4512
(lp4513
(lp4514
tp4515
((lp4516
F0.6666666666666666
a(lp4517
F0.0
a(lp4518
F1.0
atp4519
tp4520
sS'20070201_run4pento_nonoise_refexps.p(786, 893)'
p4521
(g4160
g4139
I14
((lp4522
g9
(g13
S'\x1c\xc7q\x1c\xc7q\xbc?'
p4523
tp4524
Rp4525
ag9
(g13
S'\x1c\xc7q\x1c\xc7q\xbc?'
p4526
tp4527
Rp4528
ag9
(g13
S'|\xef.&\x9a\xd9\xd0?'
p4529
tp4530
Rp4531
ag9
(g13
S'\x1c\xc7q\x1c\xc7q\xbc?'
p4532
tp4533
Rp4534
ag9
(g13
S'|\xef.&\x9a\xd9\xd0?'
p4535
tp4536
Rp4537
a(lp4538
g9
(g13
S'\x1c\xc7q\x1c\xc7q\xbc?'
p4539
tp4540
Rp4541
ag9
(g13
S'\x1c\xc7q\x1c\xc7q\xbc?'
p4542
tp4543
Rp4544
ag9
(g13
S'V.\xb8U.\xb8\xd5?'
p4545
tp4546
Rp4547
ag9
(g13
S'\x1c\xc7q\x1c\xc7q\xbc?'
p4548
tp4549
Rp4550
ag9
(g13
S'V.\xb8U.\xb8\xd5?'
p4551
tp4552
Rp4553
a(lp4554
g9
(g13
S'V.\xb8U.\xb8\xd5?'
p4555
tp4556
Rp4557
ag9
(g13
S'V.\xb8U.\xb8\xd5?'
p4558
tp4559
Rp4560
atp4561
((lp4562
F1.0
aF1.0
aF0.8
aF1.0
aF0.8
a(lp4563
F1.0
aF1.0
aF1.0
aF1.0
aF1.0
a(lp4564
F0.5
aF0.5
atp4565
((lp4566
F0.0
aF0.0
aF0.6666666666666666
aF0.0
aF0.6666666666666666
a(lp4567
F0.0
aF0.0
aF0.0
aF0.0
aF0.0
a(lp4568
F1.0
aF1.0
atp4569
tp4570
sS'20070201_run1pento_nonoise_refexps.p(1560, 1785)'
p4571
(g4160
g4139
I30
((lp4572
g9
(g13
S'\xac\xb7}t\\\xf6\xc5?'
p4573
tp4574
Rp4575
ag9
(g13
S'\xac\xb7}t\\\xf6\xc5?'
p4576
tp4577
Rp4578
ag9
(g13
S'\xac\xb7}t\\\xf6\xc5?'
p4579
tp4580
Rp4581
a(lp4582
g9
(g13
S'\xac\xb7}t\\\xf6\xc5?'
p4583
tp4584
Rp4585
ag9
(g13
S'\xac\xb7}t\\\xf6\xc5?'
p4586
tp4587
Rp4588
ag9
(g13
S'\xac\xb7}t\\\xf6\xc5?'
p4589
tp4590
Rp4591
a(lp4592
g9
(g13
S'\xac\xb7}t\\\xf6\xc5?'
p4593
tp4594
Rp4595
ag9
(g13
S'\xac\xb7}t\\\xf6\xc5?'
p4596
tp4597
Rp4598
ag9
(g13
S'\xac\xb7}t\\\xf6\xc5?'
p4599
tp4600
Rp4601
atp4602
((lp4603
F0.0
aF0.0
aF0.0
a(lp4604
F0.0
aF0.0
aF0.0
a(lp4605
tp4606
((lp4607
F0.6666666666666666
aF0.6666666666666666
aF0.6666666666666666
a(lp4608
F0.6666666666666666
aF0.6666666666666666
aF0.6666666666666666
a(lp4609
tp4610
tp4611
sS'20070201_run1pento_nonoise_refexps.p(1316, 1491)'
p4612
(g4160
g4139
I12
((lp4613
g9
(g13
S'\x9b\xe7y\x9e\xe7y\xae\xbf'
p4614
tp4615
Rp4616
ag9
(g13
S'\x00\xb0\x88\x12\xb0\x88r\xbf'
p4617
tp4618
Rp4619
ag9
(g13
S'\x9b\xe7y\x9e\xe7y\xae\xbf'
p4620
tp4621
Rp4622
a(lp4623
g9
(g13
S'&I\x92$I\x92\xc4?'
p4624
tp4625
Rp4626
ag9
(g13
S'\x00\xb0\x88\x12\xb0\x88r\xbf'
p4627
tp4628
Rp4629
ag9
(g13
S'&I\x92$I\x92\xc4?'
p4630
tp4631
Rp4632
a(lp4633
g9
(g13
S'&I\x92$I\x92\xc4?'
p4634
tp4635
Rp4636
ag9
(g13
S'&I\x92$I\x92\xc4?'
p4637
tp4638
Rp4639
atp4640
((lp4641
F0.0
aF0.0
aF0.0
a(lp4642
F0.0
aF0.0
aF0.0
a(lp4643
F0.0
aF0.0
atp4644
((lp4645
F0.3333333333333333
aF0.5
aF0.3333333333333333
a(lp4646
F0.5
aF0.5
aF0.5
a(lp4647
F0.0
aF0.0
atp4648
tp4649
sS'20061123_pento_nonoise_refexps.p(187, 397)'
p4650
(g4160
g4139
I43
((lp4651
g9
(g13
S'\xcf\xef\x9d^^\x01\xd1?'
p4652
tp4653
Rp4654
ag9
(g13
S'\xcf\xef\x9d^^\x01\xd1?'
p4655
tp4656
Rp4657
ag9
(g13
S'\xcf\xef\x9d^^\x01\xd1?'
p4658
tp4659
Rp4660
ag9
(g13
S'242\x12\xc2\xbc\xd0?'
p4661
tp4662
Rp4663
a(lp4664
g9
(g13
S'\xcf\xef\x9d^^\x01\xd1?'
p4665
tp4666
Rp4667
ag9
(g13
S'\xcf\xef\x9d^^\x01\xd1?'
p4668
tp4669
Rp4670
ag9
(g13
S'\xcf\xef\x9d^^\x01\xd1?'
p4671
tp4672
Rp4673
ag9
(g13
S'\x9b\x83\xa8*^\xf1\xd2?'
p4674
tp4675
Rp4676
a(lp4677
g9
(g13
S'\x9b\x83\xa8*^\xf1\xd2?'
p4678
tp4679
Rp4680
atp4681
((lp4682
F0.5
aF0.5
aF0.5
aF0.6
a(lp4683
F0.5
aF0.5
aF0.5
aF0.5
a(lp4684
F1.0
atp4685
((lp4686
F0.625
aF0.625
aF0.625
aF0.8
a(lp4687
F0.625
aF0.625
aF0.625
aF0.625
a(lp4688
F1.0
atp4689
tp4690
sS'20070201_run4pento_nonoise_refexps.p(1300, 1422)'
p4691
(g4160
g4139
I23
((lp4692
g9
(g13
S'\x00\x00\x00\x00\x00\x00\x00\x00'
p4693
tp4694
Rp4695
ag9
(g13
S'\x00\x00\x00\x00\x00\x00\x00\x00'
p4696
tp4697
Rp4698
ag9
(g13
S'\x00\x00\x00\x00\x00\x00\x00\x00'
p4699
tp4700
Rp4701
ag9
(g13
S'\x00\x00\x00\x00\x00\x00\x00\x00'
p4702
tp4703
Rp4704
a(lp4705
g9
(g13
S'\x00\x00\x00\x00\x00\x00\x00\x00'
p4706
tp4707
Rp4708
ag9
(g13
S'\x00\x00\x00\x00\x00\x00\x00\x00'
p4709
tp4710
Rp4711
ag9
(g13
S'\x00\x00\x00\x00\x00\x00\x00\x00'
p4712
tp4713
Rp4714
ag9
(g13
S'\x00\x00\x00\x00\x00\x00\x00\x00'
p4715
tp4716
Rp4717
a(lp4718
g9
(g13
S'\x00\x00\x00\x00\x00\x00\x00\x00'
p4719
tp4720
Rp4721
ag9
(g13
S'\x00\x00\x00\x00\x00\x00\x00\x00'
p4722
tp4723
Rp4724
atp4725
((lp4726
(lp4727
(lp4728
tp4729
((lp4730
F0.6666666666666666
aF0.8333333333333334
aF0.8333333333333334
aF0.6666666666666666
a(lp4731
F0.6666666666666666
aF0.6666666666666666
aF0.6666666666666666
aF0.6666666666666666
a(lp4732
F1.0
aF1.0
atp4733
tp4734
sS'20061123_pento_nonoise_refexps.p(3329, 3710)'
p4735
(g4160
g4139
I47
((lp4736
g9
(g13
S'\x00\x00\x00\x00\x00\x00\x00\x00'
p4737
tp4738
Rp4739
ag9
(g13
S'\xfb\x05Y\xe8^n\xb6?'
p4740
tp4741
Rp4742
ag9
(g13
S'ffffff\xd6\xbf'
p4743
tp4744
Rp4745
ag9
(g13
S'\x9a\x99\x99\x99\x99\x99\xc9?'
p4746
tp4747
Rp4748
ag9
(g13
S'@\xa7\xb4L\xd4h\xcd?'
p4749
tp4750
Rp4751
ag9
(g13
S'\x04uc\xab\xf6}\xb2\xbf'
p4752
tp4753
Rp4754
a(lp4755
g9
(g13
S'\x00\x00\x00\x00\x00\x00\x00\x00'
p4756
tp4757
Rp4758
ag9
(g13
S'1k\x16\xecn\xad\xc5?'
p4759
tp4760
Rp4761
ag9
(g13
S'ffffff\xd6\xbf'
p4762
tp4763
Rp4764
ag9
(g13
S'\x9a\x99\x99\x99\x99\x99\xc9?'
p4765
tp4766
Rp4767
ag9
(g13
S'q\x8b|\xde>J\xd5?'
p4768
tp4769
Rp4770
ag9
(g13
S'\xef\xf5D\xab\x12e\xaf\xbf'
p4771
tp4772
Rp4773
a(lp4774
g9
(g13
S'1k\x16\xecn\xad\xc5?'
p4775
tp4776
Rp4777
ag9
(g13
S'q\x8b|\xde>J\xd5?'
p4778
tp4779
Rp4780
ag9
(g13
S'\xef\xf5D\xab\x12e\xaf\xbf'
p4781
tp4782
Rp4783
atp4784
((lp4785
F1.0
aF0.45454545454545453
aF1.0
aF1.0
aF0.4
aF0.65625
a(lp4786
F1.0
aF0.3076923076923077
aF1.0
aF1.0
aF0.0
aF0.6086956521739131
a(lp4787
F0.6666666666666666
aF0.6666666666666666
aF0.7777777777777778
atp4788
((lp4789
F1.0
aF0.8235294117647058
aF1.0
aF1.0
aF0.4
aF0.8666666666666667
a(lp4790
F1.0
aF0.7692307692307693
aF1.0
aF1.0
aF0.0
aF0.8181818181818182
a(lp4791
F1.0
aF0.5
aF1.0
atp4792
tp4793
sS'20061123_pento_nonoise_refexps.p(1502, 1545)'
p4794
(S'not_moved'
p4795
S'reconfirm'
p4796
I5
((lp4797
g9
(g13
S'8Q\x1b\xd4\xbd\xcd\xdd?'
p4798
tp4799
Rp4800
a(lp4801
g9
(g13
S'x\x85Wx\x85W\xd8?'
p4802
tp4803
Rp4804
a(lp4805
g9
(g13
S'x\x85Wx\x85W\xd8?'
p4806
tp4807
Rp4808
atp4809
((lp4810
F0.5714285714285714
a(lp4811
F0.5
a(lp4812
F0.6
atp4813
((lp4814
F1.0
a(lp4815
F1.0
a(lp4816
F1.0
atp4817
tp4818
sS'20070201_run1pento_nonoise_refexps.p(2564, 2592)'
p4819
(g4160
g4139
I7
((lp4820
g9
(g13
S'\x11\x11\x11\x11\x11\x11\xb1?'
p4821
tp4822
Rp4823
ag9
(g13
S'\x9a\x99\x99\x99\x99\x99\xb9\xbf'
p4824
tp4825
Rp4826
a(lp4827
g9
(g13
S'\x9a\x99\x99\x99\x99\x99\xd9?'
p4828
tp4829
Rp4830
ag9
(g13
S'\x9a\x99\x99\x99\x99\x99\xb9\xbf'
p4831
tp4832
Rp4833
a(lp4834
g9
(g13
S'\x9a\x99\x99\x99\x99\x99\xd9?'
p4835
tp4836
Rp4837
atp4838
((lp4839
F0.3333333333333333
aF0.3333333333333333
a(lp4840
F0.3333333333333333
aF0.3333333333333333
a(lp4841
tp4842
((lp4843
F0.3333333333333333
aF0.5
a(lp4844
F0.5
aF0.5
a(lp4845
F0.0
atp4846
tp4847
sS'20061123_pento_nonoise_refexps.p(895, 1014)'
p4848
(g4160
g4139
I38
((lp4849
g9
(g13
S'BW\x8b\x12\x9d\xa2\xc3?'
p4850
tp4851
Rp4852
ag9
(g13
S'\x1e\xa6\xf3\xe7\x9b\x97\xc4?'
p4853
tp4854
Rp4855
ag9
(g13
S'BW\x8b\x12\x9d\xa2\xc3?'
p4856
tp4857
Rp4858
ag9
(g13
S'BW\x8b\x12\x9d\xa2\xc3?'
p4859
tp4860
Rp4861
a(lp4862
g9
(g13
S'BW\x8b\x12\x9d\xa2\xc3?'
p4863
tp4864
Rp4865
ag9
(g13
S'\\\xb0\x05[\xb0\x05\xcb?'
p4866
tp4867
Rp4868
ag9
(g13
S'BW\x8b\x12\x9d\xa2\xc3?'
p4869
tp4870
Rp4871
ag9
(g13
S'BW\x8b\x12\x9d\xa2\xc3?'
p4872
tp4873
Rp4874
a(lp4875
g9
(g13
S'\\\xb0\x05[\xb0\x05\xcb?'
p4876
tp4877
Rp4878
atp4879
((lp4880
F0.0
aF0.0
aF0.0
aF0.0
a(lp4881
F0.0
aF0.0
aF0.0
aF0.0
a(lp4882
tp4883
((lp4884
F0.875
aF0.9
aF0.875
aF0.875
a(lp4885
F0.875
aF0.875
aF0.875
aF0.875
a(lp4886
F1.0
atp4887
tp4888
sS'20070201_run4pento_nonoise_refexps.p(894, 1001)'
p4889
(g4160
g4139
I17
((lp4890
g9
(g13
S'\x88\x88\x88\x88\x88\x88\xd4?'
p4891
tp4892
Rp4893
ag9
(g13
S'\x9a\x99\x99\x99\x99\x99\xc9\xbf'
p4894
tp4895
Rp4896
ag9
(g13
S'\x00\x00\x00\x00\x00\x00\x00\x00'
p4897
tp4898
Rp4899
ag9
(g13
S'R.\xe5R.\xe5\xb2?'
p4900
tp4901
Rp4902
a(lp4903
g9
(g13
S'\xcd\xcc\xcc\xcc\xcc\xcc\xcc?'
p4904
tp4905
Rp4906
ag9
(g13
S'\x9a\x99\x99\x99\x99\x99\xc9\xbf'
p4907
tp4908
Rp4909
ag9
(g13
S'R.\xe5R.\xe5\xb2?'
p4910
tp4911
Rp4912
a(lp4913
g9
(g13
S'\xcd\xcc\xcc\xcc\xcc\xcc\xcc?'
p4914
tp4915
Rp4916
ag9
(g13
S'\x00\x00\x00\x00\x00\x00\x00\x00'
p4917
tp4918
Rp4919
atp4920
((lp4921
F0.25
aF0.42857142857142855
a(lp4922
F0.25
aF0.42857142857142855
a(lp4923
tp4924
((lp4925
F0.75
aF1.0
aF1.0
aF1.0
a(lp4926
F0.5
aF1.0
aF1.0
a(lp4927
F1.0
aF1.0
atp4928
tp4929
sS'20061123_pento_nonoise_refexps.p(756, 825)'
p4930
(S'not_moved'
p4931
g4796
I5
((lp4932
g9
(g13
S'\x00\x00\x00\x00\x00\x00\xe0?'
p4933
tp4934
Rp4935
ag9
(g13
S'\xaa\xaa\xaa\xaa\xaa\xaa\xda?'
p4936
tp4937
Rp4938
a(lp4939
g9
(g13
S'UUUUUU\xd5?'
p4940
tp4941
Rp4942
a(lp4943
g9
(g13
S'\x00\x00\x00\x00\x00\x00\xe0?'
p4944
tp4945
Rp4946
ag9
(g13
S'UUUUUU\xd5?'
p4947
tp4948
Rp4949
atp4950
((lp4951
(lp4952
(lp4953
tp4954
((lp4955
F0.0
aF0.5
a(lp4956
F0.0
a(lp4957
F0.0
aF1.0
atp4958
tp4959
sS'20070201_run3pento_nonoise_refexps.p(854, 922)'
p4960
(g4160
g4139
I4
((lp4961
g9
(g13
S'UUUUUU\xd5?'
p4962
tp4963
Rp4964
a(lp4965
g9
(g13
S'UUUUUU\xd5?'
p4966
tp4967
Rp4968
a(lp4969
g9
(g13
S'UUUUUU\xd5?'
p4970
tp4971
Rp4972
atp4973
((lp4974
(lp4975
(lp4976
tp4977
((lp4978
F0.0
a(lp4979
(lp4980
F0.0
atp4981
tp4982
sS'20070201_run4pento_nonoise_refexps.p(1739, 1799)'
p4983
(g4160
g4139
I7
((lp4984
g9
(g13
S'\x00\x00\x00\x00\x00\x00\x00\x00'
p4985
tp4986
Rp4987
ag9
(g13
S'\x00\x00\x00\x00\x00\x00\x00\x00'
p4988
tp4989
Rp4990
a(lp4991
g9
(g13
S'\x00\x00\x00\x00\x00\x00\x00\x00'
p4992
tp4993
Rp4994
ag9
(g13
S'\x00\x00\x00\x00\x00\x00\x00\x00'
p4995
tp4996
Rp4997
a(lp4998
g9
(g13
S'\x00\x00\x00\x00\x00\x00\x00\x00'
p4999
tp5000
Rp5001
ag9
(g13
S'\x00\x00\x00\x00\x00\x00\x00\x00'
p5002
tp5003
Rp5004
atp5005
((lp5006
(lp5007
(lp5008
tp5009
((lp5010
F1.0
aF0.6666666666666666
a(lp5011
F1.0
a(lp5012
F0.0
aF0.5
atp5013
tp5014
sS'20070201_run3pento_nonoise_refexps.p(1094, 1153)'
p5015
(g4160
g4139
I16
((lp5016
g9
(g13
S'\x92$I\x92$I\xe2\xbf'
p5017
tp5018
Rp5019
ag9
(g13
S'F\x17]t\xd1E\xb7?'
p5020
tp5021
Rp5022
ag9
(g13
S'\xcb\xf01\xbe\xf2{\xb9?'
p5023
tp5024
Rp5025
a(lp5026
g9
(g13
S'\x92$I\x92$I\xe2\xbf'
p5027
tp5028
Rp5029
ag9
(g13
S'F\x17]t\xd1E\xb7?'
p5030
tp5031
Rp5032
ag9
(g13
S'\xcb\xf01\xbe\xf2{\xb9?'
p5033
tp5034
Rp5035
a(lp5036
g9
(g13
S'\x92$I\x92$I\xe2\xbf'
p5037
tp5038
Rp5039
atp5040
((lp5041
F0.2
aF0.3333333333333333
aF0.5555555555555556
a(lp5042
F0.2
aF0.3333333333333333
aF0.5555555555555556
a(lp5043
tp5044
((lp5045
F1.0
aF1.0
aF0.7777777777777778
a(lp5046
F1.0
aF1.0
aF0.7777777777777778
a(lp5047
tp5048
tp5049
sS'20070201_run4pento_nonoise_refexps.p(1800, 1816)'
p5050
(g4160
g4139
I5
((lp5051
g9
(g13
S'UUUUUU\xd5\xbf'
p5052
tp5053
Rp5054
a(lp5055
(lp5056
g9
(g13
S'UUUUUU\xd5\xbf'
p5057
tp5058
Rp5059
atp5060
((lp5061
F0.0
a(lp5062
(lp5063
F0.0
atp5064
((lp5065
F0.0
a(lp5066
(lp5067
F0.0
atp5068
tp5069
sS'20070201_run1pento_nonoise_refexps.p(1492, 1559)'
p5070
(g4160
g4139
I11
((lp5071
g9
(g13
S'\x8d\xbd=oAM\xcd?'
p5072
tp5073
Rp5074
a(lp5075
g9
(g13
S'E\x8b\xcb\x15\xd1\xe2\xca?'
p5076
tp5077
Rp5078
a(lp5079
g9
(g13
S'E\x8b\xcb\x15\xd1\xe2\xca?'
p5080
tp5081
Rp5082
atp5083
((lp5084
(lp5085
(lp5086
tp5087
((lp5088
F0.6666666666666666
a(lp5089
F0.5
a(lp5090
F0.75
atp5091
tp5092
sS'20070201_run4pento_nonoise_refexps.p(1563, 1738)'
p5093
(g4160
g4139
I28
((lp5094
g9
(g13
S'\x0bY\xc8B\x16\xb2\xc0\xbf'
p5095
tp5096
Rp5097
ag9
(g13
S'\x00\x00\x00\x00\x00\x00\x00\x00'
p5098
tp5099
Rp5100
ag9
(g13
S'\x00\x00\x00\x00\x00\x00\xc0?'
p5101
tp5102
Rp5103
ag9
(g13
S'\x00\x00\x00\x00\x00\x00\x00\x00'
p5104
tp5105
Rp5106
ag9
(g13
S'\x92$I\x92$I\xc2\xbf'
p5107
tp5108
Rp5109
ag9
(g13
S'\xefs12\xed>\xb7?'
p5110
tp5111
Rp5112
a(lp5113
g9
(g13
S'\x0bY\xc8B\x16\xb2\xc0\xbf'
p5114
tp5115
Rp5116
ag9
(g13
S'\x00\x00\x00\x00\x00\x00\x00\x00'
p5117
tp5118
Rp5119
ag9
(g13
S'\x00\x00\x00\x00\x00\x00\xc0?'
p5120
tp5121
Rp5122
ag9
(g13
S'\x00\x00\x00\x00\x00\x00\x00\x00'
p5123
tp5124
Rp5125
ag9
(g13
S']\x90qA\xc6\x05\xb9?'
p5126
tp5127
Rp5128
a(lp5129
g9
(g13
S'\x00\x00\x00\x00\x00\x00\x00\x00'
p5130
tp5131
Rp5132
ag9
(g13
S'\x00\x00\x00\x00\x00\x00\xc0?'
p5133
tp5134
Rp5135
ag9
(g13
S'\x92$I\x92$I\xc2\xbf'
p5136
tp5137
Rp5138
ag9
(g13
S']\x90qA\xc6\x05\xb9?'
p5139
tp5140
Rp5141
atp5142
((lp5143
F0.5
aF1.0
aF0.25
aF0.5
aF0.6666666666666666
a(lp5144
F0.5
aF1.0
aF0.5
a(lp5145
F0.25
aF0.5
aF1.0
atp5146
((lp5147
F1.0
aF0.9166666666666666
aF1.0
aF1.0
aF1.0
aF0.6666666666666666
a(lp5148
F1.0
aF0.9
aF1.0
aF0.5
a(lp5149
F1.0
aF1.0
aF1.0
aF1.0
atp5150
tp5151
sS'20070201_run3pento_nonoise_refexps.p(530, 853)'
p5152
(g4160
g4139
I14
((lp5153
g9
(g13
S'\x14EQ\x14EQ\xe4?'
p5154
tp5155
Rp5156
ag9
(g13
S'UUUUUU\xd5\xbf'
p5157
tp5158
Rp5159
ag9
(g13
S'\x12\x11\x11\x11\x11\x11\xc1?'
p5160
tp5161
Rp5162
a(lp5163
g9
(g13
S'\x14EQ\x14EQ\xe4?'
p5164
tp5165
Rp5166
ag9
(g13
S'UUUUUU\xd5\xbf'
p5167
tp5168
Rp5169
ag9
(g13
S'\x12\x11\x11\x11\x11\x11\xc1?'
p5170
tp5171
Rp5172
a(lp5173
g9
(g13
S'\x14EQ\x14EQ\xe4?'
p5174
tp5175
Rp5176
ag9
(g13
S'UUUUUU\xd5\xbf'
p5177
tp5178
Rp5179
ag9
(g13
S'\x12\x11\x11\x11\x11\x11\xc1?'
p5180
tp5181
Rp5182
atp5183
((lp5184
F0.0
aF0.2222222222222222
a(lp5185
(lp5186
F0.0
aF0.2222222222222222
atp5187
((lp5188
F0.5
aF0.0
aF0.5
a(lp5189
(lp5190
F0.5
aF0.0
aF0.5
atp5191
tp5192
sS'20061123_pento_nonoise_refexps.p(1546, 2082)'
p5193
(g4160
g4139
I64
((lp5194
g9
(g13
S'\xab2\x01d\x9e)s?'
p5195
tp5196
Rp5197
ag9
(g13
S'\x18\xfb&\xe5\xc7\xf3\xa1\xbf'
p5198
tp5199
Rp5200
ag9
(g13
S'\xfe\xe8\x18"#*\xb3?'
p5201
tp5202
Rp5203
ag9
(g13
S'Y\x8d\xd5X\x8d\xd5\xd8?'
p5204
tp5205
Rp5206
ag9
(g13
S'\x99T\x9eW\xe9\xb4\xd5?'
p5207
tp5208
Rp5209
ag9
(g13
S'\x00\x00\x00\x00\x00\x00\xc0\xbf'
p5210
tp5211
Rp5212
ag9
(g13
S'\xc6\x92_,\xf9\xc5\xb2?'
p5213
tp5214
Rp5215
a(lp5216
g9
(g13
S'\xfd\x96\xf7\x16\x9b\xaa\xc0?'
p5217
tp5218
Rp5219
ag9
(g13
S'\xf3\xc2i\x0c\x9eN\xc1?'
p5220
tp5221
Rp5222
ag9
(g13
S'\x00\x00\x00\x00\x00\x00\x00\x00'
p5223
tp5224
Rp5225
ag9
(g13
S'wwwwww\xc7?'
p5226
tp5227
Rp5228
a(lp5229
g9
(g13
S'\xab2\x01d\x9e)s?'
p5230
tp5231
Rp5232
ag9
(g13
S'\x18\xfb&\xe5\xc7\xf3\xa1\xbf'
p5233
tp5234
Rp5235
ag9
(g13
S'\xfd\x96\xf7\x16\x9b\xaa\xc0?'
p5236
tp5237
Rp5238
ag9
(g13
S'Y\x8d\xd5X\x8d\xd5\xd8?'
p5239
tp5240
Rp5241
ag9
(g13
S'\xf3\xc2i\x0c\x9eN\xc1?'
p5242
tp5243
Rp5244
ag9
(g13
S'\x00\x00\x00\x00\x00\x00\x00\x00'
p5245
tp5246
Rp5247
ag9
(g13
S'wwwwww\xc7?'
p5248
tp5249
Rp5250
atp5251
((lp5252
F0.5555555555555556
aF0.30434782608695654
aF1.0
aF0.3333333333333333
aF0.5
aF0.5
aF1.0
a(lp5253
F1.0
aF0.3333333333333333
aF1.0
aF1.0
a(lp5254
F0.5555555555555556
aF0.30434782608695654
aF0.3333333333333333
aF1.0
aF0.0
aF1.0
atp5255
((lp5256
F0.6666666666666666
aF0.75
aF0.95
aF0.8
aF0.8666666666666667
aF1.0
aF1.0
a(lp5257
F1.25
aF1.0
aF1.0
aF1.0
a(lp5258
F0.6666666666666666
aF0.75
aF0.875
aF0.8
aF0.7777777777777778
aF1.0
aF1.0
atp5259
tp5260
sS'20070201_run4pento_nonoise_refexps.p(1423, 1513)'
p5261
(g4160
g4139
I23
((lp5262
g9
(g13
S'8\x8e\xe38\x8e\xe3\xc8?'
p5263
tp5264
Rp5265
ag9
(g13
S';\xb1\x13;\xb1\x13\xeb?'
p5266
tp5267
Rp5268
ag9
(g13
S'\x10\x11\x11\x11\x11\x11\xc9?'
p5269
tp5270
Rp5271
ag9
(g13
S'8\x8e\xe38\x8e\xe3\xc8?'
p5272
tp5273
Rp5274
ag9
(g13
S'\x10\x11\x11\x11\x11\x11\xc9?'
p5275
tp5276
Rp5277
a(lp5278
g9
(g13
S'8\x8e\xe38\x8e\xe3\xc8?'
p5279
tp5280
Rp5281
ag9
(g13
S';\xb1\x13;\xb1\x13\xeb?'
p5282
tp5283
Rp5284
ag9
(g13
S'333333\xc3?'
p5285
tp5286
Rp5287
ag9
(g13
S'8\x8e\xe38\x8e\xe3\xc8?'
p5288
tp5289
Rp5290
ag9
(g13
S'333333\xc3?'
p5291
tp5292
Rp5293
a(lp5294
g9
(g13
S'333333\xc3?'
p5295
tp5296
Rp5297
ag9
(g13
S'333333\xc3?'
p5298
tp5299
Rp5300
atp5301
((lp5302
F0.0
aF0.0
aF0.0
aF0.0
a(lp5303
F0.0
aF0.0
aF0.0
aF0.0
a(lp5304
tp5305
((lp5306
F0.6666666666666666
aF0.0
aF0.5
aF0.6666666666666666
aF0.5
a(lp5307
F0.6666666666666666
aF0.0
aF0.6666666666666666
aF0.6666666666666666
aF0.6666666666666666
a(lp5308
F0.0
aF0.0
atp5309
tp5310
sS'20070201_run1pento_nonoise_refexps.p(658, 1315)'
p5311
(g4160
g4139
I70
((lp5312
g9
(g13
S'8\x93\xe1\xa2n\x98\x80\xbf'
p5313
tp5314
Rp5315
ag9
(g13
S'\x00\x00\x00\x00\x00\x00\xe0\xbf'
p5316
tp5317
Rp5318
ag9
(g13
S'\xd0\x9a\xe0\xb4\xbf\xed\x8d?'
p5319
tp5320
Rp5321
ag9
(g13
S'\xa7n\xea\xa6n\xea\xc6?'
p5322
tp5323
Rp5324
ag9
(g13
S'm\xbe#\xda\xee5\xa8\xbf'
p5325
tp5326
Rp5327
ag9
(g13
S'\x0b\x993\xc5\x81\xd6\xc0?'
p5328
tp5329
Rp5330
ag9
(g13
S'F\x17]t\xd1E\xe7?'
p5331
tp5332
Rp5333
ag9
(g13
S'\xf5\xbc\xd0\xe0}-\xac\xbf'
p5334
tp5335
Rp5336
a(lp5337
g9
(g13
S'\x83\x97S\xf0r\n\xde\xbf'
p5338
tp5339
Rp5340
ag9
(g13
S'\x00\x00\x00\x00\x00\x00\xe0\xbf'
p5341
tp5342
Rp5343
ag9
(g13
S"\xa9\xe5X'\xa0\xd0\xae?"
p5344
tp5345
Rp5346
ag9
(g13
S'\x15O\xf1\x14O\xf1\xc4?'
p5347
tp5348
Rp5349
ag9
(g13
S'\x1f\x93^zV\xa3\xb3\xbf'
p5350
tp5351
Rp5352
ag9
(g13
S'\r\x1eq\xb9\x9b4\xc4?'
p5353
tp5354
Rp5355
ag9
(g13
S'F\x17]t\xd1E\xe7?'
p5356
tp5357
Rp5358
ag9
(g13
S'#\x1e\x1e\x1e\x1e\x1e\xae\xbf'
p5359
tp5360
Rp5361
a(lp5362
g9
(g13
S'\x83\x97S\xf0r\n\xde\xbf'
p5363
tp5364
Rp5365
ag9
(g13
S"\xa9\xe5X'\xa0\xd0\xae?"
p5366
tp5367
Rp5368
ag9
(g13
S'\x15O\xf1\x14O\xf1\xc4?'
p5369
tp5370
Rp5371
ag9
(g13
S'\x1f\x93^zV\xa3\xb3\xbf'
p5372
tp5373
Rp5374
ag9
(g13
S'\r\x1eq\xb9\x9b4\xc4?'
p5375
tp5376
Rp5377
ag9
(g13
S'#\x1e\x1e\x1e\x1e\x1e\xae\xbf'
p5378
tp5379
Rp5380
atp5381
((lp5382
F0.5
aF0.0
aF0.8095238095238095
aF0.5714285714285714
aF0.8181818181818182
aF0.8
aF1.0
aF0.2
a(lp5383
F0.8
aF0.0
aF0.8666666666666667
aF0.5
aF0.9
aF1.0
aF1.0
aF0.3333333333333333
a(lp5384
F0.0
aF0.6666666666666666
aF0.6666666666666666
aF0.0
aF0.75
aF0.0
atp5385
((lp5386
F1.0
aF1.0
aF0.75
aF0.8333333333333334
aF0.92
aF0.6666666666666666
aF1.0
aF0.6666666666666666
a(lp5387
F1.0
aF1.0
aF0.6666666666666666
aF1.0
aF0.8666666666666667
aF1.0
aF1.0
aF1.0
a(lp5388
F1.0
aF1.0
aF0.6666666666666666
aF1.0
aF0.6
aF0.0
atp5389
tp5390
sS'20070201_run3pento_nonoise_refexps.p(923, 997)'
p5391
(g4160
g4139
I21
((lp5392
g9
(g13
S'ft\x18\xcd\xe8\xe9b?'
p5393
tp5394
Rp5395
ag9
(g13
S'\x14EQ\x14EQ\x94\xbf'
p5396
tp5397
Rp5398
ag9
(g13
S'\x14EQ\x14EQ\x94\xbf'
p5399
tp5400
Rp5401
ag9
(g13
S'8\x95\xa1H\xaa\x82\xa4\xbf'
p5402
tp5403
Rp5404
a(lp5405
g9
(g13
S'D\x17]t\xd1E\xb7?'
p5406
tp5407
Rp5408
ag9
(g13
S'\x14EQ\x14EQ\x94\xbf'
p5409
tp5410
Rp5411
ag9
(g13
S'\x14EQ\x14EQ\x94\xbf'
p5412
tp5413
Rp5414
ag9
(g13
S'8\x95\xa1H\xaa\x82\xa4\xbf'
p5415
tp5416
Rp5417
a(lp5418
g9
(g13
S'D\x17]t\xd1E\xb7?'
p5419
tp5420
Rp5421
atp5422
((lp5423
F0.5
aF0.5
aF0.5
aF0.0
a(lp5424
F0.5
aF0.5
aF0.5
aF0.0
a(lp5425
tp5426
((lp5427
F0.8
aF0.75
aF0.75
aF0.75
a(lp5428
F0.75
aF0.75
aF0.75
aF0.75
a(lp5429
F1.0
atp5430
tp5431
sS'20061123_pento_nonoise_refexps.p(3167, 3328)'
p5432
(g4160
g4139
I22
((lp5433
g9
(g13
S'N\x90\xabE\xfaO\xd8?'
p5434
tp5435
Rp5436
ag9
(g13
S'\x01\xcf\xa7\xc7\xcd\xd8\xbf?'
p5437
tp5438
Rp5439
ag9
(g13
S'N\x90\xabE\xfaO\xd8?'
p5440
tp5441
Rp5442
ag9
(g13
S'\x9a\x99\x99\x99\x99\x99\xc9\xbf'
p5443
tp5444
Rp5445
a(lp5446
g9
(g13
S'\xb8\x9b\x92\xcdI\xda\xde?'
p5447
tp5448
Rp5449
ag9
(g13
S'\x01\xcf\xa7\xc7\xcd\xd8\xbf?'
p5450
tp5451
Rp5452
ag9
(g13
S'\xb8\x9b\x92\xcdI\xda\xde?'
p5453
tp5454
Rp5455
ag9
(g13
S'\x9a\x99\x99\x99\x99\x99\xc9\xbf'
p5456
tp5457
Rp5458
a(lp5459
g9
(g13
S'\xb8\x9b\x92\xcdI\xda\xde?'
p5460
tp5461
Rp5462
ag9
(g13
S'\xb8\x9b\x92\xcdI\xda\xde?'
p5463
tp5464
Rp5465
atp5466
((lp5467
F0.6666666666666666
aF0.6
aF0.6666666666666666
aF0.5
a(lp5468
F0.6
aF0.6
aF0.6
aF0.5
a(lp5469
F0.75
aF0.75
atp5470
((lp5471
F0.7142857142857143
aF1.0
aF0.7142857142857143
aF1.0
a(lp5472
F1.0
aF1.0
aF1.0
aF1.0
a(lp5473
F0.6
aF0.6
atp5474
tp5475
sS'20070201_run1pento_nonoise_refexps.p(2115, 2406)'
p5476
(g4160
g4139
I21
((lp5477
g9
(g13
S',O\xd3\xda\x94\xa9\xb8?'
p5478
tp5479
Rp5480
ag9
(g13
S'`\x0b\xb6`\x0b\xb6\xe0?'
p5481
tp5482
Rp5483
ag9
(g13
S',O\xd3\xda\x94\xa9\xb8?'
p5484
tp5485
Rp5486
ag9
(g13
S'3\xea\x8c\x1c8\xfc\xc6\xbf'
p5487
tp5488
Rp5489
a(lp5490
g9
(g13
S'[p\xe1d\xd0h\xb4?'
p5491
tp5492
Rp5493
ag9
(g13
S'\x9a\x99\x99\x99\x99\x99\xd9?'
p5494
tp5495
Rp5496
ag9
(g13
S'[p\xe1d\xd0h\xb4?'
p5497
tp5498
Rp5499
ag9
(g13
S'\x08\x1b\x8f\xe6\x0f6\xce\xbf'
p5500
tp5501
Rp5502
a(lp5503
g9
(g13
S'[p\xe1d\xd0h\xb4?'
p5504
tp5505
Rp5506
ag9
(g13
S'\x9a\x99\x99\x99\x99\x99\xd9?'
p5507
tp5508
Rp5509
ag9
(g13
S'[p\xe1d\xd0h\xb4?'
p5510
tp5511
Rp5512
ag9
(g13
S'\x08\x1b\x8f\xe6\x0f6\xce\xbf'
p5513
tp5514
Rp5515
atp5516
((lp5517
F0.2727272727272727
aF0.2727272727272727
aF0.25
a(lp5518
F0.2
aF0.2
aF0.3333333333333333
a(lp5519
F1.0
aF1.0
aF0.0
atp5520
((lp5521
F0.6
aF0.6666666666666666
aF0.6
aF1.0
a(lp5522
F0.5
aF1.0
aF0.5
aF1.0
a(lp5523
F1.0
aF0.5
aF1.0
aF1.0
atp5524
tp5525
sS'20070201_run1pento_nonoise_refexps.p(596, 657)'
p5526
(S'not_moved'
p5527
S'on_hold'
p5528
I8
((lp5529
g9
(g13
S'\x80;\xb0\xe4\xce\xfd\xba?'
p5530
tp5531
Rp5532
a(lp5533
g9
(g13
S'\x9d\xb7\x0e\x0c\x10\n\xc3?'
p5534
tp5535
Rp5536
a(lp5537
g9
(g13
S'\x9d\xb7\x0e\x0c\x10\n\xc3?'
p5538
tp5539
Rp5540
atp5541
((lp5542
F0.3333333333333333
a(lp5543
F0.2
a(lp5544
F1.0
atp5545
((lp5546
F0.6666666666666666
a(lp5547
F0.6
a(lp5548
F1.0
atp5549
tp5550
sS'20070201_run1pento_nonoise_refexps.p(2543, 2563)'
p5551
(g4160
g4139
I4
((lp5552
g9
(g13
S'UUUUUU\xd5\xbf'
p5553
tp5554
Rp5555
ag9
(g13
S'UUUUUU\xd5\xbf'
p5556
tp5557
Rp5558
a(lp5559
g9
(g13
S'UUUUUU\xd5\xbf'
p5560
tp5561
Rp5562
ag9
(g13
S'UUUUUU\xd5\xbf'
p5563
tp5564
Rp5565
a(lp5566
g9
(g13
S'UUUUUU\xd5\xbf'
p5567
tp5568
Rp5569
ag9
(g13
S'UUUUUU\xd5\xbf'
p5570
tp5571
Rp5572
atp5573
((lp5574
(lp5575
(lp5576
tp5577
((lp5578
F0.0
aF0.0
a(lp5579
(lp5580
F0.0
aF0.0
atp5581
tp5582
sS'20061123_pento_nonoise_refexps.p(3711, 3753)'
p5583
(g4160
g4139
I10
((lp5584
g9
(g13
S'\x00\x00\x00\x00\x00\x00\x00\x00'
p5585
tp5586
Rp5587
ag9
(g13
S'\x9a\x99\x99\x99\x99\x99\xc9?'
p5588
tp5589
Rp5590
ag9
(g13
S'\xc7q\x1c\xc7q\x1c\xd7?'
p5591
tp5592
Rp5593
a(lp5594
g9
(g13
S'\x00\x00\x00\x00\x00\x00\x00\x00'
p5595
tp5596
Rp5597
ag9
(g13
S'\x9a\x99\x99\x99\x99\x99\xc9?'
p5598
tp5599
Rp5600
ag9
(g13
S'\x00\x00\x00\x00\x00\x00\xd0?'
p5601
tp5602
Rp5603
a(lp5604
g9
(g13
S'\x00\x00\x00\x00\x00\x00\xd0?'
p5605
tp5606
Rp5607
atp5608
((lp5609
F0.0
aF0.5
a(lp5610
F0.0
aF0.5
a(lp5611
tp5612
((lp5613
F1.0
aF1.0
aF0.6666666666666666
a(lp5614
F1.0
aF1.0
aF0.5
a(lp5615
F1.0
atp5616
tp5617
sS'20061123_pento_nonoise_refexps.p(2083, 3007)'
p5618
(g4160
g4139
I105
((lp5619
g9
(g13
S'8\xdee\x9a\xcb\x81\xc0?'
p5620
tp5621
Rp5622
ag9
(g13
S'\x8e\xb3\xc5\x1c\xef\xda\xae?'
p5623
tp5624
Rp5625
ag9
(g13
S'\x90x[\x96Go\xc2?'
p5626
tp5627
Rp5628
ag9
(g13
S'\x90x[\x96Go\xc2?'
p5629
tp5630
Rp5631
ag9
(g13
S'(\xc4Y\xf9\tq\xd6?'
p5632
tp5633
Rp5634
ag9
(g13
S'UUUUUU\xc5?'
p5635
tp5636
Rp5637
ag9
(g13
S')\xaf\xe6w\xe6t\xae?'
p5638
tp5639
Rp5640
ag9
(g13
S'\xed\x08L\xaa\xf2\x99\xb9\xbf'
p5641
tp5642
Rp5643
a(lp5644
g9
(g13
S'8\xdee\x9a\xcb\x81\xc0?'
p5645
tp5646
Rp5647
ag9
(g13
S'3\x8a\xcc\xf3q\xc6\xb7?'
p5648
tp5649
Rp5650
ag9
(g13
S'\xd4c\xcc^\xbf\xd4\xc7?'
p5651
tp5652
Rp5653
ag9
(g13
S'\xd4c\xcc^\xbf\xd4\xc7?'
p5654
tp5655
Rp5656
ag9
(g13
S'UUUUUU\xc5?'
p5657
tp5658
Rp5659
ag9
(g13
S'g\x8d\xef4\xc4\xe4\xbc?'
p5660
tp5661
Rp5662
ag9
(g13
S'\xed\x08L\xaa\xf2\x99\xb9\xbf'
p5663
tp5664
Rp5665
a(lp5666
g9
(g13
S'3\x8a\xcc\xf3q\xc6\xb7?'
p5667
tp5668
Rp5669
ag9
(g13
S'\xd4c\xcc^\xbf\xd4\xc7?'
p5670
tp5671
Rp5672
ag9
(g13
S'\xd4c\xcc^\xbf\xd4\xc7?'
p5673
tp5674
Rp5675
ag9
(g13
S'(\xc4Y\xf9\tq\xd6?'
p5676
tp5677
Rp5678
ag9
(g13
S'UUUUUU\xc5?'
p5679
tp5680
Rp5681
ag9
(g13
S'g\x8d\xef4\xc4\xe4\xbc?'
p5682
tp5683
Rp5684
ag9
(g13
S'\xed\x08L\xaa\xf2\x99\xb9\xbf'
p5685
tp5686
Rp5687
atp5688
((lp5689
F0.5555555555555556
aF0.52
aF0.625
aF0.625
aF1.0
aF0.7380952380952381
aF0.375
a(lp5690
F0.5555555555555556
aF0.5263157894736842
aF0.7777777777777778
aF0.7777777777777778
aF0.6041666666666666
aF0.375
a(lp5691
F0.5
aF0.5333333333333333
aF0.5333333333333333
aF1.0
aF0.9166666666666666
atp5692
((lp5693
F1.0
aF0.9642857142857143
aF0.8461538461538461
aF0.8461538461538461
aF1.0
aF1.0
aF0.9642857142857143
aF0.6
a(lp5694
F1.0
aF0.95
aF1.0
aF1.0
aF0.9333333333333333
aF0.6
a(lp5695
F1.0
aF0.7777777777777778
aF0.7777777777777778
aF1.0
aF1.0
aF1.0
atp5696
tp5697
sS'20061123_pento_nonoise_refexps.p(826, 894)'
p5698
(g4160
g4139
I7
((lp5699
g9
(g13
S'UUUUUU\xd5\xbf'
p5700
tp5701
Rp5702
ag9
(g13
S't\xd1E\x17]t\xd1?'
p5703
tp5704
Rp5705
a(lp5706
g9
(g13
S'UUUUUU\xd5\xbf'
p5707
tp5708
Rp5709
ag9
(g13
S't\xd1E\x17]t\xd1?'
p5710
tp5711
Rp5712
a(lp5713
tp5714
((lp5715
F0.0
aF1.0
a(lp5716
F0.0
aF1.0
a(lp5717
tp5718
((lp5719
F0.0
aF1.0
a(lp5720
F0.0
aF1.0
a(lp5721
tp5722
tp5723
sS'20061123_pento_nonoise_refexps.p(398, 755)'
p5724
(S'not_moved'
p5725
S'on_hold'
p5726
I25
((lp5727
g9
(g13
S'\xdc\xb6m\xdb\xb6m\xd3\xbf'
p5728
tp5729
Rp5730
ag9
(g13
S'\xea\xb6\x00>\x8c\x1b\xd6?'
p5731
tp5732
Rp5733
ag9
(g13
S'\x9e\xd8\x89\x9d\xd8\x89\xcd?'
p5734
tp5735
Rp5736
ag9
(g13
S'\x00\x00\x00\x00\x00\x00\x00\x00'
p5737
tp5738
Rp5739
ag9
(g13
S'\xc4R\x11KE,\xb5?'
p5740
tp5741
Rp5742
ag9
(g13
S'\x00\x00\x00\x00\x00\x00\x00\x00'
p5743
tp5744
Rp5745
a(lp5746
g9
(g13
S'\xdc\xb6m\xdb\xb6m\xd3\xbf'
p5747
tp5748
Rp5749
ag9
(g13
S'\x07\x92\x81 \x19\x08\xd2?'
p5750
tp5751
Rp5752
ag9
(g13
S'\x9e\xd8\x89\x9d\xd8\x89\xcd?'
p5753
tp5754
Rp5755
ag9
(g13
S'\x00\x00\x00\x00\x00\x00\x00\x00'
p5756
tp5757
Rp5758
ag9
(g13
S'\xc4R\x11KE,\xb5?'
p5759
tp5760
Rp5761
ag9
(g13
S'\x00\x00\x00\x00\x00\x00\x00\x00'
p5762
tp5763
Rp5764
a(lp5765
g9
(g13
S'\xdc\xb6m\xdb\xb6m\xd3\xbf'
p5766
tp5767
Rp5768
ag9
(g13
S'\x07\x92\x81 \x19\x08\xd2?'
p5769
tp5770
Rp5771
ag9
(g13
S'\x00\x00\x00\x00\x00\x00\x00\x00'
p5772
tp5773
Rp5774
atp5775
((lp5776
F0.5
aF0.6
aF0.3333333333333333
aF0.5
aF0.0
aF1.0
a(lp5777
F0.5
aF0.6
aF0.3333333333333333
aF0.5
aF0.0
a(lp5778
F1.0
atp5779
((lp5780
F0.0
aF0.9090909090909091
aF1.0
aF1.0
aF0.5
aF1.0
a(lp5781
F0.0
aF0.8333333333333334
aF1.0
aF1.0
aF0.5
a(lp5782
F0.0
aF1.0
aF1.0
atp5783
tp5784
sS'20061123_pento_nonoise_refexps.p(3008, 3166)'
p5785
(g4160
g4139
I25
((lp5786
g9
(g13
S'8\x8e\xe38\x8e\xe3\xc8?'
p5787
tp5788
Rp5789
ag9
(g13
S'8\x8e\xe38\x8e\xe3\xc8?'
p5790
tp5791
Rp5792
ag9
(g13
S'8\x8e\xe38\x8e\xe3\xc8?'
p5793
tp5794
Rp5795
ag9
(g13
S'\xd4A\x1d\xd4A\x1d\xd4?'
p5796
tp5797
Rp5798
ag9
(g13
S'\x83:\xa8\x83:\xa8\xc3?'
p5799
tp5800
Rp5801
a(lp5802
g9
(g13
S'8\x8e\xe38\x8e\xe3\xc8?'
p5803
tp5804
Rp5805
ag9
(g13
S'8\x8e\xe38\x8e\xe3\xc8?'
p5806
tp5807
Rp5808
ag9
(g13
S'8\x8e\xe38\x8e\xe3\xc8?'
p5809
tp5810
Rp5811
ag9
(g13
S'\xd4A\x1d\xd4A\x1d\xd4?'
p5812
tp5813
Rp5814
ag9
(g13
S'6Z\xa35Z\xa3\xc9?'
p5815
tp5816
Rp5817
a(lp5818
g9
(g13
S'\xd4A\x1d\xd4A\x1d\xd4?'
p5819
tp5820
Rp5821
ag9
(g13
S'6Z\xa35Z\xa3\xc9?'
p5822
tp5823
Rp5824
atp5825
((lp5826
F0.0
aF0.0
aF0.0
aF0.0
a(lp5827
F0.0
aF0.0
aF0.0
aF0.0
a(lp5828
tp5829
((lp5830
F0.6666666666666666
aF0.6666666666666666
aF0.6666666666666666
aF1.0
aF0.8571428571428571
a(lp5831
F0.6666666666666666
aF0.6666666666666666
aF0.6666666666666666
aF0.6666666666666666
a(lp5832
F1.0
aF1.0
atp5833
tp5834
sS'20070201_run3pento_nonoise_refexps.p(375, 461)'
p5835
(g4160
g4139
I18
((lp5836
g9
(g13
S'\xcc>b\xbd\x0e\x85\x82?'
p5837
tp5838
Rp5839
ag9
(g13
S'\xcc>b\xbd\x0e\x85\x82?'
p5840
tp5841
Rp5842
a(lp5843
g9
(g13
S'\x92v\x84<f\xf1\x90?'
p5844
tp5845
Rp5846
ag9
(g13
S'\x92v\x84<f\xf1\x90?'
p5847
tp5848
Rp5849
a(lp5850
g9
(g13
S'\x92v\x84<f\xf1\x90?'
p5851
tp5852
Rp5853
ag9
(g13
S'\x92v\x84<f\xf1\x90?'
p5854
tp5855
Rp5856
atp5857
((lp5858
F0.2
aF0.2
a(lp5859
F0.2222222222222222
aF0.2222222222222222
a(lp5860
F0.0
aF0.0
atp5861
((lp5862
F0.75
aF0.75
a(lp5863
F0.7142857142857143
aF0.7142857142857143
a(lp5864
F1.0
aF1.0
atp5865
tp5866
sS'20070201_run4pento_nonoise_refexps.p(23, 287)'
p5867
(g4160
g4139
I39
((lp5868
g9
(g13
S'D\xbf\xb2(s!\xc9\xbf'
p5869
tp5870
Rp5871
ag9
(g13
S'\x0b\xfa\xbe\x8f\x97\x06\xc3\xbf'
p5872
tp5873
Rp5874
ag9
(g13
S'0\x90\xe7A\x9b\x9f\xc5\xbf'
p5875
tp5876
Rp5877
ag9
(g13
S'7\xea\x8d\xa4\xc5D\xc2\xbf'
p5878
tp5879
Rp5880
ag9
(g13
S'\xcf`\x85\xf5\x82\xec\xc0\xbf'
p5881
tp5882
Rp5883
a(lp5884
g9
(g13
S'UUUUUU\xd5\xbf'
p5885
tp5886
Rp5887
ag9
(g13
S'`\x05\xb3\xa4\x1c\x10\xb9\xbf'
p5888
tp5889
Rp5890
ag9
(g13
S'0\x90\xe7A\x9b\x9f\xc5\xbf'
p5891
tp5892
Rp5893
ag9
(g13
S'@\x91\xa5\xea;P\xc5\xbf'
p5894
tp5895
Rp5896
ag9
(g13
S'|\xef\xbd\xf7\xde{\xd7?'
p5897
tp5898
Rp5899
a(lp5900
g9
(g13
S'UUUUUU\xd5\xbf'
p5901
tp5902
Rp5903
ag9
(g13
S'`\x05\xb3\xa4\x1c\x10\xb9\xbf'
p5904
tp5905
Rp5906
ag9
(g13
S'@\x91\xa5\xea;P\xc5\xbf'
p5907
tp5908
Rp5909
ag9
(g13
S'|\xef\xbd\xf7\xde{\xd7?'
p5910
tp5911
Rp5912
atp5913
((lp5914
F0.3076923076923077
aF0.2
aF0.3333333333333333
aF0.45454545454545453
aF0.3333333333333333
a(lp5915
F0.3333333333333333
aF0.3333333333333333
aF0.3333333333333333
aF0.45454545454545453
aF0.3333333333333333
a(lp5916
F0.25
aF0.0
atp5917
((lp5918
F0.6666666666666666
aF0.7142857142857143
aF0.8
aF0.8571428571428571
aF0.75
a(lp5919
F0.8
aF0.8
aF0.8
aF1.0
aF0.8
a(lp5920
F0.0
aF0.5
aF0.0
aF0.6666666666666666
atp5921
tp5922
sS'20070201_run3pento_nonoise_refexps.p(462, 529)'
p5923
(g4160
g4139
I14
((lp5924
g9
(g13
S'\x04p|]\xacm\xcf?'
p5925
tp5926
Rp5927
a(lp5928
g9
(g13
S'\x04p|]\xacm\xcf?'
p5929
tp5930
Rp5931
a(lp5932
tp5933
((lp5934
F0.0
a(lp5935
F0.0
a(lp5936
tp5937
((lp5938
F0.7777777777777778
a(lp5939
F0.7777777777777778
a(lp5940
tp5941
tp5942
sS'20070201_run3pento_nonoise_refexps.p(18, 224)'
p5943
(g4160
g4139
I59
((lp5944
g9
(g13
S'\x9b\xef\x80\xfbz\xfb\xd8?'
p5945
tp5946
Rp5947
ag9
(g13
S'\xbc\x8b\xee\x8dr\xec\xd6?'
p5948
tp5949
Rp5950
ag9
(g13
S'\x9b\xef\x80\xfbz\xfb\xd8?'
p5951
tp5952
Rp5953
ag9
(g13
S'\x9b\xef\x80\xfbz\xfb\xd8?'
p5954
tp5955
Rp5956
ag9
(g13
S'\xbc\x8b\xee\x8dr\xec\xd6?'
p5957
tp5958
Rp5959
a(lp5960
g9
(g13
S'\x9b\xef\x80\xfbz\xfb\xd8?'
p5961
tp5962
Rp5963
ag9
(g13
S'\x94p8\x11\x90\xe4\xd8?'
p5964
tp5965
Rp5966
ag9
(g13
S'\x9b\xef\x80\xfbz\xfb\xd8?'
p5967
tp5968
Rp5969
ag9
(g13
S'\x9b\xef\x80\xfbz\xfb\xd8?'
p5970
tp5971
Rp5972
ag9
(g13
S'\x94p8\x11\x90\xe4\xd8?'
p5973
tp5974
Rp5975
a(lp5976
g9
(g13
S'\x94p8\x11\x90\xe4\xd8?'
p5977
tp5978
Rp5979
ag9
(g13
S'\x94p8\x11\x90\xe4\xd8?'
p5980
tp5981
Rp5982
atp5983
((lp5984
F0.625
aF0.6
aF0.625
aF0.625
aF0.6
a(lp5985
F0.625
aF0.625
aF0.625
aF0.625
aF0.625
a(lp5986
F0.5
aF0.5
atp5987
((lp5988
F0.6666666666666666
aF0.75
aF0.6666666666666666
aF0.6666666666666666
aF0.75
a(lp5989
F0.6666666666666666
aF0.7777777777777778
aF0.6666666666666666
aF0.6666666666666666
aF0.7777777777777778
a(lp5990
F0.6666666666666666
aF0.6666666666666666
atp5991
tp5992
sS'20070201_run1pento_nonoise_refexps.p(252, 595)'
p5993
(g4138
g4139
I43
((lp5994
g9
(g13
S't\xd1E\x17]t\xd1\xbf'
p5995
tp5996
Rp5997
ag9
(g13
S'p\xbb\x1e\x84x\xee\xd1?'
p5998
tp5999
Rp6000
ag9
(g13
S'\x1c\xc7q\x1c\xc7q\xcc?'
p6001
tp6002
Rp6003
ag9
(g13
S'L\x16\xcc\x89\x17\xbe\xc7?'
p6004
tp6005
Rp6006
ag9
(g13
S'\x00\x00\x00\x00\x00\x00\x00\x00'
p6007
tp6008
Rp6009
ag9
(g13
S'u\x02\x81\x939\xe4\xe2?'
p6010
tp6011
Rp6012
a(lp6013
g9
(g13
S't\xd1E\x17]t\xd1\xbf'
p6014
tp6015
Rp6016
ag9
(g13
S'\xfe\x8fC\xae\x1fO\xd1?'
p6017
tp6018
Rp6019
ag9
(g13
S'\x1c\xc7q\x1c\xc7q\xcc?'
p6020
tp6021
Rp6022
ag9
(g13
S'\x02\x00\x96\x08\xe7\xf9\xe0?'
p6023
tp6024
Rp6025
ag9
(g13
S'\x00\x00\x00\x00\x00\x00\x00\x00'
p6026
tp6027
Rp6028
ag9
(g13
S'p\xee0\xcdb\x02\xe3?'
p6029
tp6030
Rp6031
a(lp6032
g9
(g13
S'\xfe\x8fC\xae\x1fO\xd1?'
p6033
tp6034
Rp6035
ag9
(g13
S'\x02\x00\x96\x08\xe7\xf9\xe0?'
p6036
tp6037
Rp6038
ag9
(g13
S'p\xee0\xcdb\x02\xe3?'
p6039
tp6040
Rp6041
atp6042
((lp6043
F0.0
aF0.0
aF0.25
aF0.5384615384615384
aF1.0
a(lp6044
F0.0
aF0.0
aF0.25
aF0.5384615384615384
aF1.0
a(lp6045
tp6046
((lp6047
F1.0
aF0.8571428571428571
aF0.0
aF0.7272727272727273
aF1.0
aF0.8333333333333334
a(lp6048
F1.0
aF0.8
aF0.0
aF0.7142857142857143
aF1.0
aF1.0
a(lp6049
F1.0
aF0.75
aF0.75
atp6050
tp6051
sS'20070201_run1pento_nonoise_refexps.p(2407, 2542)'
p6052
(g4160
g4139
I22
((lp6053
g9
(g13
S'\x00\x00\x00\x00\x00\x00\x00\x00'
p6054
tp6055
Rp6056
ag9
(g13
S'\x00\x00\x00\x00\x00\x00\xe0\xbf'
p6057
tp6058
Rp6059
ag9
(g13
S'\x00\x00\x00\x00\x00\x00\xe0\xbf'
p6060
tp6061
Rp6062
ag9
(g13
S'6\xbc\x1b\xd8\x9e\xe4\x89?'
p6063
tp6064
Rp6065
ag9
(g13
S'6\xbc\x1b\xd8\x9e\xe4\x89?'
p6066
tp6067
Rp6068
a(lp6069
g9
(g13
S'6\xbc\x1b\xd8\x9e\xe4\x89?'
p6070
tp6071
Rp6072
ag9
(g13
S'6\xbc\x1b\xd8\x9e\xe4\x89?'
p6073
tp6074
Rp6075
a(lp6076
g9
(g13
S'\x00\x00\x00\x00\x00\x00\x00\x00'
p6077
tp6078
Rp6079
ag9
(g13
S'\x00\x00\x00\x00\x00\x00\xe0\xbf'
p6080
tp6081
Rp6082
ag9
(g13
S'\x00\x00\x00\x00\x00\x00\xe0\xbf'
p6083
tp6084
Rp6085
atp6086
((lp6087
F0.0
aF0.0
aF0.5714285714285714
aF0.5714285714285714
a(lp6088
F0.5714285714285714
aF0.5714285714285714
a(lp6089
F0.0
aF0.0
atp6090
((lp6091
F1.0
aF1.0
aF1.0
aF0.8
aF0.8
a(lp6092
F0.8
aF0.8
a(lp6093
F1.0
aF1.0
aF1.0
atp6094
tp6095
sS'20070201_run4pento_nonoise_refexps.p(1002, 1299)'
p6096
(g4160
g4139
I27
((lp6097
g9
(g13
S'?\xe3\x076\x88\x88\xbc?'
p6098
tp6099
Rp6100
ag9
(g13
S'UUUUUU\xd5?'
p6101
tp6102
Rp6103
ag9
(g13
S'\xc2\xadr\xc1\xadr\xd1?'
p6104
tp6105
Rp6106
ag9
(g13
S'\xdb\xb6m\xdb\xb6m\xdb\xbf'
p6107
tp6108
Rp6109
a(lp6110
g9
(g13
S'\xa4\x995\xafC\x10\xcb?'
p6111
tp6112
Rp6113
ag9
(g13
S'UUUUUU\xd5?'
p6114
tp6115
Rp6116
ag9
(g13
S'\xa6\xa5\xa5\xa5\xa5\xa5\xc5?'
p6117
tp6118
Rp6119
ag9
(g13
S'\xdb\xb6m\xdb\xb6m\xdb\xbf'
p6120
tp6121
Rp6122
a(lp6123
g9
(g13
S'\xa4\x995\xafC\x10\xcb?'
p6124
tp6125
Rp6126
ag9
(g13
S'UUUUUU\xd5?'
p6127
tp6128
Rp6129
ag9
(g13
S'\xa6\xa5\xa5\xa5\xa5\xa5\xc5?'
p6130
tp6131
Rp6132
ag9
(g13
S'\xdb\xb6m\xdb\xb6m\xdb\xbf'
p6133
tp6134
Rp6135
atp6136
((lp6137
F0.0
aF0.0
aF0.14285714285714285
aF0.5
a(lp6138
F0.2857142857142857
a(lp6139
F0.0
aF0.0
aF0.0
aF0.5
atp6140
((lp6141
F0.9285714285714286
aF1.0
aF0.4
aF0.0
a(lp6142
F0.9166666666666666
aF0.3333333333333333
a(lp6143
F1.0
aF1.0
aF0.5
aF0.0
atp6144
tp6145
sS'20070201_run1pento_nonoise_refexps.p(2593, 2616)'
p6146
(g4160
g4139
I3
((lp6147
g9
(g13
S'\xee\x1b\xd6\xbea\xed\xab?'
p6148
tp6149
Rp6150
a(lp6151
g9
(g13
S'F\x17]t\xd1E\xb7\xbf'
p6152
tp6153
Rp6154
a(lp6155
g9
(g13
S'F\x17]t\xd1E\xb7\xbf'
p6156
tp6157
Rp6158
atp6159
((lp6160
F0.6666666666666666
a(lp6161
F0.0
a(lp6162
F1.0
atp6163
((lp6164
F1.0
a(lp6165
F1.0
a(lp6166
F1.0
atp6167
tp6168
sS'20070201_run4pento_nonoise_refexps.p(1514, 1562)'
p6169
(g4160
g4139
I6
((lp6170
g9
(g13
S'\xc3\xfe.\x06\x15\xe1\xb6?'
p6171
tp6172
Rp6173
a(lp6174
(lp6175
g9
(g13
S'\xc3\xfe.\x06\x15\xe1\xb6?'
p6176
tp6177
Rp6178
atp6179
((lp6180
F0.5
a(lp6181
(lp6182
F0.5
atp6183
((lp6184
F0.3333333333333333
a(lp6185
(lp6186
F0.3333333333333333
atp6187
tp6188
sS'20061123_pento_nonoise_refexps.p(3812, 3908)'
p6189
(g4160
g4139
I10
((lp6190
g9
(g13
S'\xff\xff\xff\xff\xff\xff\xbf?'
p6191
tp6192
Rp6193
ag9
(g13
S'\xff\xff\xff\xff\xff\xff\xbf?'
p6194
tp6195
Rp6196
a(lp6197
(lp6198
g9
(g13
S'\xff\xff\xff\xff\xff\xff\xbf?'
p6199
tp6200
Rp6201
ag9
(g13
S'\xff\xff\xff\xff\xff\xff\xbf?'
p6202
tp6203
Rp6204
atp6205
((lp6206
F0.75
aF0.75
a(lp6207
(lp6208
F0.75
aF0.75
atp6209
((lp6210
F0.75
aF0.75
a(lp6211
(lp6212
F0.75
aF0.75
atp6213
tp6214
sa.