(dp0
(I1358
I1483
tp1
S'success'
p2
s(I905
I1019
tp3
S'success'
p4
s(I1186
I1234
tp5
S'success'
p6
s(I356
I453
tp7
S'success'
p8
s(I1553
I1597
tp9
S'success'
p10
s(I1235
I1357
tp11
S'success'
p12
s(I665
I826
tp13
S'success'
p14
s(I827
I904
tp15
S'success'
p16
s(I454
I664
tp17
S'success'
p18
s(I1484
I1552
tp19
S'success'
p20
s(I1112
I1185
tp21
S'success'
p22
s(I59
I355
tp23
S'success'
p24
s.