(dp0
(I366
I401
tp1
S'success'
p2
s(I902
I946
tp3
S'success'
p4
s(I657
I742
tp5
S'success'
p6
s(I402
I450
tp7
S'success'
p8
s(I510
I579
tp9
S'success'
p10
s(I743
I769
tp11
S'success'
p12
s(I206
I365
tp13
S'success'
p14
s(I580
I656
tp15
S'success'
p16
s(I972
I1003
tp17
S'success'
p18
s(I451
I509
tp19
S'success'
p20
s(I770
I901
tp21
S'success'
p22
s(I947
I971
tp23
S'success'
p24
s.