(dp0
(I812
I859
tp1
S'success'
p2
s(I540
I587
tp3
S'success'
p4
s(I470
I539
tp5
S'success'
p6
s(I657
I811
tp7
S'success'
p8
s(I304
I354
tp9
S'success'
p10
s(I871
I882
tp11
S'success'
p12
s(I860
I870
tp13
S'success'
p14
s(I588
I613
tp15
S'success'
p16
s(I243
I303
tp17
S'success'
p18
s(I355
I432
tp19
S'success'
p20
s(I16
I242
tp21
S'success'
p22
s(I614
I656
tp23
S'success'
p24
s.