(dp0
(I1
I194
tp1
S'success'
p2
s(I739
I783
tp3
S'success'
p4
s(I784
I805
tp5
S'success'
p6
s(I680
I738
tp7
S'success'
p8
s(I806
I829
tp9
S'success'
p10
s(I334
I414
tp11
S'success'
p12
s(I543
I595
tp13
S'success'
p14
s(I195
I239
tp15
S'success'
p16
s(I596
I648
tp17
S'success'
p18
s(I415
I542
tp19
S'success'
p20
s(I240
I333
tp21
S'success'
p22
s(I649
I679
tp23
S'success'
p24
s.