(dp0
(I3393
I3458
tp1
(S'no_video'
p2
S'confident'
p3
tp4
s(I1231
I1299
tp5
(S'no_video'
p6
S'confident'
p7
tp8
s(I3081
I3137
tp9
(S'no_video'
p10
S'confident'
p11
tp12
s(I3138
I3392
tp13
(S'no_video'
p14
S'confident'
p15
tp16
s(I1011
I1104
tp17
(S'no_video'
p18
S'confident'
p19
tp20
s(I2178
I2221
tp21
(S'no_video'
p22
S'reconfirm'
p23
tp24
s(I3496
I3519
tp25
(S'no_video'
p26
S'confident'
p27
tp28
s(I1807
I2177
tp29
(S'no_video'
p30
S'unconfident'
p31
tp32
s(I2947
I3080
tp33
(S'no_video'
p34
S'confident'
p35
tp36
s(I2222
I2412
tp37
(S'no_video'
p38
S'on_hold'
p39
tp40
s(I2668
I2877
tp41
(S'no_video'
p42
S'confident'
p43
tp44
s(I1300
I1660
tp45
(S'no_video'
p46
S'unconfident'
p47
tp48
s(I20
I1010
tp49
(S'no_video'
p50
S'confident'
p51
tp52
s(I1661
I1806
tp53
(S'no_video'
p54
S'on_hold'
p55
tp56
s(I3459
I3495
tp57
(S'no_video'
p58
S'confident'
p59
tp60
s(I1105
I1230
tp61
(S'no_video'
p62
S'confident'
p63
tp64
s(I2916
I2946
tp65
(S'no_video'
p66
S'confident'
p67
tp68
s(I2878
I2915
tp69
(S'no_video'
p70
S'confident'
p71
tp72
s(I2413
I2667
tp73
(S'no_video'
p74
S'on_hold'
p75
tp76
s.