(dp0
(I2351
I2380
tp1
(S'not_moved'
p2
S'reconfirm'
p3
tp4
s(I3211
I3239
tp5
(S'correct'
p6
S'confident'
p7
tp8
s(I687
I877
tp9
(S'not_moved'
p10
S'on_hold'
p11
tp12
s(I505
I549
tp13
(S'correct'
p14
S'confident'
p15
tp16
s(I4292
I4878
tp17
(S'correct'
p18
S'confident'
p19
tp20
s(I5033
I5067
tp21
(S'correct'
p22
S'confident'
p23
tp24
s(I393
I504
tp25
(S'incorrect'
p26
S'confident'
p27
tp28
s(I3277
I3285
tp29
(S'not_moved'
p30
S'reconfirm'
p31
tp32
s(I5068
I5100
tp33
(S'correct'
p34
S'confident'
p35
tp36
s(I192
I236
tp37
(S'correct'
p38
S'confident'
p39
tp40
s(I3394
I3671
tp41
(S'not_moved'
p42
S'on_hold'
p43
tp44
s(I550
I686
tp45
(S'not_moved'
p46
S'on_hold'
p47
tp48
s(I2381
I2763
tp49
(S'incorrect'
p50
S'on_hold'
p51
tp52
s(I2820
I3210
tp53
(S'correct'
p54
S'confident'
p55
tp56
s(I5101
I5143
tp57
(S'correct'
p58
S'confident'
p59
tp60
s(I1581
I1605
tp61
(S'incorrect'
p62
S'reconfirm'
p63
tp64
s(I333
I392
tp65
(S'correct'
p66
S'confident'
p67
tp68
s(I1
I167
tp69
(S'incorrect'
p70
S'confident'
p71
tp72
s(I3286
I3306
tp73
(S'not_moved'
p74
S'reconfirm'
p75
tp76
s(I1388
I1416
tp77
(S'not_moved'
p78
S'reconfirm'
p79
tp80
s(I2004
I2097
tp81
(S'not_moved'
p82
S'reconfirm'
p83
tp84
s(I261
I332
tp85
(S'incorrect'
p86
S'confident'
p87
tp88
s(I168
I191
tp89
(S'correct'
p90
S'confident'
p91
tp92
s(I3672
I4291
tp93
(S'not_moved'
p94
S'reconfirm'
p95
tp96
s(I4879
I5032
tp97
(S'correct'
p98
S'confident'
p99
tp100
s(I1521
I1580
tp101
(S'not_moved'
p102
S'reconfirm'
p103
tp104
s(I922
I1299
tp105
(S'not_moved'
p106
S'on_hold'
p107
tp108
s(I237
I260
tp109
(S'correct'
p110
S'confident'
p111
tp112
s(I2322
I2337
tp113
(S'not_moved'
p114
S'reconfirm'
p115
tp116
s(I1417
I1479
tp117
(S'not_moved'
p118
S'on_hold'
p119
tp120
s.