(dp0
(I5602
I5639
tp1
(S'correct'
p2
S'confident'
p3
tp4
s(I1
I1621
tp5
(S'incorrect'
p6
S'unconfident'
p7
tp8
s(I5496
I5553
tp9
(S'correct'
p10
S'confident'
p11
tp12
s(I5640
I5688
tp13
(S'correct'
p14
S'confident'
p15
tp16
s(I4732
I4881
tp17
(S'correct'
p18
S'confident'
p19
tp20
s(I1622
I2582
tp21
(S'incorrect'
p22
S'confident'
p23
tp24
s(I2583
I2844
tp25
(S'correct'
p26
S'confident'
p27
tp28
s(I4938
I5360
tp29
(S'correct'
p30
S'unconfident'
p31
tp32
s(I3965
I4714
tp33
(S'correct'
p34
S'unconfident'
p35
tp36
s(I2845
I3294
tp37
(S'correct'
p38
S'unconfident'
p39
tp40
s(I3708
I3753
tp41
(S'not_moved'
p42
S'unconfident'
p43
tp44
s(I4715
I4731
tp45
(S'correct'
p46
S'unconfident'
p47
tp48
s(I5361
I5495
tp49
(S'correct'
p50
S'confident'
p51
tp52
s(I3464
I3707
tp53
(S'incorrect'
p54
S'unconfident'
p55
tp56
s(I3295
I3456
tp57
(S'incorrect'
p58
S'unconfident'
p59
tp60
s(I3764
I3963
tp61
(S'correct'
p62
S'confident'
p63
tp64
s(I4882
I4906
tp65
(S'correct'
p66
S'confident'
p67
tp68
s.