(dp0
(I5602
I5639
tp1
S'correct'
p2
s(I1
I1621
tp3
S'incorrect'
p4
s(I5496
I5553
tp5
S'correct'
p6
s(I5640
I5688
tp7
S'correct'
p8
s(I4732
I4881
tp9
S'correct'
p10
s(I1622
I2582
tp11
S'incorrect'
p12
s(I2583
I2844
tp13
S'correct'
p14
s(I4938
I5360
tp15
S'correct'
p16
s(I3965
I4714
tp17
S'correct'
p18
s(I2845
I3294
tp19
S'correct'
p20
s(I3708
I3753
tp21
S'not_moved'
p22
s(I4715
I4731
tp23
S'correct'
p24
s(I5361
I5495
tp25
S'correct'
p26
s(I3464
I3707
tp27
S'incorrect'
p28
s(I3295
I3456
tp29
S'incorrect'
p30
s(I3764
I3963
tp31
S'correct'
p32
s(I4882
I4906
tp33
S'correct'
p34
s.