(dp0
(I2618
I2680
tp1
S'not_moved'
p2
s(I2342
I2375
tp3
S'not_moved'
p4
s(I2813
I2824
tp5
S'not_moved'
p6
s(I1438
I1484
tp7
S'not_moved'
p8
s(I2905
I2931
tp9
S'not_moved'
p10
s(I527
I892
tp11
S'not_moved'
p12
s(I276
I453
tp13
S'incorrect'
p14
s(I1356
I1437
tp15
S'not_moved'
p16
s(I226
I275
tp17
S'correct'
p18
s(I2825
I2867
tp19
S'not_moved'
p20
s(I3022
I3063
tp21
S'not_moved'
p22
s(I1967
I2127
tp23
S'not_moved'
p24
s(I3441
I3556
tp25
S'correct'
p26
s(I2128
I2155
tp27
S'not_moved'
p28
s(I2376
I2435
tp29
S'not_moved'
p30
s(I1485
I1554
tp31
S'correct'
p32
s(I893
I939
tp33
S'correct'
p34
s(I1945
I1966
tp35
S'not_moved'
p36
s(I3234
I3399
tp37
S'correct'
p38
s(I1555
I1663
tp39
S'incorrect'
p40
s(I940
I1355
tp41
S'incorrect'
p42
s(I133
I176
tp43
S'correct'
p44
s(I1696
I1944
tp45
S'not_moved'
p46
s(I3557
I3565
tp47
S'correct'
p48
s(I1
I132
tp49
S'incorrect'
p50
s(I177
I225
tp51
S'correct'
p52
s(I2156
I2341
tp53
S'not_moved'
p54
s(I3101
I3233
tp55
S'correct'
p56
s(I2543
I2566
tp57
S'not_moved'
p58
s(I2681
I2723
tp59
S'not_moved'
p60
s(I454
I526
tp61
S'correct'
p62
s(I2932
I3021
tp63
S'not_moved'
p64
s(I3064
I3100
tp65
S'correct'
p66
s(I2436
I2542
tp67
S'not_moved'
p68
s(I2567
I2617
tp69
S'not_moved'
p70
s(I2755
I2812
tp71
S'not_moved'
p72
s(I1664
I1695
tp73
S'correct'
p74
s.