(dp0
(I3032
I3049
tp1
(S'correct'
p2
S'confident'
p3
tp4
s(I760
I945
tp5
(S'correct'
p6
S'confident'
p7
tp8
s(I1888
I2021
tp9
(S'correct'
p10
S'confident'
p11
tp12
s(I3427
I3443
tp13
(S'correct'
p14
S'unconfident'
p15
tp16
s(I3050
I3165
tp17
(S'not_moved'
p18
S'on_hold'
p19
tp20
s(I2505
I2552
tp21
(S'correct'
p22
S'confident'
p23
tp24
s(I2843
I2973
tp25
(S'not_moved'
p26
S'on_hold'
p27
tp28
s(I731
I759
tp29
(S'not_moved'
p30
S'reconfirm'
p31
tp32
s(I1761
I1787
tp33
(S'not_moved'
p34
S'reconfirm'
p35
tp36
s(I3568
I3607
tp37
(S'not_moved'
p38
S'reconfirm'
p39
tp40
s(I411
I600
tp41
(S'correct'
p42
S'confident'
p43
tp44
s(I3534
I3567
tp45
(S'correct'
p46
S'confident'
p47
tp48
s(I946
I1116
tp49
(S'incorrect'
p50
S'confident'
p51
tp52
s(I191
I410
tp53
(S'incorrect'
p54
S'confident'
p55
tp56
s(I601
I695
tp57
(S'not_moved'
p58
S'on_hold'
p59
tp60
s(I2553
I2749
tp61
(S'incorrect'
p62
S'confident'
p63
tp64
s(I3166
I3426
tp65
(S'not_moved'
p66
S'on_hold'
p67
tp68
s(I2082
I2354
tp69
(S'correct'
p70
S'confident'
p71
tp72
s(I1711
I1749
tp73
(S'not_moved'
p74
S'reconfirm'
p75
tp76
s(I3444
I3495
tp77
(S'not_moved'
p78
S'on_hold'
p79
tp80
s(I1117
I1518
tp81
(S'not_moved'
p82
S'on_hold'
p83
tp84
s(I1519
I1710
tp85
(S'not_moved'
p86
S'on_hold'
p87
tp88
s(I696
I703
tp89
(S'correct'
p90
S'confident'
p91
tp92
s(I2355
I2504
tp93
(S'correct'
p94
S'confident'
p95
tp96
s(I1788
I1887
tp97
(S'not_moved'
p98
S'on_hold'
p99
tp100
s(I3496
I3533
tp101
(S'correct'
p102
S'confident'
p103
tp104
s(I704
I730
tp105
(S'not_moved'
p106
S'confident'
p107
tp108
s(I2022
I2081
tp109
(S'not_moved'
p110
S'reconfirm'
p111
tp112
s(I2974
I3031
tp113
(S'not_moved'
p114
S'reconfirm'
p115
tp116
s(I2815
I2842
tp117
(S'not_moved'
p118
S'on_hold'
p119
tp120
s(I2750
I2814
tp121
(S'correct'
p122
S'confident'
p123
tp124
s(I1750
I1760
tp125
(S'not_moved'
p126
S'on_hold'
p127
tp128
s.