(lp0
((I115
I321
tp1
(dp2
S'p-utts'
p3
(dp4
S'1l'
p5
(dp6
S'part_of_piece'
p7
(lp8
(S'one piece'
p9
(I132
I133
tp10
S'quant_np'
p11
tp12
a(S'the other'
p13
(I137
I138
tp14
S'def_np'
p15
tp16
a(S'four units'
p17
(I143
I144
tp18
S'quant_np'
p19
tp20
a(S'two units'
p21
(I146
I147
tp22
S'quant_np'
p23
tp24
a(S'the small part'
p25
(I271
I273
tp26
S'def_np'
p27
tp28
asS'piece'
p29
(lp30
g12
ag16
ag20
ag24
ag28
asS'comp_piece'
p31
(lp32
g12
ag16
ag20
ag24
ag28
asS'location'
p33
(lp34
g12
ag16
ag20
ag24
ag28
asS'desc_piece'
p35
(lp36
g12
ag16
ag20
ag24
ag28
asssS'e-utts'
p37
(dp38
g5
(dp39
S'piece'
p40
(lp41
(S'this one'
p42
(I149
I150
tp43
S'def_np'
p44
tp45
a(S'it'
p46
(I162
I162
tp47
S'pronoun'
p48
tp49
a(S'it'
p50
(I166
I166
tp51
S'pronoun'
p52
tp53
a(S'the letter l'
p54
(I250
I252
tp55
S'def_np'
p56
tp57
a(S'it'
p58
(I259
I259
tp59
S'pronoun'
p60
tp61
assstp62
a((I322
I755
tp63
(dp64
g3
(dp65
S'2n'
p66
(dp67
S'part_of_piece'
p68
(lp69
(S'the one with two units'
p70
(I392
I396
tp71
S'def_np'
p72
tp73
a(S'the long part'
p74
(I554
I556
tp75
S'def_np'
p76
tp77
a(S'three units'
p78
(I377
I378
tp79
S'quant_np'
p80
tp81
a(S'the long three parts'
p82
(I664
I667
tp83
S'def_np'
p84
tp85
a(S'the one with three'
p86
(I404
I407
tp87
S'def_np'
p88
tp89
a(S'the long unit'
p90
(I512
I514
tp91
S'def_np'
p92
tp93
a(S'two units'
p94
(I380
I381
tp95
S'quant_np'
p96
tp97
asS'piece'
p98
(lp99
(S'it'
p100
(I340
I340
tp101
S'pronoun'
p102
tp103
a(S'it'
p104
(I451
I451
tp105
S'pronoun'
p106
tp107
a(S"it's three units by two"
p108
(I451
I455
tp109
S'quant_np'
p110
tp111
a(S'it'
p112
(I365
I365
tp113
S'pronoun'
p114
tp115
a(S'the long part'
p116
(I519
I521
tp117
S'def_np'
p118
tp119
a(S'it'
p120
(I430
I430
tp121
S'pronoun'
p122
tp123
a(S'it'
p124
(I608
I608
tp125
S'pronoun'
p126
tp127
a(S'the next piece'
p128
(I327
I329
tp129
S'def_np'
p130
tp131
a(S'strange shape'
p132
(I356
I357
tp133
S'indef_np'
p134
tp135
a(S'it'
p136
(I367
I367
tp137
S'pronoun'
p138
tp139
a(S'that one'
p140
(I462
I463
tp141
S'def_np'
p142
tp143
a(S'that'
p144
(I546
I546
tp145
S'def_np'
p146
tp147
a(S'it'
p148
(I498
I498
tp149
S'pronoun'
p150
tp151
a(S'it'
p152
(I349
I349
tp153
S'pronoun'
p154
tp155
a(S'it'
p156
(I419
I419
tp157
S'pronoun'
p158
tp159
asS'comp_piece'
p160
(lp161
(S'weird kind of s-y shape'
p162
(I437
I441
tp163
S'indef_np'
p164
tp165
asS'location'
p166
(lp167
(S'to the left of the first shape'
p168
(I465
I471
tp169
S'pp'
p170
tp171
a(S"it's basically  leg"
p172
(I340
I347
tp173
S'other_sent'
p174
tp175
a(S'a leg'
p176
(I550
I551
tp177
S'indef_np'
p178
tp179
a(S'a front leg'
p180
(I345
I347
tp181
S'indef_np'
p182
tp183
asS'desc_piece'
p184
(lp185
(S"it's kind of like a weired s weird kind of s-y shape"
p186
(I430
I441
tp187
S'comp_sent'
p188
tp189
a(S"it's a kind of  strange shape"
p190
(I349
I357
tp191
S'comp_sent'
p192
tp193
a(S"it's like   a    three units and two units"
p194
(I367
I381
tp195
S'attribution_sent'
p196
tp197
assg5
(dp198
S'piece'
p199
(lp200
(S'the first shape'
p201
(I469
I471
tp202
S'def_np'
p203
tp204
a(S'the first shape'
p205
(I577
I579
tp206
S'def_np'
p207
tp208
asssg37
(dp209
g66
(dp210
S'part_of_piece'
p211
(lp212
(S'the right portion of the front leg'
p213
(I692
I698
tp214
S'def_np'
p215
tp216
asS'location'
p217
(lp218
g216
assstp219
a((I756
I982
tp220
(dp221
g3
(dp222
S'3v'
p223
(dp224
S'part_of_piece'
p225
(lp226
(S'the third part'
p227
(I764
I766
tp228
S'def_np'
p229
tp230
a(S'the trunk'
p231
(I771
I772
tp232
S'def_np'
p233
tp234
a(S'it'
p235
(I774
I774
tp236
S'pronoun'
p237
tp238
a(S'it'
p239
(I777
I777
tp240
S'pronoun'
p241
tp242
a(S'another el shape'
p243
(I778
I780
tp244
S'indef_np'
p245
tp246
a(S'it'
p247
(I797
I797
tp248
S'pronoun'
p249
tp250
a(S'it'
p251
(I846
I846
tp252
S'pronoun'
p253
tp254
a(S'it'
p255
(I922
I922
tp256
S'pronoun'
p257
tp258
a(S'it'
p259
(I924
I924
tp260
S'pronoun'
p261
tp262
a(S'that'
p263
(I945
I945
tp264
S'def_np'
p265
tp266
a(S'that'
p267
(I974
I974
tp268
S'def_np'
p269
tp270
a(S'that'
p271
(I976
I976
tp272
S'def_np'
p273
tp274
asS'comp_piece'
p275
(lp276
g230
ag234
ag238
ag242
ag246
ag250
ag254
ag258
ag262
ag266
ag270
ag274
asS'location'
p277
(lp278
g230
ag234
ag238
ag242
ag246
ag250
ag254
ag258
ag262
ag266
ag270
ag274
asS'desc_piece'
p279
(lp280
g230
ag234
ag238
ag242
ag246
ag250
ag254
ag258
ag262
ag266
ag270
ag274
asS'piece'
p281
(lp282
g230
ag234
ag238
ag242
ag246
ag250
ag254
ag258
ag262
ag266
ag270
ag274
asssg37
(dp283
g223
(dp284
S'piece'
p285
(lp286
(S'to the  bottom of the trunk'
p287
(I879
I885
tp288
S'pp'
p289
tp290
a(S'so  the trunk'
p291
(I957
I966
tp292
S'other_sent'
p293
tp294
a(S'the trunk'
p295
(I965
I966
tp296
S'def_np'
p297
tp298
asS'location'
p299
(lp300
g290
ag294
ag298
assstp301
a((I983
I1190
tp302
(dp303
g3
(dp304
S'4t'
p305
(dp306
S'piece'
p307
(lp308
(S'a ti shape'
p309
(I1005
I1007
tp310
S'indef_np'
p311
tp312
a(S'it'
p313
(I1039
I1039
tp314
S'pronoun'
p315
tp316
a(S'that'
p317
(I1072
I1072
tp318
S'def_np'
p319
tp320
a(S'that piece'
p321
(I1160
I1161
tp322
S'def_np'
p323
tp324
a(S'a ti: shape'
p325
(I1014
I1016
tp326
S'indef_np'
p327
tp328
a(S'that'
p329
(I1033
I1033
tp330
S'def_np'
p331
tp332
asS'comp_piece'
p333
(lp334
(S'the letter ti'
p335
(I1018
I1020
tp336
S'def_np'
p337
tp338
a(S'a ti on its side pointing to the left'
p339
(I1059
I1067
tp340
S'indef_np'
p341
tp342
asS'location'
p343
(lp344
(S'into   the first piece'
p345
(I1073
I1080
tp346
S'pp'
p347
tp348
a(S'the rest of that leg'
p349
(I997
I1001
tp350
S'def_np'
p351
tp352
assg66
(dp353
S'piece'
p354
(lp355
(S"the second piece you've put in"
p356
(I1167
I1172
tp357
S'def_np'
p358
tp359
assg5
(dp360
S'piece'
p361
(lp362
(S'the first piece'
p363
(I991
I993
tp364
S'def_np'
p365
tp366
a(S'the first piece'
p367
(I1078
I1080
tp368
S'def_np'
p369
tp370
a(S'the el'
p371
(I1095
I1096
tp372
S'def_np'
p373
tp374
asssg37
(dp375
g305
(dp376
S'location'
p377
(lp378
(S'into the first piece'
p379
(I1081
I1084
tp380
S'pp'
p381
tp382
assg5
(dp383
S'piece'
p384
(lp385
(S'the first piece'
p386
(I1082
I1084
tp387
S'def_np'
p388
tp389
asS'location'
p390
(lp391
g389
assstp392
a((I1191
I1773
tp393
(dp394
g3
(dp395
g66
(dp396
S'part_of_piece'
p397
(lp398
(S'the top of that second piece'
p399
(I1654
I1659
tp400
S'def_np'
p401
tp402
a(S'the top of that'
p403
(I1648
I1651
tp404
S'def_np'
p405
tp406
a(S'the top part of the second piece'
p407
(I1576
I1582
tp408
S'def_np'
p409
tp410
asS'location'
p411
(lp412
(S'the front leg'
p413
(I1641
I1643
tp414
S'def_np'
p415
tp416
a(S'the front leg'
p417
(I1620
I1622
tp418
S'def_np'
p419
tp420
asS'piece'
p421
(lp422
(S'that'
p423
(I1651
I1651
tp424
S'def_np'
p425
tp426
a(S'the second piece which is the front leg'
p427
(I1615
I1622
tp428
S'def_np'
p429
tp430
a(S'that second piece'
p431
(I1195
I1197
tp432
S'def_np'
p433
tp434
a(S'the second piece which is the front leg'
p435
(I1636
I1643
tp436
S'def_np'
p437
tp438
a(S'that second piece'
p439
(I1657
I1659
tp440
S'def_np'
p441
tp442
a(S'the second piece'
p443
(I1580
I1582
tp444
S'def_np'
p445
tp446
a(S'the second piece'
p447
(I1615
I1617
tp448
S'def_np'
p449
tp450
a(S'the second piece'
p451
(I1636
I1638
tp452
S'def_np'
p453
tp454
a(S'it'
p455
(I1664
I1664
tp456
S'pronoun'
p457
tp458
a(S'it'
p459
(I1200
I1200
tp460
S'pronoun'
p461
tp462
assS'5y'
p463
(dp464
S'part_of_piece'
p465
(lp466
(S'that block'
p467
(I1339
I1340
tp468
S'def_np'
p469
tp470
a(S'four units'
p471
(I1243
I1244
tp472
S'quant_np'
p473
tp474
a(S'a block'
p475
(I1324
I1325
tp476
S'quant_np'
p477
tp478
a(S' kind of unit'
p479
(I1249
I1254
tp480
S'quant_np'
p481
tp482
a(S'the down part'
p483
(I1427
I1429
tp484
S'def_np'
p485
tp486
a(S'the  bottom part of that fifth piece'
p487
(I1567
I1574
tp488
S'def_np'
p489
tp490
asS'comp_piece'
p491
(lp492
(S'weird sort of ti'
p493
(I1305
I1308
tp494
S'indef_np'
p495
tp496
asS'location'
p497
(lp498
(S'next to the third part'
p499
(I1463
I1467
tp500
S'pp'
p501
tp502
asS'desc_piece'
p503
(lp504
(S"it's like four units and then there is  out of it"
p505
(I1313
I1332
tp506
S'attribution_sent'
p507
tp508
a(S"ehm is kind of it's four units and then there is  kind of unit coming off it"
p509
(I1238
I1257
tp510
S'attribution_sent'
p511
tp512
asS'piece'
p513
(lp514
(S'it'
p515
(I1296
I1296
tp516
S'pronoun'
p517
tp518
a(S'that fifth piece'
p519
(I1572
I1574
tp520
S'def_np'
p521
tp522
a(S'it'
p523
(I1499
I1499
tp524
S'pronoun'
p525
tp526
a(S'it'
p527
(I1712
I1712
tp528
S'pronoun'
p529
tp530
a(S'the fifth piece'
p531
(I1679
I1681
tp532
S'def_np'
p533
tp534
a(S'it'
p535
(I1377
I1377
tp536
S'pronoun'
p537
tp538
a(S'it'
p539
(I1393
I1393
tp540
S'pronoun'
p541
tp542
a(S'it'
p543
(I1494
I1494
tp544
S'pronoun'
p545
tp546
a(S'a tricky one'
p547
(I1768
I1770
tp548
S'indef_np'
p549
tp550
a(S'it'
p551
(I1313
I1313
tp552
S'pronoun'
p553
tp554
a(S'it'
p555
(I1242
I1242
tp556
S'pronoun'
p557
tp558
a(S'that'
p559
(I1353
I1353
tp560
S'def_np'
p561
tp562
a(S'it'
p563
(I1505
I1505
tp564
S'pronoun'
p565
tp566
a(S'it'
p567
(I1484
I1484
tp568
S'pronoun'
p569
tp570
a(S'it'
p571
(I1282
I1282
tp572
S'pronoun'
p573
tp574
assg223
(dp575
S'part_of_piece'
p576
(lp577
(S'this third peace'
p578
(I1221
I1223
tp579
S'pronoun'
p580
tp581
a(S'the third piece which is the tru:nk'
p582
(I1362
I1368
tp583
S'def_np'
p584
tp585
a(S'the third part'
p586
(I1465
I1467
tp587
S'def_np'
p588
tp589
a(S'the trunk which is on the left'
p590
(I1470
I1476
tp591
S'def_np'
p592
tp593
a(S'the trunk'
p594
(I1470
I1471
tp595
S'def_np'
p596
tp597
a(S'the third piece'
p598
(I1512
I1514
tp599
S'def_np'
p600
tp601
a(S'the third piece'
p602
(I1538
I1540
tp603
S'def_np'
p604
tp605
a(S'the trunk'
p606
(I1714
I1715
tp607
S'def_np'
p608
tp609
asS'location'
p610
(lp611
g581
ag585
ag589
ag593
ag597
ag601
ag605
ag609
asS'piece'
p612
(lp613
g581
ag585
ag589
ag593
ag597
ag601
ag605
ag609
asssg37
(dp614
g463
(dp615
S'part_of_piece'
p616
(lp617
(S'the down part'
p618
(I1415
I1417
tp619
S'def_np'
p620
tp621
asS'piece'
p622
(lp623
(S'it'
p624
(I1260
I1260
tp625
S'pronoun'
p626
tp627
a(S'it'
p628
(I1709
I1709
tp629
S'pronoun'
p630
tp631
a(S'it'
p632
(I1695
I1695
tp633
S'pronoun'
p634
tp635
a(S'a block  piece to the upper left'
p636
(I1265
I1276
tp637
S'indef_np'
p638
tp639
a(S'it'
p640
(I1450
I1450
tp641
S'pronoun'
p642
tp643
a(S'it'
p644
(I1409
I1409
tp645
S'pronoun'
p646
tp647
assg223
(dp648
S'piece'
p649
(lp650
(S'the trunk'
p651
(I1700
I1701
tp652
S'def_np'
p653
tp654
assstp655
a((I1774
I1969
tp656
(dp657
g3
(dp658
S'0z'
p659
(dp660
S'piece'
p661
(lp662
(S'the piece before  that one'
p663
(I1940
I1945
tp664
S'def_np'
p665
tp666
assg463
(dp667
S'piece'
p668
(lp669
(S'that one'
p670
(I1944
I1945
tp671
S'def_np'
p672
tp673
assS'6w'
p674
(dp675
S'part_of_piece'
p676
(lp677
(S'the shape is like eh as- eh steps'
p678
(I1801
I1808
tp679
S'comp_sent'
p680
tp681
asS'comp_piece'
p682
(lp683
g681
asS'location'
p684
(lp685
g681
asS'desc_piece'
p686
(lp687
g681
asS'piece'
p688
(lp689
g681
asssg37
(dp690
g674
(dp691
S'piece'
p692
(lp693
(S'it'
p694
(I1897
I1897
tp695
S'pronoun'
p696
tp697
asS'location'
p698
(lp699
g697
assstp700
a((I1970
I2199
tp701
(dp702
g3
(dp703
g463
(dp704
S'piece'
p705
(lp706
(S'the fifth piece'
p707
(I2021
I2023
tp708
S'def_np'
p709
tp710
a(S'the fifth piece'
p711
(I1977
I1979
tp712
S'def_np'
p713
tp714
assS'7x'
p715
(dp716
S'piece'
p717
(lp718
(S'a cross'
p719
(I1984
I1985
tp720
S'indef_np'
p721
tp722
a(S'that cross'
p723
(I1992
I1993
tp724
S'def_np'
p725
tp726
a(S'the cross'
p727
(I2007
I2008
tp728
S'def_np'
p729
tp730
a(S'it'
p731
(I2026
I2026
tp732
S'pronoun'
p733
tp734
a(S'it'
p735
(I2030
I2030
tp736
S'pronoun'
p737
tp738
a(S'this cross'
p739
(I2071
I2072
tp740
S'def_np'
p741
tp742
a(S'that cross'
p743
(I2086
I2087
tp744
S'def_np'
p745
tp746
a(S'this'
p747
(I2096
I2096
tp748
S'def_np'
p749
tp750
a(S'that'
p751
(I2126
I2126
tp752
S'def_np'
p753
tp754
asS'location'
p755
(lp756
g722
ag726
ag730
ag734
ag738
ag742
ag746
ag750
ag754
asssg37
(dp757
g463
(dp758
S'piece'
p759
(lp760
(S'the fifth piece'
p761
(I2045
I2047
tp762
S'def_np'
p763
tp764
assg715
(dp765
S'piece'
p766
(lp767
(S'this'
p768
(I2115
I2115
tp769
S'def_np'
p770
tp771
a(S'it'
p772
(I2149
I2149
tp773
S'pronoun'
p774
tp775
asS'location'
p776
(lp777
g771
ag775
assstp778
a((I2200
I2750
tp779
(dp780
g3
(dp781
g463
(dp782
S'piece'
p783
(lp784
(S'this piece that goes next to the cross'
p785
(I2229
I2236
tp786
S'def_np'
p787
tp788
asS'location'
p789
(lp790
(S'next to the cross'
p791
(I2233
I2236
tp792
S'pp'
p793
tp794
assg66
(dp795
S'piece'
p796
(lp797
(S"the second piece you've put in"
p798
(I2220
I2225
tp799
S'def_np'
p800
tp801
a(S'the front leg'
p802
(I2368
I2370
tp803
S'def_np'
p804
tp805
assS'8f'
p806
(dp807
S'part_of_piece'
p808
(lp809
(S'that block'
p810
(I2553
I2554
tp811
S'def_np'
p812
tp813
a(S'that'
p814
(I2298
I2298
tp815
S'def_np'
p816
tp817
a(S'one unit'
p818
(I2301
I2302
tp819
S'quant_np'
p820
tp821
a(S'that unit coming off the middle'
p822
(I2343
I2348
tp823
S'def_np'
p824
tp825
a(S'the top part of the el'
p826
(I2688
I2693
tp827
S'def_np'
p828
tp829
a(S'the top part of the el'
p830
(I2637
I2642
tp831
S'def_np'
p832
tp833
a(S'a bar of three units'
p834
(I2284
I2288
tp835
S'indef_np'
p836
tp837
a(S'the small part in the middle'
p838
(I2664
I2669
tp839
S'def_np'
p840
tp841
a(S'another unit'
p842
(I2322
I2323
tp843
S'indef_np'
p844
tp845
asS'piece'
p846
(lp847
(S'that'
p848
(I2359
I2359
tp849
S'def_np'
p850
tp851
a(S'it'
p852
(I2404
I2404
tp853
S'pronoun'
p854
tp855
a(S'it'
p856
(I2538
I2538
tp857
S'pronoun'
p858
tp859
a(S'it'
p860
(I2275
I2275
tp861
S'pronoun'
p862
tp863
a(S'that'
p864
(I2697
I2697
tp865
S'def_np'
p866
tp867
a(S'that'
p868
(I2720
I2720
tp869
S'def_np'
p870
tp871
a(S'it'
p872
(I2429
I2429
tp873
S'pronoun'
p874
tp875
a(S'that'
p876
(I2536
I2536
tp877
S'def_np'
p878
tp879
a(S'it'
p880
(I2398
I2398
tp881
S'pronoun'
p882
tp883
a(S'a piece that should actually fit   in that one unit gap'
p884
(I2247
I2259
tp885
S'indef_np'
p886
tp887
a(S'it'
p888
(I2304
I2304
tp889
S'pronoun'
p890
tp891
a(S'an  upside down el'
p892
(I2540
I2544
tp893
S'indef_np'
p894
tp895
a(S'this'
p896
(I2204
I2204
tp897
S'def_np'
p898
tp899
a(S'this piece'
p900
(I2494
I2495
tp901
S'def_np'
p902
tp903
asS'comp_piece'
p904
(lp905
(S'a backwards el'
p906
(I2306
I2308
tp907
S'indef_np'
p908
tp909
a(S'a very strange shape'
p910
(I2267
I2270
tp911
S'indef_np'
p912
tp913
a(S"an el {isn't it}   eh a block coming  of  the middle  of it"
p914
(I2500
I2521
tp915
S'indef_np'
p916
tp917
asS'location'
p918
(lp919
(S'below the back'
p920
(I2372
I2374
tp921
S'pp'
p922
tp923
a(S'next to it'
p924
(I2723
I2725
tp925
S'pp'
p926
tp927
a(S'to the right of that the trunk'
p928
(I2432
I2438
tp929
S'pp'
p930
tp931
asS'desc_piece'
p932
(lp933
(S"so it's like a backwards el"
p934
(I2303
I2308
tp935
S'comp_sent'
p936
tp937
a(S"this piece is like eh is an el {isn't it}   eh a block coming  of  the middle  of it"
p938
(I2494
I2521
tp939
S'comp_sent'
p940
tp941
a(S"it's a very strange shape"
p942
(I2266
I2270
tp943
S'comp_sent'
p944
tp945
assg223
(dp946
S'piece'
p947
(lp948
(S'it'
p949
(I2725
I2725
tp950
S'pronoun'
p951
tp952
a(S'the trunk'
p953
(I2437
I2438
tp954
S'def_np'
p955
tp956
a(S"the piece that is the elephant's trunk"
p957
(I2410
I2416
tp958
S'def_np'
p959
tp960
a(S'that'
p961
(I2421
I2421
tp962
S'def_np'
p963
tp964
a(S'this big el shape which is on the left'
p965
(I2701
I2709
tp966
S'def_np'
p967
tp968
a(S'that'
p969
(I2436
I2436
tp970
S'def_np'
p971
tp972
asS'location'
p973
(lp974
(S"the elephant's trunk"
p975
(I2414
I2416
tp976
S'def_np'
p977
tp978
a(S'the trunk'
p979
(I2712
I2713
tp980
S'def_np'
p981
tp982
assg715
(dp983
S'piece'
p984
(lp985
(S'the cross'
p986
(I2235
I2236
tp987
S'def_np'
p988
tp989
asssg37
(dp990
S'99'
p991
(dp992
S'piece'
p993
(lp994
(S'another piece'
p995
(I2740
I2741
tp996
S'indef_np'
p997
tp998
assg806
(dp999
S'part_of_piece'
p1000
(lp1001
(S'the top part of the el'
p1002
(I2580
I2585
tp1003
S'def_np'
p1004
tp1005
a(S'the small piece in the middle'
p1006
(I2606
I2611
tp1007
S'def_np'
p1008
tp1009
asS'piece'
p1010
(lp1011
(S'it'
p1012
(I2333
I2333
tp1013
S'pronoun'
p1014
tp1015
a(S'that'
p1016
(I2449
I2449
tp1017
S'def_np'
p1018
tp1019
a(S'an upside down el'
p1020
(I2561
I2564
tp1021
S'indef_np'
p1022
tp1023
asS'location'
p1024
(lp1025
(S'next to the trunk'
p1026
(I2727
I2730
tp1027
S'pp'
p1028
tp1029
assg223
(dp1030
S'piece'
p1031
(lp1032
(S'the trunk'
p1033
(I2729
I2730
tp1034
S'def_np'
p1035
tp1036
assstp1037
a((I2751
I2814
tp1038
(dp1039
g37
(dp1040
g223
(dp1041
S'piece'
p1042
(lp1043
(S"the piece + i've got"
p1044
(I2756
I2760
tp1045
S'def_np'
p1046
tp1047
a(S'the  el shape'
p1048
(I2770
I2773
tp1049
S'def_np'
p1050
tp1051
a(S'that'
p1052
(I2775
I2775
tp1053
S'def_np'
p1054
tp1055
a(S'that'
p1056
(I2789
I2789
tp1057
S'def_np'
p1058
tp1059
asS'location'
p1060
(lp1061
g1047
ag1051
ag1055
ag1059
assstp1062
a((I2815
I2940
tp1063
(dp1064
g3
(dp1065
g463
(dp1066
S'piece'
p1067
(lp1068
(S'that block there'
p1069
(I2865
I2867
tp1070
S'def_np'
p1071
tp1072
asS'location'
p1073
(lp1074
(S'up one unit'
p1075
(I2876
I2878
tp1076
S'quant_np'
p1077
tp1078
assg715
(dp1079
S'piece'
p1080
(lp1081
(S'the cross'
p1082
(I2905
I2906
tp1083
S'def_np'
p1084
tp1085
asssg37
(dp1086
g463
(dp1087
S'part_of_piece'
p1088
(lp1089
(S'a sort of eh a block'
p1090
(I2826
I2831
tp1091
S'indef_np'
p1092
tp1093
a(S'one block '
p1094
(I2849
I2854
tp1095
S'quant_np'
p1096
tp1097
a(S'four pieces all together'
p1098
(I2838
I2841
tp1099
S'quant_np'
p1100
tp1101
asS'location'
p1102
(lp1103
(S'immediately adjacent to that'
p1104
(I2821
I2824
tp1105
S'pp'
p1106
tp1107
asS'piece'
p1108
(lp1109
(S'that'
p1110
(I2897
I2897
tp1111
S'def_np'
p1112
tp1113
a(S'the one that i just described'
p1114
(I2881
I2886
tp1115
S'def_np'
p1116
tp1117
assg223
(dp1118
S'piece'
p1119
(lp1120
(S'that'
p1121
(I2824
I2824
tp1122
S'def_np'
p1123
tp1124
assg715
(dp1125
S'piece'
p1126
(lp1127
(S'the cross'
p1128
(I2916
I2917
tp1129
S'def_np'
p1130
tp1131
assstp1132
a((I2941
I2989
tp1133
(dp1134
g37
(dp1135
g715
(dp1136
S'piece'
p1137
(lp1138
(S'the cross'
p1139
(I2941
I2942
tp1140
S'def_np'
p1141
tp1142
asS'location'
p1143
(lp1144
g1142
assstp1145
a((I3040
I3209
tp1146
(dp1147
g3
(dp1148
g715
(dp1149
S'piece'
p1150
(lp1151
(S'at the top   edge'
p1152
(I3131
I3136
tp1153
S'pp'
p1154
tp1155
a(S'right of the top    of the grid'
p1156
(I3190
I3205
tp1157
S'pp'
p1158
tp1159
asS'location'
p1160
(lp1161
g1155
ag1159
asssg37
(dp1162
g715
(dp1163
S'piece'
p1164
(lp1165
(S'it'
p1166
(I3090
I3090
tp1167
S'pronoun'
p1168
tp1169
a(S'it'
p1170
(I3099
I3099
tp1171
S'pronoun'
p1172
tp1173
a(S'it'
p1174
(I3177
I3177
tp1175
S'pronoun'
p1176
tp1177
assstp1178
a((I3210
I3267
tp1179
(dp1180
g3
(dp1181
g463
(dp1182
S'piece'
p1183
(lp1184
(S'that'
p1185
(I3264
I3264
tp1186
S'def_np'
p1187
tp1188
a(S'that'
p1189
(I3241
I3241
tp1190
S'def_np'
p1191
tp1192
a(S'this long piece which is like four   and then a little one coming out'
p1193
(I3218
I3233
tp1194
S'def_np'
p1195
tp1196
a(S'that'
p1197
(I3243
I3243
tp1198
S'def_np'
p1199
tp1200
a(S'that'
p1201
(I3247
I3247
tp1202
S'def_np'
p1203
tp1204
asS'location'
p1205
(lp1206
(S'bottom right of the cross'
p1207
(I3255
I3259
tp1208
S'pp'
p1209
tp1210
assg715
(dp1211
S'piece'
p1212
(lp1213
(S'the cross'
p1214
(I3251
I3252
tp1215
S'def_np'
p1216
tp1217
a(S'the cross'
p1218
(I3258
I3259
tp1219
S'def_np'
p1220
tp1221
assstp1222
a((I3269
I3393
tp1223
(dp1224
g3
(dp1225
g463
(dp1226
S'piece'
p1227
(lp1228
(S"the piece that's got four units and one coming down"
p1229
(I3362
I3371
tp1230
S'def_np'
p1231
tp1232
assg223
(dp1233
S'piece'
p1234
(lp1235
(S'the el'
p1236
(I3276
I3277
tp1237
S'def_np'
p1238
tp1239
a(S'this  eh trunk part which is the el'
p1240
(I3269
I3277
tp1241
S'def_np'
p1242
tp1243
a(S'this  eh trunk part'
p1244
(I3269
I3273
tp1245
S'def_np'
p1246
tp1247
a(S'it'
p1248
(I3285
I3285
tp1249
S'pronoun'
p1250
tp1251
asS'location'
p1252
(lp1253
(S'the bottom of the cross'
p1254
(I3287
I3291
tp1255
S'def_np'
p1256
tp1257
assg715
(dp1258
S'piece'
p1259
(lp1260
(S'the cross'
p1261
(I3290
I3291
tp1262
S'def_np'
p1263
tp1264
asssg37
(dp1265
g223
(dp1266
S'piece'
p1267
(lp1268
(S'it'
p1269
(I3308
I3308
tp1270
S'pronoun'
p1271
tp1272
assstp1273
a((I3394
I4349
tp1274
(dp1275
g3
(dp1276
g463
(dp1277
S'part_of_piece'
p1278
(lp1279
(S'that little block'
p1280
(I3446
I3448
tp1281
S'def_np'
p1282
tp1283
asS'piece'
p1284
(lp1285
(S'that'
p1286
(I4219
I4219
tp1287
S'def_np'
p1288
tp1289
assg806
(dp1290
S'part_of_piece'
p1291
(lp1292
(S'the left piece'
p1293
(I3563
I3565
tp1294
S'def_np'
p1295
tp1296
a(S'the top edge'
p1297
(I4268
I4270
tp1298
S'def_np'
p1299
tp1300
asS'piece'
p1301
(lp1302
(S"the shape   which i'm describing"
p1303
(I3416
I3422
tp1304
S'def_np'
p1305
tp1306
a(S"the piece the you're manipulating now"
p1307
(I4080
I4085
tp1308
S'def_np'
p1309
tp1310
a(S'this'
p1311
(I4003
I4003
tp1312
S'def_np'
p1313
tp1314
a(S'this piece that is next to it'
p1315
(I4255
I4261
tp1316
S'def_np'
p1317
tp1318
a(S'the this kind of weird el shape with the little block coming out of it'
p1319
(I3426
I3440
tp1320
S'def_np'
p1321
tp1322
a(S'that'
p1323
(I4089
I4089
tp1324
S'def_np'
p1325
tp1326
a(S'the eight shape'
p1327
(I4005
I4007
tp1328
S'def_np'
p1329
tp1330
a(S'that'
p1331
(I4285
I4285
tp1332
S'def_np'
p1333
tp1334
a(S'this one'
p1335
(I3940
I3941
tp1336
S'def_np'
p1337
tp1338
a(S"this last piece i've been describing"
p1339
(I3828
I3833
tp1340
S'def_np'
p1341
tp1342
a(S'the piece'
p1343
(I3837
I3838
tp1344
S'def_np'
p1345
tp1346
asS'location'
p1347
(lp1348
(S'next to this on the tight next to this el shape'
p1349
(I4095
I4105
tp1350
S'pp'
p1351
tp1352
a(S'next to it'
p1353
(I4259
I4261
tp1354
S'pp'
p1355
tp1356
assg223
(dp1357
S'piece'
p1358
(lp1359
(S'this el shape'
p1360
(I4103
I4105
tp1361
S'def_np'
p1362
tp1363
a(S'the trunk'
p1364
(I3583
I3584
tp1365
S'def_np'
p1366
tp1367
a(S'this trunk'
p1368
(I4062
I4063
tp1369
S'def_np'
p1370
tp1371
a(S'it'
p1372
(I4261
I4261
tp1373
S'pronoun'
p1374
tp1375
a(S'that shape there with  the trunk'
p1376
(I4243
I4251
tp1377
S'def_np'
p1378
tp1379
a(S'this el shape'
p1380
(I4071
I4073
tp1381
S'def_np'
p1382
tp1383
a(S'the el shape of the trunk'
p1384
(I3579
I3584
tp1385
S'def_np'
p1386
tp1387
a(S'the trunk'
p1388
(I3840
I3841
tp1389
S'def_np'
p1390
tp1391
a(S'the trunk'
p1392
(I4250
I4251
tp1393
S'def_np'
p1394
tp1395
assg991
(dp1396
S'part_of_piece'
p1397
(lp1398
(S'this long part'
p1399
(I3470
I3472
tp1400
S'def_np'
p1401
tp1402
asS'piece'
p1403
(lp1404
(S"piece that overlaps ehm this last piece i've been describing"
p1405
(I3824
I3833
tp1406
S'def_np'
p1407
tp1408
assg66
(dp1409
S'part_of_piece'
p1410
(lp1411
(S'it'
p1412
(I4329
I4329
tp1413
S'pronoun'
p1414
tp1415
asS'piece'
p1416
(lp1417
(S'the front leg'
p1418
(I4294
I4296
tp1419
S'def_np'
p1420
tp1421
a(S'the shape of like three units and two units next to it'
p1422
(I4318
I4329
tp1423
S'def_np'
p1424
tp1425
a(S'the front leg'
p1426
(I3463
I3465
tp1427
S'def_np'
p1428
tp1429
a(S'the front leg'
p1430
(I4307
I4309
tp1431
S'def_np'
p1432
tp1433
assg715
(dp1434
S'piece'
p1435
(lp1436
(S'the past  back of the head'
p1437
(I4033
I4049
tp1438
S'def_np'
p1439
tp1440
asssg37
(dp1441
g991
(dp1442
S'piece'
p1443
(lp1444
(S'the other piece'
p1445
(I4161
I4163
tp1446
S'def_np'
p1447
tp1448
assg463
(dp1449
S'piece'
p1450
(lp1451
(S'the a- sort of the block of four with the one coming off thee  bottom'
p1452
(I4185
I4200
tp1453
S'def_np'
p1454
tp1455
assg806
(dp1456
S'part_of_piece'
p1457
(lp1458
(S'the three pieces'
p1459
(I3515
I3517
tp1460
S'def_np'
p1461
tp1462
a(S'the piece to the right'
p1463
(I3528
I3532
tp1464
S'def_np'
p1465
tp1466
a(S'the top piece'
p1467
(I3490
I3492
tp1468
S'def_np'
p1469
tp1470
a(S'the top left piece'
p1471
(I3595
I3598
tp1472
S'def_np'
p1473
tp1474
a(S'it'
p1475
(I3587
I3587
tp1476
S'def_np'
p1477
tp1478
a(S'the left piece'
p1479
(I3543
I3545
tp1480
S'def_np'
p1481
tp1482
a(S'the three long pieces'
p1483
(I3520
I3523
tp1484
S'def_np'
p1485
tp1486
a(S'the top edge of it'
p1487
(I4129
I4133
tp1488
S'def_np'
p1489
tp1490
asS'piece'
p1491
(lp1492
(S'that'
p1493
(I3609
I3609
tp1494
S'def_np'
p1495
tp1496
a(S'this piece'
p1497
(I3891
I3892
tp1498
S'def_np'
p1499
tp1500
a(S'it'
p1501
(I4133
I4133
tp1502
S'pronoun'
p1503
tp1504
a(S'it'
p1505
(I3645
I3645
tp1506
S'pronoun'
p1507
tp1508
a(S'that'
p1509
(I3481
I3481
tp1510
S'def_np'
p1511
tp1512
a(S'the top edge of that'
p1513
(I3605
I3609
tp1514
S'def_np'
p1515
tp1516
a(S'the: bottom edge of the further most right piece of the el'
p1517
(I3616
I3627
tp1518
S'def_np'
p1519
tp1520
a(S'it'
p1521
(I3631
I3631
tp1522
S'pronoun'
p1523
tp1524
assg223
(dp1525
S'part_of_piece'
p1526
(lp1527
(S'the top edge of the trunk'
p1528
(I4138
I4143
tp1529
S'def_np'
p1530
tp1531
asS'piece'
p1532
(lp1533
g1531
assstp1534
a((I4350
I4907
tp1535
(dp1536
g3
(dp1537
g991
(dp1538
S'piece'
p1539
(lp1540
(S'that block'
p1541
(I4602
I4603
tp1542
S'def_np'
p1543
tp1544
a(S'the piece'
p1545
(I4593
I4594
tp1546
S'def_np'
p1547
tp1548
a(S'it'
p1549
(I4612
I4612
tp1550
S'pronoun'
p1551
tp1552
a(S'it'
p1553
(I4595
I4595
tp1554
S'pronoun'
p1555
tp1556
assg463
(dp1557
S'part_of_piece'
p1558
(lp1559
(S'those four: blocks'
p1560
(I4676
I4678
tp1561
S'def_np'
p1562
tp1563
a(S'that one coming out'
p1564
(I4438
I4441
tp1565
S'def_np'
p1566
tp1567
a(S'that'
p1568
(I4442
I4442
tp1569
S'def_np'
p1570
tp1571
a(S'one that kind of goes to the   overlaps towards the right'
p1572
(I4696
I4708
tp1573
S'quant_np'
p1574
tp1575
asS'piece'
p1576
(lp1577
(S'this  large piece'
p1578
(I4415
I4422
tp1579
S'def_np'
p1580
tp1581
a(S'this long piece'
p1582
(I4681
I4683
tp1583
S'def_np'
p1584
tp1585
a(S'that piece'
p1586
(I4478
I4479
tp1587
S'def_np'
p1588
tp1589
a(S'it'
p1590
(I4867
I4867
tp1591
S'pronoun'
p1592
tp1593
asS'desc_piece'
p1594
(lp1595
(S'which is you know four units and   one coming out'
p1596
(I4423
I4434
tp1597
S'attribution_sent'
p1598
tp1599
assg66
(dp1600
S'piece'
p1601
(lp1602
(S'a piece'
p1603
(I4729
I4730
tp1604
S'indef_np'
p1605
tp1606
assg806
(dp1607
S'piece'
p1608
(lp1609
(S'that'
p1610
(I4886
I4886
tp1611
S'def_np'
p1612
tp1613
assg715
(dp1614
S'piece'
p1615
(lp1616
(S'the cross'
p1617
(I4480
I4481
tp1618
S'def_np'
p1619
tp1620
a(S'the cross'
p1621
(I4883
I4884
tp1622
S'def_np'
p1623
tp1624
asS'location'
p1625
(lp1626
g1620
ag1624
asssg37
(dp1627
g991
(dp1628
S'part_of_piece'
p1629
(lp1630
(S"the piece that's coming off the block"
p1631
(I4566
I4572
tp1632
S'def_np'
p1633
tp1634
a(S'the block'
p1635
(I4571
I4572
tp1636
S'def_np'
p1637
tp1638
asS'piece'
p1639
(lp1640
(S'the piece that will making up those three'
p1641
(I4809
I4816
tp1642
S'def_np'
p1643
tp1644
a(S'the block'
p1645
(I4557
I4558
tp1646
S'def_np'
p1647
tp1648
a(S'it'
p1649
(I4637
I4637
tp1650
S'pronoun'
p1651
tp1652
a(S"this piece that's completing  the three pieces we've just been speaking about"
p1653
(I4526
I4544
tp1654
S'def_np'
p1655
tp1656
a(S'it'
p1657
(I4648
I4648
tp1658
S'pronoun'
p1659
tp1660
assg463
(dp1661
S'part_of_piece'
p1662
(lp1663
(S'the top of this block piece'
p1664
(I4836
I4841
tp1665
S'def_np'
p1666
tp1667
asS'piece'
p1668
(lp1669
g1667
asS'location'
p1670
(lp1671
g1667
assg806
(dp1672
S'piece'
p1673
(lp1674
(S'it'
p1675
(I4774
I4774
tp1676
S'pronoun'
p1677
tp1678
a(S'it'
p1679
(I4783
I4783
tp1680
S'pronoun'
p1681
tp1682
assstp1683
a((I4908
I4918
tp1684
(dp1685
g3
(dp1686
g715
(dp1687
S'piece'
p1688
(lp1689
(S'top left'
p1690
(I4914
I4915
tp1691
S'pp'
p1692
tp1693
asS'location'
p1694
(lp1695
g1693
assstp1696
a((I4919
I4966
tp1697
(dp1698
g3
(dp1699
S'9c'
p1700
(dp1701
S'piece'
p1702
(lp1703
(S'the next piece'
p1704
(I4957
I4959
tp1705
S'def_np'
p1706
tp1707
assg463
(dp1708
S'piece'
p1709
(lp1710
(S'this eh piece which makes a part of the elephants back'
p1711
(I4928
I4938
tp1712
S'def_np'
p1713
tp1714
assg715
(dp1715
S'piece'
p1716
(lp1717
(S"{that's}"
p1718
(I4922
I4922
tp1719
S'def_np'
p1720
tp1721
assstp1722
a((I4967
I5064
tp1723
(dp1724
g3
(dp1725
g1700
(dp1726
S'piece'
p1727
(lp1728
(S'it'
p1729
(I5014
I5014
tp1730
S'pronoun'
p1731
tp1732
a(S'it'
p1733
(I4987
I4987
tp1734
S'pronoun'
p1735
tp1736
a(S'that'
p1737
(I5037
I5037
tp1738
S'def_np'
p1739
tp1740
a(S'that'
p1741
(I5049
I5049
tp1742
S'def_np'
p1743
tp1744
a(S'it'
p1745
(I4971
I4971
tp1746
S'pronoun'
p1747
tp1748
a(S'that'
p1749
(I5011
I5011
tp1750
S'def_np'
p1751
tp1752
asS'comp_piece'
p1753
(lp1754
(S'a u shape'
p1755
(I4995
I4997
tp1756
S'indef_np'
p1757
tp1758
a(S'c shape'
p1759
(I5018
I5019
tp1760
S'indef_np'
p1761
tp1762
asS'location'
p1763
(lp1764
(S'the rest of the elephants head'
p1765
(I4977
I4982
tp1766
S'def_np'
p1767
tp1768
asS'desc_piece'
p1769
(lp1770
(S'it looks like a c shape'
p1771
(I5014
I5019
tp1772
S'comp_sent'
p1773
tp1774
a(S"a piece that's like  a u shape"
p1775
(I4988
I4997
tp1776
S'comp_sent'
p1777
tp1778
assg715
(dp1779
S'piece'
p1780
(lp1781
(S'the cross'
p1782
(I5041
I5042
tp1783
S'def_np'
p1784
tp1785
asssg37
(dp1786
g1700
(dp1787
S'piece'
p1788
(lp1789
(S'the u shape'
p1790
(I4998
I5000
tp1791
S'def_np'
p1792
tp1793
a(S'that'
p1794
(I5002
I5002
tp1795
S'def_np'
p1796
tp1797
a(S'that'
p1798
(I5024
I5024
tp1799
S'def_np'
p1800
tp1801
a(S'that'
p1802
(I5028
I5028
tp1803
S'def_np'
p1804
tp1805
assstp1806
a((I5065
I5358
tp1807
(dp1808
g3
(dp1809
g1700
(dp1810
S'piece'
p1811
(lp1812
(S'the c shape'
p1813
(I5139
I5141
tp1814
S'def_np'
p1815
tp1816
assg806
(dp1817
S'piece'
p1818
(lp1819
(S'the one before the c shape'
p1820
(I5136
I5141
tp1821
S'def_np'
p1822
tp1823
a(S'that'
p1824
(I5216
I5216
tp1825
S'def_np'
p1826
tp1827
a(S'this very kind of weird shape that we have some trouble with'
p1828
(I5143
I5154
tp1829
S'def_np'
p1830
tp1831
a(S'that'
p1832
(I5156
I5156
tp1833
S'def_np'
p1834
tp1835
asS'location'
p1836
(lp1837
(S'above  the front leg'
p1838
(I5164
I5171
tp1839
S'pp'
p1840
tp1841
a(S'next to the trunk'
p1842
(I5159
I5162
tp1843
S'pp'
p1844
tp1845
assg223
(dp1846
S'piece'
p1847
(lp1848
(S'the trunk'
p1849
(I5161
I5162
tp1850
S'def_np'
p1851
tp1852
assS'10p'
p1853
(dp1854
S'part_of_piece'
p1855
(lp1856
(S'this shape'
p1857
(I5240
I5241
tp1858
S'def_np'
p1859
tp1860
a(S'this shape'
p1861
(I5276
I5277
tp1862
S'def_np'
p1863
tp1864
a(S'four in the square and this one'
p1865
(I5282
I5288
tp1866
S'quant_np'
p1867
tp1868
a(S'that'
p1869
(I5303
I5303
tp1870
S'def_np'
p1871
tp1872
a(S'that'
p1873
(I5335
I5335
tp1874
S'def_np'
p1875
tp1876
asS'piece'
p1877
(lp1878
g1860
ag1864
ag1868
ag1872
ag1876
asS'comp_piece'
p1879
(lp1880
g1860
ag1864
ag1868
ag1872
ag1876
asS'location'
p1881
(lp1882
g1860
ag1864
ag1868
ag1872
ag1876
asS'desc_piece'
p1883
(lp1884
g1860
ag1864
ag1868
ag1872
ag1876
asssg37
(dp1885
g1700
(dp1886
S'piece'
p1887
(lp1888
(S'the c shape'
p1889
(I5122
I5124
tp1890
S'def_np'
p1891
tp1892
assg806
(dp1893
S'piece'
p1894
(lp1895
(S'the piece we just   placed before the c shape'
p1896
(I5114
I5124
tp1897
S'def_np'
p1898
tp1899
a(S'it'
p1900
(I5183
I5183
tp1901
S'pronoun'
p1902
tp1903
assS'10p i / 8f u'
p1904
(dp1905
S'comp_piece'
p1906
(lp1907
(S'a cross with the sort of the left-hand part of the cross missing'
p1908
(I5184
I5196
tp1909
S'indef_np'
p1910
tp1911
asS'desc_piece'
p1912
(lp1913
(S"it's a cross with the sort of the left-hand part of the cross missing"
p1914
(I5183
I5196
tp1915
S'comp_sent'
p1916
tp1917
assg1853
(dp1918
S'piece'
p1919
(lp1920
(S'that'
p1921
(I5112
I5112
tp1922
S'def_np'
p1923
tp1924
assstp1925
a((I5382
I5421
tp1926
(dp1927
g3
(dp1928
S'11i'
p1929
(dp1930
S'piece'
p1931
(lp1932
(S'the left of the front leg'
p1933
(I5412
I5417
tp1934
S'def_np'
p1935
tp1936
asS'location'
p1937
(lp1938
g1936
asssg37
(dp1939
g1929
(dp1940
S'piece'
p1941
(lp1942
(S'the last one'
p1943
(I5384
I5386
tp1944
S'def_np'
p1945
tp1946
a(S'this piece that makes up this leg'
p1947
(I5389
I5395
tp1948
S'def_np'
p1949
tp1950
asS'location'
p1951
(lp1952
g1946
ag1950
assstp1953
a.