(lp0
((I85
I153
tp1
(dp2
S'p-utts'
p3
(dp4
S'1l'
p5
(dp6
S'piece'
p7
(lp8
(S'the piece number one'
p9
(I97
I100
tp10
S'def_np'
p11
tp12
a(S'the easiest piece'
p13
(I108
I110
tp14
S'def_np'
p15
tp16
a(S'that'
p17
(I121
I121
tp18
S'def_np'
p19
tp20
a(S"a backwards 'l'"
p21
(I140
I142
tp22
S'indef_np'
p23
tp24
asS'comp_piece'
p25
(lp26
g12
ag16
ag20
ag24
asS'location'
p27
(lp28
g12
ag16
ag20
ag24
asS'desc_piece'
p29
(lp30
g12
ag16
ag20
ag24
asssS'e-utts'
p31
(dp32
g5
(dp33
S'piece'
p34
(lp35
(S'it'
p36
(I113
I113
tp37
S'pronoun'
p38
tp39
asS'location'
p40
(lp41
g39
assstp42
a((I154
I306
tp43
(dp44
g3
(dp45
S'0z'
p46
(dp47
S'piece'
p48
(lp49
(S'{the original} prepa- -placed piece'
p50
(I265
I269
tp51
S'def_np'
p52
tp53
a(S'the preplaced zi:'
p54
(I168
I170
tp55
S'def_np'
p56
tp57
a(S"that 'z'"
p58
(I182
I183
tp59
S'def_np'
p60
tp61
a(S'that'
p62
(I214
I214
tp63
S'def_np'
p64
tp65
a(S'the piece that was preplaced'
p66
(I209
I213
tp67
S'def_np'
p68
tp69
a(S'that'
p70
(I229
I229
tp71
S'def_np'
p72
tp73
assS'2n'
p74
(dp75
S'part_of_piece'
p76
(lp77
(S'the long part'
p78
(I273
I275
tp79
S'def_np'
p80
tp81
asS'location'
p82
(lp83
(S'the lower left of the  -placed piece'
p84
(I258
I269
tp85
S'def_np'
p86
tp87
a(S'to the left of the preplaced zi:'
p88
(I164
I170
tp89
S'pp'
p90
tp91
a(S'to the lower left of the  -placed piece'
p92
(I257
I269
tp93
S'pp'
p94
tp95
asS'desc_piece'
p96
(lp97
(S'it has  bottom'
p98
(I237
I242
tp99
S'attribution_sent'
p100
tp101
asS'piece'
p102
(lp103
(S'that'
p104
(I301
I301
tp105
S'def_np'
p106
tp107
a(S'number two'
p108
(I156
I157
tp109
S'def_np'
p110
tp111
a(S'it'
p112
(I186
I186
tp113
S'pronoun'
p114
tp115
a(S'it'
p116
(I174
I174
tp117
S'pronoun'
p118
tp119
a(S"a similiar shape  to that 'z'"
p120
(I175
I183
tp121
S'indef_np'
p122
tp123
a(S'it'
p124
(I225
I225
tp125
S'pronoun'
p126
tp127
a(S'it'
p128
(I237
I237
tp129
S'pronoun'
p130
tp131
a(S'that'
p132
(I255
I255
tp133
S'def_np'
p134
tp135
assS'3v'
p136
(dp137
S'piece'
p138
(lp139
(S'number three:'
p140
(I286
I287
tp141
S'def_np'
p142
tp143
asssg31
(dp144
g74
(dp145
S'piece'
p146
(lp147
(S"that's the  eh right"
p148
(I246
I252
tp149
S'other_sent'
p150
tp151
a(S'the  eh right'
p152
(I247
I252
tp153
S'def_np'
p154
tp155
asS'location'
p156
(lp157
g151
ag155
assstp158
a((I307
I1018
tp159
(dp160
g3
(dp161
S'9c'
p162
(dp163
S'piece'
p164
(lp165
(S'a zee'
p166
(I577
I578
tp167
S'indef_np'
p168
tp169
a(S'nine'
p170
(I585
I585
tp171
S'def_np'
p172
tp173
a(S'a zee'
p174
(I590
I591
tp175
S'indef_np'
p176
tp177
assg136
(dp178
S'part_of_piece'
p179
(lp180
(S'one'
p181
(I547
I547
tp182
S'quant_np'
p183
tp184
a(S'the top of it'
p185
(I602
I605
tp186
S'def_np'
p187
tp188
a(S'it'
p189
(I525
I525
tp190
S'pronoun'
p191
tp192
a(S'this side'
p193
(I613
I614
tp194
S'def_np'
p195
tp196
a(S'top back'
p197
(I835
I836
tp198
S'def_np'
p199
tp200
a(S''
p201
(I833
I834
tp202
S'def_np'
p203
tp204
a(S'the open end'
p205
(I494
I496
tp206
S'def_np'
p207
tp208
a(S'the other line'
p209
(I756
I758
tp210
S'def_np'
p211
tp212
a(S'one line'
p213
(I747
I748
tp214
S'quant_np'
p215
tp216
asS'comp_piece'
p217
(lp218
(S"an 'l'"
p219
(I686
I687
tp220
S'indef_np'
p221
tp222
a(S"upside down reverse 'l'"
p223
(I862
I865
tp224
S'indef_np'
p225
tp226
a(S'an upside down'
p227
(I803
I805
tp228
S'indef_np'
p229
tp230
asS'location'
p231
(lp232
(S'on the left-hand side right in the middle'
p233
(I728
I735
tp234
S'pp'
p235
tp236
a(S'in the middle'
p237
(I904
I906
tp238
S'pp'
p239
tp240
a(S'hard left in the middle'
p241
(I912
I916
tp242
S'pp'
p243
tp244
a(S'one piece down from the top left'
p245
(I320
I326
tp246
S'quant_np'
p247
tp248
a(S'to the upper left'
p249
(I315
I318
tp250
S'def_np'
p251
tp252
a(S'flush left center of the whole piece'
p253
(I479
I485
tp254
S'pp'
p255
tp256
a(S'in middle'
p257
(I771
I772
tp258
S'pp'
p259
tp260
asS'desc_piece'
p261
(lp262
(S"it's like an 'l'"
p263
(I684
I687
tp264
S'comp_sent'
p265
tp266
a(S"it's placed like an upside down 'l'"
p267
(I812
I818
tp268
S'other_sent'
p269
tp270
a(S"it's an upside down reverse 'l'"
p271
(I855
I860
tp272
S'comp_sent'
p273
tp274
a(S"it's an upside down 'l'"
p275
(I953
I957
tp276
S'comp_sent'
p277
tp278
a(S'if you had a square it would be two sides'
p279
(I331
I340
tp280
S'other_sent'
p281
tp282
asS'piece'
p283
(lp284
(S'number three'
p285
(I600
I601
tp286
S'def_np'
p287
tp288
a(S'it'
p289
(I605
I605
tp290
S'pronoun'
p291
tp292
a(S'it'
p293
(I684
I684
tp294
S'pronoun'
p295
tp296
a(S'it'
p297
(I739
I739
tp298
S'pronoun'
p299
tp300
a(S'it'
p301
(I849
I849
tp302
S'pronoun'
p303
tp304
a(S'it'
p305
(I855
I855
tp306
S'pronoun'
p307
tp308
a(S"it'll"
p309
(I947
I947
tp310
S'pronoun'
p311
tp312
a(S'it'
p313
(I953
I953
tp314
S'pronoun'
p315
tp316
a(S'it'
p317
(I994
I994
tp318
S'pronoun'
p319
tp320
a(S'it'
p321
(I336
I336
tp322
S'def_np'
p323
tp324
a(S'it'
p325
(I328
I328
tp326
S'pronoun'
p327
tp328
a(S'number three'
p329
(I309
I310
tp330
S'def_np'
p331
tp332
a(S'that'
p333
(I351
I351
tp334
S'def_np'
p335
tp336
a(S'it'
p337
(I488
I488
tp338
S'pronoun'
p339
tp340
a(S'it'
p341
(I471
I471
tp342
S'pronoun'
p343
tp344
a(S'it'
p345
(I812
I812
tp346
S'pronoun'
p347
tp348
a(S'it'
p349
(I769
I769
tp350
S'pronoun'
p351
tp352
a(S'it'
p353
(I802
I802
tp354
S'pronoun'
p355
tp356
assS'7x'
p357
(dp358
S'piece'
p359
(lp360
(S'a cross'
p361
(I574
I575
tp362
S'indef_np'
p363
tp364
a(S'seven'
p365
(I583
I583
tp366
S'def_np'
p367
tp368
a(S'a cross'
p369
(I587
I588
tp370
S'indef_np'
p371
tp372
asssg31
(dp373
g136
(dp374
S'part_of_piece'
p375
(lp376
(S'the top back'
p377
(I823
I825
tp378
S'def_np'
p379
tp380
a(S'it'
p381
(I508
I508
tp382
S'pronoun'
p383
tp384
a(S'the open end'
p385
(I516
I518
tp386
S'def_np'
p387
tp388
a(S"one line's:"
p389
(I786
I787
tp390
S'quant_np'
p391
tp392
a(S'it'
p393
(I792
I792
tp394
S'pronoun'
p395
tp396
asS'piece'
p397
(lp398
(S'that'
p399
(I532
I532
tp400
S'def_np'
p401
tp402
a(S'it'
p403
(I674
I674
tp404
S'pronoun'
p405
tp406
a(S'the piece'
p407
(I711
I712
tp408
S'def_np'
p409
tp410
a(S'it'
p411
(I879
I879
tp412
S'pronoun'
p413
tp414
a(S'it'
p415
(I873
I873
tp416
S'pronoun'
p417
tp418
a(S'it'
p419
(I919
I919
tp420
S'pronoun'
p421
tp422
a(S'it'
p423
(I971
I971
tp424
S'pronoun'
p425
tp426
a(S'it'
p427
(I967
I967
tp428
S'pronoun'
p429
tp430
a(S'that one'
p431
(I446
I447
tp432
S'def_np'
p433
tp434
a(S'that'
p435
(I468
I468
tp436
S'def_np'
p437
tp438
asS'comp_piece'
p439
(lp440
(S'half a square'
p441
(I454
I456
tp442
S'indef_np'
p443
tp444
asS'location'
p445
(lp446
(S'in the middle'
p447
(I907
I909
tp448
S'pp'
p449
tp450
asS'desc_piece'
p451
(lp452
(S"it's a square"
p453
(I674
I676
tp454
S'comp_sent'
p455
tp456
a(S'looks like eh half a square'
p457
(I451
I456
tp458
S'comp_sent'
p459
tp460
assg5
(dp461
S'piece'
p462
(lp463
(S"the first 'l'"
p464
(I794
I796
tp465
S'def_np'
p466
tp467
assstp468
a((I1019
I1202
tp469
(dp470
g3
(dp471
S'4t'
p472
(dp473
S'part_of_piece'
p474
(lp475
(S"the top of the 't'"
p476
(I1075
I1079
tp477
S'def_np'
p478
tp479
asS'piece'
p480
(lp481
(S'number four'
p482
(I1021
I1022
tp483
S'def_np'
p484
tp485
a(S'that'
p486
(I1045
I1045
tp487
S'def_np'
p488
tp489
a(S'it'
p490
(I1028
I1028
tp491
S'pronoun'
p492
tp493
a(S'the ti: square'
p494
(I1072
I1074
tp495
S'def_np'
p496
tp497
a(S'it'
p498
(I1059
I1059
tp499
S'pronoun'
p500
tp501
a(S"the 't'"
p502
(I1078
I1079
tp503
S'def_np'
p504
tp505
a(S'it'
p506
(I1117
I1117
tp507
S'pronoun'
p508
tp509
a(S'the only ti:'
p510
(I1142
I1144
tp511
S'def_np'
p512
tp513
a(S'it'
p514
(I1141
I1141
tp515
S'pronoun'
p516
tp517
a(S'the ti:'
p518
(I1136
I1137
tp519
S'def_np'
p520
tp521
a(S'that'
p522
(I1165
I1165
tp523
S'def_np'
p524
tp525
asS'comp_piece'
p526
(lp527
(S'a short ti: square'
p528
(I1034
I1037
tp529
S'indef_np'
p530
tp531
a(S'a ti: square'
p532
(I1030
I1032
tp533
S'indef_np'
p534
tp535
asS'location'
p536
(lp537
(S'against number one'
p538
(I1047
I1049
tp539
S'pp'
p540
tp541
a(S"in the lower right 'l'"
p542
(I1155
I1159
tp543
S'pp'
p544
tp545
assg5
(dp546
S'part_of_piece'
p547
(lp548
(S'number one'
p549
(I1048
I1049
tp550
S'def_np'
p551
tp552
a(S"the 'l'"
p553
(I1052
I1053
tp554
S'def_np'
p555
tp556
a(S"the first long 'l'"
p557
(I1054
I1057
tp558
S'def_np'
p559
tp560
a(S"the 'l'"
p561
(I1087
I1088
tp562
S'def_np'
p563
tp564
a(S"the lower right 'l'"
p565
(I1156
I1159
tp566
S'def_np'
p567
tp568
a(S"the first 'l'"
p569
(I1167
I1169
tp570
S'def_np'
p571
tp572
a(S'number one'
p573
(I1181
I1182
tp574
S'def_np'
p575
tp576
asS'piece'
p577
(lp578
g552
ag556
ag560
ag564
ag568
ag572
ag576
asS'location'
p579
(lp580
g552
ag556
ag560
ag564
ag568
ag572
ag576
asssg31
(dp581
g472
(dp582
S'piece'
p583
(lp584
(S'that'
p585
(I1131
I1131
tp586
S'def_np'
p587
tp588
a(S'it'
p589
(I1128
I1128
tp590
S'pronoun'
p591
tp592
assg5
(dp593
S'piece'
p594
(lp595
(S'that l'
p596
(I1196
I1197
tp597
S'def_np'
p598
tp599
assstp600
a((I1203
I1292
tp601
(dp602
g3
(dp603
g5
(dp604
S'piece'
p605
(lp606
(S'on the right-hand side'
p607
(I1283
I1286
tp608
S'pp'
p609
tp610
asS'location'
p611
(lp612
g610
asS'desc_piece'
p613
(lp614
g610
asssg31
(dp615
g472
(dp616
S'piece'
p617
(lp618
(S'it'
p619
(I1208
I1208
tp620
S'pronoun'
p621
tp622
assg5
(dp623
S'piece'
p624
(lp625
(S'on the right-hand side'
p626
(I1275
I1278
tp627
S'pp'
p628
tp629
a(S'extreme right-hand side'
p630
(I1279
I1281
tp631
S'pp'
p632
tp633
asS'location'
p634
(lp635
g629
ag633
asS'desc_piece'
p636
(lp637
g629
ag633
assstp638
a((I1355
I1489
tp639
(dp640
g3
(dp641
S'5y'
p642
(dp643
S'part_of_piece'
p644
(lp645
(S'the part of it'
p646
(I1445
I1448
tp647
S'def_np'
p648
tp649
a(S'the  longer side'
p650
(I1393
I1398
tp651
S'def_np'
p652
tp653
asS'piece'
p654
(lp655
(S'number fi:ve'
p656
(I1357
I1358
tp657
S'def_np'
p658
tp659
a(S'it'
p660
(I1423
I1423
tp661
S'pronoun'
p662
tp663
a(S'it'
p664
(I1448
I1448
tp665
S'pronoun'
p666
tp667
a(S"that'll"
p668
(I1382
I1382
tp669
S'def_np'
p670
tp671
a(S'it'
p672
(I1388
I1388
tp673
S'pronoun'
p674
tp675
a(S'correctly aligned t'
p676
(I1389
I1391
tp677
S'indef_np'
p678
tp679
asS'comp_piece'
p680
(lp681
(S'an odd shaped t'
p682
(I1361
I1364
tp683
S'indef_np'
p684
tp685
asS'location'
p686
(lp687
(S'in  the upper  middle'
p688
(I1411
I1416
tp689
S'pp'
p690
tp691
asS'desc_piece'
p692
(lp693
(S'number fi:ve i:s  an odd shaped t'
p694
(I1357
I1364
tp695
S'comp_sent'
p696
tp697
assg136
(dp698
S'piece'
p699
(lp700
(S'that number three piece which was the half square'
p701
(I1451
I1459
tp702
S'def_np'
p703
tp704
a(S'the half square'
p705
(I1457
I1459
tp706
S'def_np'
p707
tp708
a(S'that'
p709
(I1463
I1463
tp710
S'def_np'
p711
tp712
a(S'that'
p713
(I1470
I1470
tp714
S'def_np'
p715
tp716
asssg31
(dp717
g642
(dp718
S'piece'
p719
(lp720
(S'longer on one side'
p721
(I1371
I1374
tp722
S'other'
p723
tp724
asS'desc_piece'
p725
(lp726
g724
assstp727
a((I1490
I1578
tp728
(dp729
g3
(dp730
g472
(dp731
S'piece'
p732
(lp733
(S'number four ti:'
p734
(I1550
I1552
tp735
S'def_np'
p736
tp737
assg5
(dp738
S'piece'
p739
(lp740
(S"our number one 'l' in the lower right"
p741
(I1541
I1548
tp742
S'def_np'
p743
tp744
assS'6w'
p745
(dp746
S'part_of_piece'
p747
(lp748
(S'the top side'
p749
(I1512
I1514
tp750
S'def_np'
p751
tp752
a(S'two stairs'
p753
(I1518
I1519
tp754
S'quant_np'
p755
tp756
a(S'the lower side'
p757
(I1521
I1523
tp758
S'def_np'
p759
tp760
asS'desc_piece'
p761
(lp762
g752
ag756
ag760
asS'piece'
p763
(lp764
g752
ag756
ag760
asssg31
(dp765
g745
(dp766
S'piece'
p767
(lp768
(S'that'
p769
(I1506
I1506
tp770
S'def_np'
p771
tp772
a(S'it'
p773
(I1558
I1558
tp774
S'pronoun'
p775
tp776
a(S'that'
p777
(I1575
I1575
tp778
S'def_np'
p779
tp780
assstp781
a((I1579
I1658
tp782
(dp783
g3
(dp784
g162
(dp785
S'piece'
p786
(lp787
(S'that'
p788
(I1629
I1629
tp789
S'def_np'
p790
tp791
a(S"a 'c' shape"
p792
(I1616
I1618
tp793
S'indef_np'
p794
tp795
a(S'that'
p796
(I1653
I1653
tp797
S'def_np'
p798
tp799
a(S"another little 'c' piece"
p800
(I1649
I1652
tp801
S'indef_np'
p802
tp803
asS'location'
p804
(lp805
(S'in the very upper left corner'
p806
(I1620
I1625
tp807
S'pp'
p808
tp809
assg642
(dp810
S'piece'
p811
(lp812
(S'the odd shaped t'
p813
(I1600
I1603
tp814
S'def_np'
p815
tp816
assg357
(dp817
S'piece'
p818
(lp819
(S'seven is the swiss cross'
p820
(I1580
I1584
tp821
S'comp_sent'
p822
tp823
asS'location'
p824
(lp825
g823
asS'desc_piece'
p826
(lp827
g823
assstp828
a((I1659
I1863
tp829
(dp830
g3
(dp831
S'99'
p832
(dp833
S'piece'
p834
(lp835
(S'another piece'
p836
(I1739
I1740
tp837
S'indef_np'
p838
tp839
assg642
(dp840
S'part_of_piece'
p841
(lp842
(S'the longest side'
p843
(I1799
I1801
tp844
S'def_np'
p845
tp846
asS'location'
p847
(lp848
(S'a half an inch  to the left of the stairs'
p849
(I1814
I1824
tp850
S'pp'
p851
tp852
a(S'middle-ish'
p853
(I1683
I1683
tp854
S'other'
p855
tp856
a(S'upper middle'
p857
(I1691
I1692
tp858
S'pp'
p859
tp860
asS'piece'
p861
(lp862
(S'it'
p863
(I1810
I1810
tp864
S'pronoun'
p865
tp866
a(S'it'
p867
(I1716
I1716
tp868
S'pronoun'
p869
tp870
a(S'it'
p871
(I1708
I1708
tp872
S'pronoun'
p873
tp874
a(S'it'
p875
(I1701
I1701
tp876
S'pronoun'
p877
tp878
a(S'it'
p879
(I1680
I1680
tp880
S'pronoun'
p881
tp882
assS'10p'
p883
(dp884
S'piece'
p885
(lp886
(S'another piece'
p887
(I1831
I1832
tp888
S'indef_np'
p889
tp890
a(S'ten'
p891
(I1749
I1749
tp892
S'def_np'
p893
tp894
assS'8f'
p895
(dp896
S'piece'
p897
(lp898
(S'eight'
p899
(I1747
I1747
tp900
S'def_np'
p901
tp902
assg745
(dp903
S'piece'
p904
(lp905
(S'the stairs'
p906
(I1823
I1824
tp907
S'def_np'
p908
tp909
asssg31
(dp910
g642
(dp911
S'part_of_piece'
p912
(lp913
(S'the upper left-hand side of that weird shaped t'
p914
(I1761
I1769
tp915
S'def_np'
p916
tp917
a(S'the longest side'
p918
(I1790
I1792
tp919
S'def_np'
p920
tp921
asS'piece'
p922
(lp923
(S'it'
p924
(I1722
I1722
tp925
S'pronoun'
p926
tp927
a(S'the odd shaped t'
p928
(I1666
I1669
tp929
S'def_np'
p930
tp931
a(S'that'
p932
(I1674
I1674
tp933
S'def_np'
p934
tp935
a(S'it'
p936
(I1696
I1696
tp937
S'pronoun'
p938
tp939
a(S"that weird shaped 't'"
p940
(I1774
I1777
tp941
S'def_np'
p942
tp943
a(S'that weird shaped t'
p944
(I1766
I1769
tp945
S'def_np'
p946
tp947
a(S'a correctly aligned t'
p948
(I1784
I1787
tp949
S'indef_np'
p950
tp951
a(S'it'
p952
(I1727
I1727
tp953
S'pronoun'
p954
tp955
asS'location'
p956
(lp957
(S'middle-ish'
p958
(I1684
I1684
tp959
S'other'
p960
tp961
assg5
(dp962
S'piece'
p963
(lp964
(S'it'
p965
(I1861
I1861
tp966
S'pronoun'
p967
tp968
assg357
(dp969
S'piece'
p970
(lp971
(S'in the upper left-hand side of that weird shaped t'
p972
(I1760
I1769
tp973
S'pp'
p974
tp975
asS'location'
p976
(lp977
g975
assstp978
a((I1864
I1946
tp979
(dp980
g3
(dp981
g136
(dp982
S'piece'
p983
(lp984
(S'the square l'
p985
(I1885
I1887
tp986
S'def_np'
p987
tp988
a(S'that'
p989
(I1906
I1906
tp990
S'def_np'
p991
tp992
asssg31
(dp993
g642
(dp994
S'piece'
p995
(lp996
(S'this weird t'
p997
(I1925
I1927
tp998
S'def_np'
p999
tp1000
assg136
(dp1001
S'piece'
p1002
(lp1003
(S"that 'l' shape"
p1004
(I1872
I1874
tp1005
S'def_np'
p1006
tp1007
a(S"that 'l'"
p1008
(I1868
I1869
tp1009
S'def_np'
p1010
tp1011
a(S'that'
p1012
(I1919
I1919
tp1013
S'def_np'
p1014
tp1015
a(S'it'
p1016
(I1911
I1911
tp1017
S'pronoun'
p1018
tp1019
asS'location'
p1020
(lp1021
(S'in the middle'
p1022
(I1914
I1916
tp1023
S'pp'
p1024
tp1025
assg357
(dp1026
S'piece'
p1027
(lp1028
(S'the swiss cross'
p1029
(I1930
I1932
tp1030
S'def_np'
p1031
tp1032
assstp1033
a((I1947
I1965
tp1034
(dp1035
g3
(dp1036
g5
(dp1037
S'piece'
p1038
(lp1039
(S'in the lower right'
p1040
(I1956
I1959
tp1041
S'pp'
p1042
tp1043
asS'location'
p1044
(lp1045
g1043
assstp1046
a((I1966
I2039
tp1047
(dp1048
g3
(dp1049
g472
(dp1050
S'piece'
p1051
(lp1052
(S"it's eh t that's been flipped sideways"
p1053
(I2014
I2020
tp1054
S'indef_np'
p1055
tp1056
a(S'it'
p1057
(I2027
I2027
tp1058
S'pronoun'
p1059
tp1060
a(S'it'
p1061
(I2035
I2035
tp1062
S'pronoun'
p1063
tp1064
a(S"the nice 't'"
p1065
(I1972
I1974
tp1066
S'def_np'
p1067
tp1068
assg642
(dp1069
S'piece'
p1070
(lp1071
(S"the 't'"
p1072
(I1970
I1971
tp1073
S'def_np'
p1074
tp1075
asssg31
(dp1076
g472
(dp1077
S'piece'
p1078
(lp1079
(S'that'
p1080
(I1997
I1997
tp1081
S'def_np'
p1082
tp1083
a(S'that'
p1084
(I1994
I1994
tp1085
S'def_np'
p1086
tp1087
asS'location'
p1088
(lp1089
(S'next to it'
p1090
(I1999
I2001
tp1091
S'pp'
p1092
tp1093
assg5
(dp1094
S'piece'
p1095
(lp1096
(S'it ,'
p1097
(I2001
I2002
tp1098
S'pronoun'
p1099
tp1100
a(S'it'
p1101
(I2010
I2010
tp1102
S'pronoun'
p1103
tp1104
assstp1105
a((I2040
I2060
tp1106
(dp1107
g3
(dp1108
g745
(dp1109
S'piece'
p1110
(lp1111
(S'the stairs'
p1112
(I2044
I2045
tp1113
S'def_np'
p1114
tp1115
a(S'the stairs'
p1116
(I2050
I2051
tp1117
S'def_np'
p1118
tp1119
asssg31
(dp1120
g472
(dp1121
S'piece'
p1122
(lp1123
(S'it'
p1124
(I2058
I2058
tp1125
S'pronoun'
p1126
tp1127
assg745
(dp1128
S'location'
p1129
(lp1130
(S'above it'
p1131
(I2057
I2058
tp1132
S'pp'
p1133
tp1134
assstp1135
a((I2061
I2191
tp1136
(dp1137
g3
(dp1138
g472
(dp1139
S'piece'
p1140
(lp1141
(S'the t which is  center and down'
p1142
(I2109
I2116
tp1143
S'def_np'
p1144
tp1145
asS'location'
p1146
(lp1147
(S'about one half inch to the left of the stairs'
p1148
(I2096
I2105
tp1149
S'pp'
p1150
tp1151
assg745
(dp1152
S'piece'
p1153
(lp1154
(S'the stairs'
p1155
(I2079
I2080
tp1156
S'def_np'
p1157
tp1158
a(S'the stairs'
p1159
(I2104
I2105
tp1160
S'def_np'
p1161
tp1162
asssg31
(dp1163
g832
(dp1164
S'piece'
p1165
(lp1166
(S'that l shape'
p1167
(I2121
I2123
tp1168
S'def_np'
p1169
tp1170
a(S'it'
p1171
(I2141
I2141
tp1172
S'pronoun'
p1173
tp1174
assg357
(dp1175
S'piece'
p1176
(lp1177
(S'that'
p1178
(I2163
I2163
tp1179
S'def_np'
p1180
tp1181
a(S'your cross'
p1182
(I2168
I2169
tp1183
S'def_np'
p1184
tp1185
a(S'it'
p1186
(I2187
I2187
tp1187
S'pronoun'
p1188
tp1189
assstp1190
a((I2192
I2247
tp1191
(dp1192
g3
(dp1193
S'11i'
p1194
(dp1195
S'piece'
p1196
(lp1197
(S'the long piece'
p1198
(I2207
I2209
tp1199
S'def_np'
p1200
tp1201
a(S'number eleven'
p1202
(I2211
I2212
tp1203
S'def_np'
p1204
tp1205
a(S'it'
p1206
(I2218
I2218
tp1207
S'pronoun'
p1208
tp1209
a(S'it'
p1210
(I2244
I2244
tp1211
S'pronoun'
p1212
tp1213
asssg31
(dp1214
g1194
(dp1215
S'piece'
p1216
(lp1217
(S'that long piece'
p1218
(I2194
I2196
tp1219
S'def_np'
p1220
tp1221
a(S'a long piece'
p1222
(I2200
I2202
tp1223
S'indef_np'
p1224
tp1225
assstp1226
a((I2248
I2354
tp1227
(dp1228
g3
(dp1229
g832
(dp1230
S'piece'
p1231
(lp1232
(S'that'
p1233
(I2351
I2351
tp1234
S'def_np'
p1235
tp1236
a(S'a square'
p1237
(I2335
I2336
tp1238
S'indef_np'
p1239
tp1240
assg357
(dp1241
S'piece'
p1242
(lp1243
(S'in the corner'
p1244
(I2289
I2291
tp1245
S'pp'
p1246
tp1247
asS'location'
p1248
(lp1249
g1247
asssg31
(dp1250
g832
(dp1251
S'piece'
p1252
(lp1253
(S'it'
p1254
(I2347
I2347
tp1255
S'pronoun'
p1256
tp1257
a(S'a square'
p1258
(I2319
I2320
tp1259
S'indef_np'
p1260
tp1261
assg357
(dp1262
S'piece'
p1263
(lp1264
(S'this'
p1265
(I2298
I2298
tp1266
S'def_np'
p1267
tp1268
a(S'the swiss cross'
p1269
(I2300
I2302
tp1270
S'def_np'
p1271
tp1272
a(S'the swiss cross'
p1273
(I2308
I2310
tp1274
S'def_np'
p1275
tp1276
a(S'it'
p1277
(I2322
I2322
tp1278
S'pronoun'
p1279
tp1280
assstp1281
a((I2355
I2531
tp1282
(dp1283
g3
(dp1284
g642
(dp1285
S'part_of_piece'
p1286
(lp1287
(S'odd-shaped t'
p1288
(I2374
I2375
tp1289
S'def_np'
p1290
tp1291
a(S'it'
p1292
(I2410
I2410
tp1293
S'pronoun'
p1294
tp1295
a(S"the odd-shaped 't'"
p1296
(I2425
I2427
tp1297
S'def_np'
p1298
tp1299
a(S'it'
p1300
(I2435
I2435
tp1301
S'pronoun'
p1302
tp1303
a(S'it'
p1304
(I2454
I2454
tp1305
S'pronoun'
p1306
tp1307
a(S'the t'
p1308
(I2517
I2518
tp1309
S'def_np'
p1310
tp1311
a(S'the odd-shaped t'
p1312
(I2527
I2529
tp1313
S'def_np'
p1314
tp1315
asS'piece'
p1316
(lp1317
g1291
ag1295
ag1299
ag1303
ag1307
ag1311
ag1315
asS'location'
p1318
(lp1319
g1291
ag1295
ag1299
ag1303
ag1307
ag1311
ag1315
asssg31
(dp1320
g642
(dp1321
S'part_of_piece'
p1322
(lp1323
(S'one inch below the top'
p1324
(I2461
I2465
tp1325
S'quant_np'
p1326
tp1327
asS'piece'
p1328
(lp1329
g1327
asS'location'
p1330
(lp1331
g1327
assstp1332
a((I2532
I2804
tp1333
(dp1334
g3
(dp1335
g46
(dp1336
S'piece'
p1337
(lp1338
(S'it'
p1339
(I2736
I2736
tp1340
S'pronoun'
p1341
tp1342
a(S'it'
p1343
(I2739
I2739
tp1344
S'pronoun'
p1345
tp1346
a(S'the original piece that was there'
p1347
(I2596
I2601
tp1348
S'def_np'
p1349
tp1350
a(S'that'
p1351
(I2625
I2625
tp1352
S'def_np'
p1353
tp1354
a(S'the beginning piece'
p1355
(I2621
I2623
tp1356
S'def_np'
p1357
tp1358
a(S'that piece that was the beginning piece'
p1359
(I2617
I2623
tp1360
S'def_np'
p1361
tp1362
a(S'it'
p1363
(I2633
I2633
tp1364
S'pronoun'
p1365
tp1366
a(S'that original piece'
p1367
(I2551
I2553
tp1368
S'def_np'
p1369
tp1370
a(S"the original 'z' that was in there"
p1371
(I2543
I2549
tp1372
S'def_np'
p1373
tp1374
a(S'the original'
p1375
(I2562
I2563
tp1376
S'def_np'
p1377
tp1378
a(S'a piece'
p1379
(I2567
I2568
tp1380
S'indef_np'
p1381
tp1382
asS'desc_piece'
p1383
(lp1384
(S'that we started of with'
p1385
(I2603
I2607
tp1386
S'other_sent'
p1387
tp1388
assg832
(dp1389
S'piece'
p1390
(lp1391
(S'a piece'
p1392
(I2712
I2713
tp1393
S'indef_np'
p1394
tp1395
a(S'it'
p1396
(I2718
I2718
tp1397
S'pronoun'
p1398
tp1399
asS'desc_piece'
p1400
(lp1401
(g201
(I2721
I2723
tp1402
S'other'
p1403
tp1404
assg472
(dp1405
S'part_of_piece'
p1406
(lp1407
(S'the top of the t'
p1408
(I2746
I2750
tp1409
S'def_np'
p1410
tp1411
asS'piece'
p1412
(lp1413
(S'it'
p1414
(I2743
I2743
tp1415
S'pronoun'
p1416
tp1417
a(S'long t'
p1418
(I2752
I2753
tp1419
S'def_np'
p1420
tp1421
a(S'the t'
p1422
(I2749
I2750
tp1423
S'def_np'
p1424
tp1425
a(S'the t'
p1426
(I2730
I2731
tp1427
S'def_np'
p1428
tp1429
a(S'the ti:'
p1430
(I2576
I2577
tp1431
S'def_np'
p1432
tp1433
assg5
(dp1434
S'piece'
p1435
(lp1436
(S"the 'l'"
p1437
(I2579
I2580
tp1438
S'def_np'
p1439
tp1440
assg745
(dp1441
S'part_of_piece'
p1442
(lp1443
(S'the stairs'
p1444
(I2590
I2591
tp1445
S'def_np'
p1446
tp1447
a(S'the stairs'
p1448
(I2761
I2762
tp1449
S'def_np'
p1450
tp1451
asS'piece'
p1452
(lp1453
g1447
ag1451
asssg31
(dp1454
g46
(dp1455
S'piece'
p1456
(lp1457
(S'the starting piece'
p1458
(I2656
I2658
tp1459
S'def_np'
p1460
tp1461
a(S'the piece that was already there'
p1462
(I2649
I2654
tp1463
S'def_np'
p1464
tp1465
assg472
(dp1466
S'piece'
p1467
(lp1468
(S'the t that i just put in'
p1469
(I2664
I2670
tp1470
S'def_np'
p1471
tp1472
assg642
(dp1473
S'piece'
p1474
(lp1475
(S'it'
p1476
(I2771
I2771
tp1477
S'pronoun'
p1478
tp1479
a(S'it'
p1480
(I2780
I2780
tp1481
S'pronoun'
p1482
tp1483
a(S'it'
p1484
(I2786
I2786
tp1485
S'pronoun'
p1486
tp1487
assstp1488
a((I2805
I2870
tp1489
(dp1490
g3
(dp1491
g162
(dp1492
S'piece'
p1493
(lp1494
(S'something else'
p1495
(I2833
I2834
tp1496
S'indef_np'
p1497
tp1498
asS'location'
p1499
(lp1500
(S'in the very flush left corner'
p1501
(I2835
I2840
tp1502
S'pp'
p1503
tp1504
assg642
(dp1505
S'piece'
p1506
(lp1507
(S'the ti:'
p1508
(I2860
I2861
tp1509
S'def_np'
p1510
tp1511
assg357
(dp1512
S'piece'
p1513
(lp1514
(S'the cross'
p1515
(I2814
I2815
tp1516
S'def_np'
p1517
tp1518
asssg31
(dp1519
g357
(dp1520
S'piece'
p1521
(lp1522
(S'the cross'
p1523
(I2820
I2821
tp1524
S'def_np'
p1525
tp1526
a(S'it'
p1527
(I2850
I2850
tp1528
S'pronoun'
p1529
tp1530
asS'location'
p1531
(lp1532
g1526
ag1530
assstp1533
a((I2871
I3044
tp1534
(dp1535
g3
(dp1536
g642
(dp1537
S'piece'
p1538
(lp1539
(S'the odd-shaped t'
p1540
(I2879
I2881
tp1541
S'def_np'
p1542
tp1543
a(S'the  t'
p1544
(I2952
I2956
tp1545
S'def_np'
p1546
tp1547
a(S'the t'
p1548
(I2982
I2983
tp1549
S'def_np'
p1550
tp1551
assg895
(dp1552
S'part_of_piece'
p1553
(lp1554
(S'the protruding little part'
p1555
(I3001
I3004
tp1556
S'def_np'
p1557
tp1558
a(S"the big 'l' part"
p1559
(I2990
I2993
tp1560
S'def_np'
p1561
tp1562
a(S"the 'l'"
p1563
(I2921
I2922
tp1564
S'def_np'
p1565
tp1566
a(S"the 'l'"
p1567
(I2978
I2979
tp1568
S'def_np'
p1569
tp1570
a(S'that protruding part'
p1571
(I2931
I2933
tp1572
S'def_np'
p1573
tp1574
asS'comp_piece'
p1575
(lp1576
(S"a 'l'  with  something protruding out of its long side"
p1577
(I2897
I2908
tp1578
S'indef_np'
p1579
tp1580
a(g201
(I2887
I2888
tp1581
S'indef_np'
p1582
tp1583
asS'location'
p1584
(lp1585
(S'below the odd-shaped t'
p1586
(I2878
I2881
tp1587
S'pp'
p1588
tp1589
a(S'under the t'
p1590
(I2981
I2983
tp1591
S'pp'
p1592
tp1593
asS'desc_piece'
p1594
(lp1595
(S"eight is shaped like a 'l'  with  something protruding out of its long side"
p1596
(I2893
I2908
tp1597
S'comp_sent'
p1598
tp1599
a(S'eight is shaped like '
p1600
(I2883
I2888
tp1601
S'comp_sent'
p1602
tp1603
asS'piece'
p1604
(lp1605
(S'eight'
p1606
(I2893
I2893
tp1607
S'def_np'
p1608
tp1609
a(S'eight'
p1610
(I2883
I2883
tp1611
S'def_np'
p1612
tp1613
a(S'eight'
p1614
(I2873
I2873
tp1615
S'def_np'
p1616
tp1617
a(S'that'
p1618
(I2946
I2946
tp1619
S'def_np'
p1620
tp1621
asssg31
(dp1622
g642
(dp1623
S'piece'
p1624
(lp1625
(S'the t'
p1626
(I2975
I2976
tp1627
S'def_np'
p1628
tp1629
assg895
(dp1630
S'piece'
p1631
(lp1632
(S'the one you mean'
p1633
(I2915
I2918
tp1634
S'def_np'
p1635
tp1636
a(S'it'
p1637
(I2961
I2961
tp1638
S'pronoun'
p1639
tp1640
a(S'that'
p1641
(I2958
I2958
tp1642
S'def_np'
p1643
tp1644
a(S'that'
p1645
(I2965
I2965
tp1646
S'def_np'
p1647
tp1648
asS'location'
p1649
(lp1650
(S'under the t'
p1651
(I2974
I2976
tp1652
S'pp'
p1653
tp1654
assstp1655
a((I3045
I3074
tp1656
(dp1657
g3
(dp1658
g162
(dp1659
S'piece'
p1660
(lp1661
(S'nine'
p1662
(I3045
I3045
tp1663
S'def_np'
p1664
tp1665
a(S"the 'c' shape"
p1666
(I3047
I3049
tp1667
S'def_np'
p1668
tp1669
asS'location'
p1670
(lp1671
(S'towards the cross'
p1672
(I3067
I3069
tp1673
S'pp'
p1674
tp1675
a(S'in the upper left corner'
p1676
(I3053
I3057
tp1677
S'pp'
p1678
tp1679
assg357
(dp1680
S'piece'
p1681
(lp1682
(S'the cross'
p1683
(I3068
I3069
tp1684
S'def_np'
p1685
tp1686
assstp1687
a((I3075
I3187
tp1688
(dp1689
g3
(dp1690
g883
(dp1691
S'part_of_piece'
p1692
(lp1693
(S'the chimney'
p1694
(I3123
I3124
tp1695
S'def_np'
p1696
tp1697
asS'location'
p1698
(lp1699
(S'on the  right in the middle'
p1700
(I3101
I3109
tp1701
S'pp'
p1702
tp1703
a(S'next to the stairs'
p1704
(I3171
I3174
tp1705
S'pp'
p1706
tp1707
a(S'under the t'
p1708
(I3166
I3168
tp1709
S'pp'
p1710
tp1711
asS'desc_piece'
p1712
(lp1713
(S'ten i:s a square with a chimney on the right side'
p1714
(I3076
I3086
tp1715
S'comp_sent'
p1716
tp1717
asS'piece'
p1718
(lp1719
(S'a square with a chimney on the right side'
p1720
(I3078
I3086
tp1721
S'indef_np'
p1722
tp1723
a(S'ten'
p1724
(I3076
I3076
tp1725
S'def_np'
p1726
tp1727
assg642
(dp1728
S'piece'
p1729
(lp1730
(S'the t'
p1731
(I3167
I3168
tp1732
S'def_np'
p1733
tp1734
assg745
(dp1735
S'piece'
p1736
(lp1737
(S'the stairs'
p1738
(I3173
I3174
tp1739
S'def_np'
p1740
tp1741
asssg31
(dp1742
g883
(dp1743
S'part_of_piece'
p1744
(lp1745
(S'the chimney'
p1746
(I3115
I3116
tp1747
S'def_np'
p1748
tp1749
asS'location'
p1750
(lp1751
(S'under the ti:'
p1752
(I3159
I3161
tp1753
S'pp'
p1754
tp1755
asS'piece'
p1756
(lp1757
(S'chimney'
p1758
(I3134
I3134
tp1759
S'def_np'
p1760
tp1761
a(S'it'
p1762
(I3156
I3156
tp1763
S'pronoun'
p1764
tp1765
a(S'it'
p1766
(I3096
I3096
tp1767
S'pronoun'
p1768
tp1769
assg642
(dp1770
S'piece'
p1771
(lp1772
(S'the ti:'
p1773
(I3160
I3161
tp1774
S'def_np'
p1775
tp1776
assg745
(dp1777
S'piece'
p1778
(lp1779
(S'it'
p1780
(I3186
I3186
tp1781
S'pronoun'
p1782
tp1783
assstp1784
a((I3188
I3201
tp1785
(dp1786
g3
(dp1787
g46
(dp1788
S'piece'
p1789
(lp1790
(S"our original 'z'"
p1791
(I3198
I3200
tp1792
S'def_np'
p1793
tp1794
assg883
(dp1795
S'piece'
p1796
(lp1797
(S"into our original 'z'"
p1798
(I3197
I3200
tp1799
S'pp'
p1800
tp1801
asS'location'
p1802
(lp1803
g1801
assstp1804
a((I3202
I3288
tp1805
(dp1806
g31
(dp1807
g883
(dp1808
S'part_of_piece'
p1809
(lp1810
(S'it'
p1811
(I3280
I3280
tp1812
S'pronoun'
p1813
tp1814
a(S'it'
p1815
(I3285
I3285
tp1816
S'pronoun'
p1817
tp1818
asS'piece'
p1819
(lp1820
g1814
ag1818
assstp1821
a((I3289
I3299
tp1822
(dp1823
g3
(dp1824
g1194
(dp1825
S'piece'
p1826
(lp1827
(S'eleven'
p1828
(I3291
I3291
tp1829
S'def_np'
p1830
tp1831
a(S'your tower'
p1832
(I3293
I3294
tp1833
S'def_np'
p1834
tp1835
a(S'long thin piece'
p1836
(I3295
I3297
tp1837
S'def_np'
p1838
tp1839
assstp1840
a((I3300
I3316
tp1841
(dp1842
g3
(dp1843
g1194
(dp1844
S'piece'
p1845
(lp1846
(S'that'
p1847
(I3301
I3301
tp1848
S'def_np'
p1849
tp1850
assg895
(dp1851
S'piece'
p1852
(lp1853
(S'eight'
p1854
(I3314
I3314
tp1855
S'def_np'
p1856
tp1857
assstp1858
a((I3317
I3332
tp1859
(dp1860
g3
(dp1861
g1194
(dp1862
S'piece'
p1863
(lp1864
(S'that'
p1865
(I3323
I3323
tp1866
S'def_np'
p1867
tp1868
assstp1869
a((I3333
I3521
tp1870
(dp1871
g3
(dp1872
g162
(dp1873
S'piece'
p1874
(lp1875
(S"the 'c' shape"
p1876
(I3464
I3466
tp1877
S'def_np'
p1878
tp1879
assg1194
(dp1880
S'piece'
p1881
(lp1882
(S'it'
p1883
(I3336
I3336
tp1884
S'pronoun'
p1885
tp1886
a(S'it'
p1887
(I3344
I3344
tp1888
S'pronoun'
p1889
tp1890
a(S'it'
p1891
(I3365
I3365
tp1892
S'pronoun'
p1893
tp1894
a(S'it'
p1895
(I3396
I3396
tp1896
S'pronoun'
p1897
tp1898
a(S'it'
p1899
(I3369
I3369
tp1900
S'pronoun'
p1901
tp1902
a(S'it'
p1903
(I3386
I3386
tp1904
S'pronoun'
p1905
tp1906
asS'location'
p1907
(lp1908
(S'into '
p1909
(I3372
I3381
tp1910
S'pp'
p1911
tp1912
assg136
(dp1913
S'piece'
p1914
(lp1915
(S'twelve'
p1916
(I3412
I3412
tp1917
S'def_np'
p1918
tp1919
a(S'the square'
p1920
(I3476
I3477
tp1921
S'def_np'
p1922
tp1923
a(S'twelve'
p1924
(I3446
I3446
tp1925
S'def_np'
p1926
tp1927
a(S'that'
p1928
(I3475
I3475
tp1929
S'def_np'
p1930
tp1931
a(S'that'
p1932
(I3484
I3484
tp1933
S'def_np'
p1934
tp1935
a(S' the half square'
p1936
(I3491
I3497
tp1937
S'def_np'
p1938
tp1939
a(S'number three'
p1940
(I3487
I3488
tp1941
S'def_np'
p1942
tp1943
asS'location'
p1944
(lp1945
(S"under the 'c' shape"
p1946
(I3463
I3466
tp1947
S'pp'
p1948
tp1949
assg357
(dp1950
S'piece'
p1951
(lp1952
(S'the cross'
p1953
(I3380
I3381
tp1954
S'def_np'
p1955
tp1956
asssg31
(dp1957
g162
(dp1958
S'piece'
p1959
(lp1960
(S"the 'c' shape"
p1961
(I3470
I3472
tp1962
S'def_np'
p1963
tp1964
a(S"the 'c' shape"
p1965
(I3438
I3440
tp1966
S'def_np'
p1967
tp1968
assg1194
(dp1969
S'piece'
p1970
(lp1971
(S'it'
p1972
(I3403
I3403
tp1973
S'pronoun'
p1974
tp1975
assg136
(dp1976
S'piece'
p1977
(lp1978
(S'it'
p1979
(I3418
I3418
tp1980
S'pronoun'
p1981
tp1982
a(S'twelve'
p1983
(I3422
I3422
tp1984
S'pronoun'
p1985
tp1986
a(S'one last piece'
p1987
(I3456
I3458
tp1988
S'quant_np'
p1989
tp1990
a(S'it'
p1991
(I3503
I3503
tp1992
S'pronoun'
p1993
tp1994
asS'location'
p1995
(lp1996
(S'under the cross'
p1997
(I3426
I3428
tp1998
S'pp'
p1999
tp2000
a(S"under the 'c' shape"
p2001
(I3469
I3472
tp2002
S'pp'
p2003
tp2004
a(S"under the 'c' shape"
p2005
(I3437
I3440
tp2006
S'pp'
p2007
tp2008
assg357
(dp2009
S'piece'
p2010
(lp2011
(S'the cross'
p2012
(I3427
I3428
tp2013
S'def_np'
p2014
tp2015
assstp2016
a.