(lp0
((I19
I216
tp1
(dp2
S'p-utts'
p3
(dp4
S'1l'
p5
(dp6
S'part_of_piece'
p7
(lp8
(S'the first piece'
p9
(I22
I24
tp10
S'def_np'
p11
tp12
a(S'it'
p13
(I37
I37
tp14
S'pronoun'
p15
tp16
a(S'it'
p17
(I47
I47
tp18
S'pronoun'
p19
tp20
a(S'it'
p21
(I53
I53
tp22
S'pronoun'
p23
tp24
a(S'an inverted el'
p25
(I54
I56
tp26
S'indef_np'
p27
tp28
a(S'it'
p29
(I57
I57
tp30
S'pronoun'
p31
tp32
a(S'it'
p33
(I101
I101
tp34
S'pronoun'
p35
tp36
a(S'a backwards el'
p37
(I105
I107
tp38
S'indef_np'
p39
tp40
a(S'it'
p41
(I159
I159
tp42
S'pronoun'
p43
tp44
a(S'it'
p45
(I170
I170
tp46
S'pronoun'
p47
tp48
a(S'it'
p49
(I182
I182
tp50
S'pronoun'
p51
tp52
a(S'a mirror image of that'
p53
(I187
I191
tp54
S'indef_np'
p55
tp56
asS'piece'
p57
(lp58
g12
ag16
ag20
ag24
ag28
ag32
ag36
ag40
ag44
ag48
ag52
ag56
asS'comp_piece'
p59
(lp60
g12
ag16
ag20
ag24
ag28
ag32
ag36
ag40
ag44
ag48
ag52
ag56
asS'location'
p61
(lp62
g12
ag16
ag20
ag24
ag28
ag32
ag36
ag40
ag44
ag48
ag52
ag56
asS'desc_piece'
p63
(lp64
g12
ag16
ag20
ag24
ag28
ag32
ag36
ag40
ag44
ag48
ag52
ag56
asssS'e-utts'
p65
(dp66
g5
(dp67
S'part_of_piece'
p68
(lp69
(S'it looks like an actual el'
p70
(I147
I152
tp71
S'comp_sent'
p72
tp73
asS'piece'
p74
(lp75
g73
asS'comp_piece'
p76
(lp77
g73
asS'desc_piece'
p78
(lp79
g73
assstp80
a((I217
I848
tp81
(dp82
g3
(dp83
S'0z'
p84
(dp85
S'piece'
p86
(lp87
(S"the one that's already in there"
p88
(I726
I731
tp89
S'def_np'
p90
tp91
assS'2n'
p92
(dp93
S'comp_loc'
p94
(lp95
(S'one of the shapes on tetris'
p96
(I338
I343
tp97
S'indef_np'
p98
tp99
a(S"a guy's torso"
p100
(I419
I421
tp101
S'indef_np'
p102
tp103
asS'part_of_piece'
p104
(lp105
g99
ag103
asS'location'
p106
(lp107
g99
ag103
asS'desc_piece'
p108
(lp109
g99
ag103
asS'piece'
p110
(lp111
g99
ag103
asS'comp_piece'
p112
(lp113
g99
ag103
asssg65
(dp114
g84
(dp115
S'piece'
p116
(lp117
(S"one that's already in there for you"
p118
(I711
I717
tp119
S'def_np'
p120
tp121
a(S"the: eh one that's already in there"
p122
(I690
I696
tp123
S'def_np'
p124
tp125
a(S'it'
p126
(I702
I702
tp127
S'pronoun'
p128
tp129
assg92
(dp130
S'part_of_piece'
p131
(lp132
(S'the zed shape'
p133
(I365
I367
tp134
S'def_np'
p135
tp136
a(S'it'
p137
(I372
I372
tp138
S'pronoun'
p139
tp140
a(S'that'
p141
(I381
I381
tp142
S'def_np'
p143
tp144
a(S'that one'
p145
(I383
I384
tp146
S'def_np'
p147
tp148
a(S'it'
p149
(I391
I391
tp150
S'pronoun'
p151
tp152
a(S'it'
p153
(I400
I400
tp154
S'pronoun'
p155
tp156
a(S'it'
p157
(I442
I442
tp158
S'pronoun'
p159
tp160
a(S'it'
p161
(I654
I654
tp162
S'pronoun'
p163
tp164
a(S'it'
p165
(I669
I669
tp166
S'pronoun'
p167
tp168
a(S'it'
p169
(I686
I686
tp170
S'pronoun'
p171
tp172
a(S'it'
p173
(I700
I700
tp174
S'pronoun'
p175
tp176
a(S'it'
p177
(I802
I802
tp178
S'pronoun'
p179
tp180
asS'piece'
p181
(lp182
g136
ag140
ag144
ag148
ag152
ag156
ag160
ag164
ag168
ag172
ag176
ag180
assstp183
a((I849
I999
tp184
(dp185
g3
(dp186
S'3v'
p187
(dp188
S'part_of_piece'
p189
(lp190
(S'the angle'
p191
(I939
I940
tp192
S'def_np'
p193
tp194
asS'piece'
p195
(lp196
(S'it'
p197
(I874
I874
tp198
S'pronoun'
p199
tp200
a(S'number two'
p201
(I991
I992
tp202
S'def_np'
p203
tp204
a(S'it'
p205
(I863
I863
tp206
S'pronoun'
p207
tp208
a(S'it'
p209
(I906
I906
tp210
S'pronoun'
p211
tp212
a(S'a right angle'
p213
(I865
I867
tp214
S'indef_np'
p215
tp216
a(S'the next one'
p217
(I851
I853
tp218
S'def_np'
p219
tp220
a(S'it'
p221
(I862
I862
tp222
S'pronoun'
p223
tp224
a(S'it'
p225
(I900
I900
tp226
S'pronoun'
p227
tp228
asS'location'
p229
(lp230
(S'in the bottom trunk'
p231
(I908
I911
tp232
S'pp'
p233
tp234
a(S"the elephant's trunk"
p235
(I855
I857
tp236
S'def_np'
p237
tp238
a(S"the next one is the elephant's trunk"
p239
(I851
I857
tp240
S'other_sent'
p241
tp242
asS'desc_piece'
p243
(lp244
(S'that is even on both sides'
p245
(I868
I873
tp246
S'other_sent'
p247
tp248
a(S"it's  a right angle"
p249
(I863
I867
tp250
S'comp_sent'
p251
tp252
a(S'three blocks on both sides'
p253
(I882
I886
tp254
S'attribution_sent'
p255
tp256
assg5
(dp257
S'piece'
p258
(lp259
(S'number one'
p260
(I988
I989
tp261
S'def_np'
p262
tp263
asssg65
(dp264
g187
(dp265
S'part_of_piece'
p266
(lp267
(S'that'
p268
(I921
I921
tp269
S'def_np'
p270
tp271
a(S'it'
p272
(I950
I950
tp273
S'pronoun'
p274
tp275
a(S'it'
p276
(I953
I953
tp277
S'pronoun'
p278
tp279
a(S'that one'
p280
(I975
I976
tp281
S'def_np'
p282
tp283
asS'piece'
p284
(lp285
g271
ag275
ag279
ag283
assstp286
a((I1000
I1106
tp287
(dp288
g3
(dp289
g187
(dp290
S'piece'
p291
(lp292
(S'into the bottom  front left leg'
p293
(I1006
I1015
tp294
S'pp'
p295
tp296
a(S'his armpit'
p297
(I1029
I1030
tp298
S'indef_np'
p299
tp300
asS'location'
p301
(lp302
g296
ag300
asssg65
(dp303
g187
(dp304
S'piece'
p305
(lp306
(S'it'
p307
(I1099
I1099
tp308
S'pronoun'
p309
tp310
assstp311
a((I1107
I1459
tp312
(dp313
g3
(dp314
g84
(dp315
S'part_of_piece'
p316
(lp317
(S'the one in the middle'
p318
(I1379
I1383
tp319
S'def_np'
p320
tp321
asS'piece'
p322
(lp323
(S"the one that's in between two and four"
p324
(I1399
I1406
tp325
S'def_np'
p326
tp327
a(S'that'
p328
(I1395
I1395
tp329
S'def_np'
p330
tp331
a(S'that one'
p332
(I1425
I1426
tp333
S'def_np'
p334
tp335
assS'4t'
p336
(dp337
S'part_of_piece'
p338
(lp339
(S'the middle one'
p340
(I1165
I1167
tp341
S'def_np'
p342
tp343
a(S'the stem'
p344
(I1289
I1290
tp345
S'def_np'
p346
tp347
a(S'the trunk of the ti'
p348
(I1284
I1288
tp349
S'def_np'
p350
tp351
a(S'the middle one'
p352
(I1140
I1142
tp353
S'def_np'
p354
tp355
a(S'the head of the ti'
p356
(I1247
I1251
tp357
S'def_np'
p358
tp359
a(S'two one top of the middle one'
p360
(I1173
I1179
tp361
S'quant_np'
p362
tp363
a(S'the middle one'
p364
(I1177
I1179
tp365
S'def_np'
p366
tp367
a(S'the three on the bottom'
p368
(I1128
I1132
tp369
S'def_np'
p370
tp371
a(S'one  above the middle one'
p372
(I1137
I1142
tp373
S'quant_np'
p374
tp375
asS'piece'
p376
(lp377
(S'the next one'
p378
(I1107
I1109
tp379
S'def_np'
p380
tp381
a(S'it'
p382
(I1118
I1118
tp383
S'pronoun'
p384
tp385
a(S'it'
p386
(I1124
I1124
tp387
S'pronoun'
p388
tp389
a(S'a tetris piece'
p390
(I1120
I1122
tp391
S'indef_np'
p392
tp393
a(S'that'
p394
(I1326
I1326
tp395
S'def_np'
p396
tp397
a(S'it'
p398
(I1311
I1311
tp399
S'pronoun'
p400
tp401
a(S'four'
p402
(I1406
I1406
tp403
S'def_np'
p404
tp405
a(S'it'
p406
(I1219
I1219
tp407
S'pronoun'
p408
tp409
a(S'a ti:'
p410
(I1224
I1225
tp411
S'indef_np'
p412
tp413
a(S'a ti'
p414
(I1200
I1201
tp415
S'indef_np'
p416
tp417
a(S'it'
p418
(I1232
I1232
tp419
S'pronoun'
p420
tp421
a(S'that'
p422
(I1215
I1215
tp423
S'def_np'
p424
tp425
a(S'the ti'
p426
(I1250
I1251
tp427
S'def_np'
p428
tp429
a(S'it'
p430
(I1149
I1149
tp431
S'pronoun'
p432
tp433
a(S'the ti'
p434
(I1287
I1288
tp435
S'def_np'
p436
tp437
asS'location'
p438
(lp439
(S'the rest his back leg'
p440
(I1334
I1338
tp441
S'def_np'
p442
tp443
assg92
(dp444
S'piece'
p445
(lp446
(S'two'
p447
(I1404
I1404
tp448
S'def_np'
p449
tp450
a(S'that'
p451
(I1432
I1432
tp452
S'def_np'
p453
tp454
a(S'it'
p455
(I1441
I1441
tp456
S'pronoun'
p457
tp458
asssg65
(dp459
g336
(dp460
S'part_of_piece'
p461
(lp462
(S'the trunk of the ti'
p463
(I1273
I1277
tp464
S'def_np'
p465
tp466
a(S'the stem'
p467
(I1303
I1304
tp468
S'def_np'
p469
tp470
a(S'the trunk of the ti'
p471
(I1292
I1296
tp472
S'def_np'
p473
tp474
asS'piece'
p475
(lp476
(S'that'
p477
(I1370
I1370
tp478
S'def_np'
p479
tp480
a(S'that'
p481
(I1349
I1349
tp482
S'def_np'
p483
tp484
a(S'this'
p485
(I1357
I1357
tp486
S'def_np'
p487
tp488
a(S'the ti'
p489
(I1276
I1277
tp490
S'def_np'
p491
tp492
a(S'that'
p493
(I1197
I1197
tp494
S'def_np'
p495
tp496
a(S'the ti'
p497
(I1295
I1296
tp498
S'def_np'
p499
tp500
a(S'it'
p501
(I1345
I1345
tp502
S'pronoun'
p503
tp504
a(S'it'
p505
(I1315
I1315
tp506
S'pronoun'
p507
tp508
a(S'the ti'
p509
(I1190
I1191
tp510
S'def_np'
p511
tp512
assg92
(dp513
S'piece'
p514
(lp515
(S'it'
p516
(I1433
I1433
tp517
S'pronoun'
p518
tp519
assstp520
a((I1460
I2266
tp521
(dp522
g3
(dp523
g336
(dp524
S'part_of_piece'
p525
(lp526
(S'the one'
p527
(I1504
I1505
tp528
S'def_np'
p529
tp530
a(S'the three'
p531
(I1501
I1502
tp532
S'def_np'
p533
tp534
asS'piece'
p535
(lp536
(S'that tetris shape'
p537
(I1480
I1482
tp538
S'def_np'
p539
tp540
assS'5y'
p541
(dp542
S'part_of_piece'
p543
(lp544
(S'the middle one'
p545
(I1548
I1550
tp546
S'def_np'
p547
tp548
a(S'the appendage'
p549
(I1881
I1882
tp550
S'def_np'
p551
tp552
a(S'the additional cube'
p553
(I1542
I1544
tp554
S'def_np'
p555
tp556
a(S'the longest half'
p557
(I1874
I1876
tp558
S'def_np'
p559
tp560
a(S'the little   individual cube'
p561
(I1849
I1854
tp562
S'def_np'
p563
tp564
a(S'one of the sides'
p565
(I1557
I1560
tp566
S'quant_np'
p567
tp568
a(S'the long side'
p569
(I1783
I1785
tp570
S'def_np'
p571
tp572
a(S'four   in a line'
p573
(I1738
I1743
tp574
S'quant_np'
p575
tp576
a(S'one  off to the side'
p577
(I1746
I1751
tp578
S'quant_np'
p579
tp580
a(S'the bit without the   appendage on'
p581
(I1789
I1796
tp582
S'def_np'
p583
tp584
a(S'the appendage'
p585
(I1827
I1828
tp586
S'def_np'
p587
tp588
asS'location'
p589
(lp590
(S'directly under the last step'
p591
(I2052
I2056
tp592
S'pp'
p593
tp594
a(S'last step'
p595
(I2062
I2063
tp596
S'def_np'
p597
tp598
a(S"the top left of the elephant's back"
p599
(I1923
I1929
tp600
S'def_np'
p601
tp602
a(S'the top of its back'
p603
(I2161
I2165
tp604
S'def_np'
p605
tp606
a(S'two squares along from that'
p607
(I1975
I1979
tp608
S'quant_np'
p609
tp610
a(S'the left-hand side of that shape'
p611
(I2240
I2245
tp612
S'def_np'
p613
tp614
asS'desc_piece'
p615
(lp616
(S"it's five cubes"
p617
(I1515
I1517
tp618
S'attribution_sent'
p619
tp620
a(S"it's like  four   in a line and then one  off to the side"
p621
(I1735
I1751
tp622
S'attribution_sent'
p623
tp624
asS'piece'
p625
(lp626
(S'that'
p627
(I2049
I2049
tp628
S'def_np'
p629
tp630
a(S'that'
p631
(I1902
I1902
tp632
S'def_np'
p633
tp634
a(S'it'
p635
(I1555
I1555
tp636
S'pronoun'
p637
tp638
a(S'it'
p639
(I2160
I2160
tp640
S'pronoun'
p641
tp642
a(S"it's:"
p643
(I1950
I1950
tp644
S'pronoun'
p645
tp646
a(S'it'
p647
(I1974
I1974
tp648
S'pronoun'
p649
tp650
a(S'the next one'
p651
(I1461
I1463
tp652
S'def_np'
p653
tp654
a(S'it'
p655
(I1593
I1593
tp656
S'pronoun'
p657
tp658
a(S'that shape'
p659
(I2025
I2026
tp660
S'def_np'
p661
tp662
a(S'that one'
p663
(I1580
I1581
tp664
S'def_np'
p665
tp666
a(S'that'
p667
(I1778
I1778
tp668
S'def_np'
p669
tp670
a(S'it'
p671
(I1735
I1735
tp672
S'pronoun'
p673
tp674
a(S'it'
p675
(I1597
I1597
tp676
S'pronoun'
p677
tp678
a(S'that shape'
p679
(I2244
I2245
tp680
S'def_np'
p681
tp682
a(S'it'
p683
(I1515
I1515
tp684
S'pronoun'
p685
tp686
a(S'that'
p687
(I1915
I1915
tp688
S'def_np'
p689
tp690
assS'7x'
p691
(dp692
S'piece'
p693
(lp694
(S'that'
p695
(I1665
I1665
tp696
S'def_np'
p697
tp698
a(S'that'
p699
(I1676
I1676
tp700
S'def_np'
p701
tp702
a(S'that'
p703
(I1679
I1679
tp704
S'def_np'
p705
tp706
a(S'that'
p707
(I1686
I1686
tp708
S'def_np'
p709
tp710
asssg65
(dp711
S'99'
p712
(dp713
S'piece'
p714
(lp715
(S'this one that  could also possibly match that description'
p716
(I1610
I1619
tp717
S'def_np'
p718
tp719
assg541
(dp720
S'part_of_piece'
p721
(lp722
(S'the appendage'
p723
(I1834
I1835
tp724
S'def_np'
p725
tp726
a(S'the appendage'
p727
(I1820
I1821
tp728
S'def_np'
p729
tp730
asS'piece'
p731
(lp732
(S'that'
p733
(I1910
I1910
tp734
S'def_np'
p735
tp736
a(S'that'
p737
(I2185
I2185
tp738
S'def_np'
p739
tp740
a(S'that one'
p741
(I1566
I1567
tp742
S'def_np'
p743
tp744
a(S'it'
p745
(I2215
I2215
tp746
S'pronoun'
p747
tp748
a(S'that'
p749
(I2180
I2180
tp750
S'def_np'
p751
tp752
a(S'it'
p753
(I1731
I1731
tp754
S'pronoun'
p755
tp756
a(S'it'
p757
(I2086
I2086
tp758
S'pronoun'
p759
tp760
a(S'it'
p761
(I2127
I2127
tp762
S'pronoun'
p763
tp764
a(S'it'
p765
(I1980
I1980
tp766
S'pronoun'
p767
tp768
a(S'a:   lower case ti'
p769
(I1712
I1717
tp770
S'indef_np'
p771
tp772
a(S'the one  that just sort of makes it'
p773
(I1698
I1706
tp774
S'def_np'
p775
tp776
a(S'that'
p777
(I1814
I1814
tp778
S'def_np'
p779
tp780
asS'location'
p781
(lp782
(S'the la:st step'
p783
(I2067
I2069
tp784
S'def_np'
p785
tp786
a(S'the top left'
p787
(I1936
I1938
tp788
S'def_np'
p789
tp790
a(S'two along from that'
p791
(I2008
I2011
tp792
S'quant_np'
p793
tp794
a(S'on top'
p795
(I1804
I1805
tp796
S'pp'
p797
tp798
assg691
(dp799
S'part_of_piece'
p800
(lp801
(S'one of its appendages'
p802
(I1656
I1659
tp803
S'quant_np'
p804
tp805
asS'piece'
p806
(lp807
g805
assstp808
a((I2267
I2535
tp809
(dp810
g3
(dp811
g5
(dp812
S'piece'
p813
(lp814
(S'the first block'
p815
(I2428
I2430
tp816
S'def_np'
p817
tp818
assS'6w'
p819
(dp820
S'piece'
p821
(lp822
(S'the next one'
p823
(I2267
I2269
tp824
S'def_np'
p825
tp826
a(S'it'
p827
(I2307
I2307
tp828
S'pronoun'
p829
tp830
a(S'it'
p831
(I2316
I2316
tp832
S'pronoun'
p833
tp834
a(S'it'
p835
(I2341
I2341
tp836
S'pronoun'
p837
tp838
a(S'it'
p839
(I2355
I2355
tp840
S'pronoun'
p841
tp842
a(S'it'
p843
(I2363
I2363
tp844
S'pronoun'
p845
tp846
a(S'that'
p847
(I2424
I2424
tp848
S'def_np'
p849
tp850
asS'comp_piece'
p851
(lp852
g826
ag830
ag834
ag838
ag842
ag846
ag850
asS'location'
p853
(lp854
g826
ag830
ag834
ag838
ag842
ag846
ag850
asS'desc_piece'
p855
(lp856
g826
ag830
ag834
ag838
ag842
ag846
ag850
asssg65
(dp857
g819
(dp858
S'piece'
p859
(lp860
(S'it'
p861
(I2308
I2308
tp862
S'pronoun'
p863
tp864
a(S'it'
p865
(I2335
I2335
tp866
S'pronoun'
p867
tp868
a(S'this'
p869
(I2379
I2379
tp870
S'def_np'
p871
tp872
a(S'it'
p873
(I2410
I2410
tp874
S'pronoun'
p875
tp876
a(S'it'
p877
(I2416
I2416
tp878
S'pronoun'
p879
tp880
a(S"that one's"
p881
(I2433
I2434
tp882
S'def_np'
p883
tp884
asS'comp_piece'
p885
(lp886
g864
ag868
ag872
ag876
ag880
ag884
asS'location'
p887
(lp888
g864
ag868
ag872
ag876
ag880
ag884
asS'desc_piece'
p889
(lp890
g864
ag868
ag872
ag876
ag880
ag884
assstp891
a((I2536
I2586
tp892
(dp893
g3
(dp894
g691
(dp895
S'piece'
p896
(lp897
(S'the next one is a plus'
p898
(I2538
I2543
tp899
S'comp_sent'
p900
tp901
asS'location'
p902
(lp903
g901
asS'desc_piece'
p904
(lp905
g901
asssg65
(dp906
g691
(dp907
S'piece'
p908
(lp909
(S'on the back of his head'
p910
(I2558
I2563
tp911
S'pp'
p912
tp913
asS'location'
p914
(lp915
g913
assstp916
a((I2587
I2615
tp917
(dp918
g3
(dp919
g819
(dp920
S'piece'
p921
(lp922
(S'it'
p923
(I2610
I2610
tp924
S'pronoun'
p925
tp926
asssg65
(dp927
g819
(dp928
S'piece'
p929
(lp930
(S'that ""wario""-style doubleju'
p931
(I2593
I2595
tp932
S'def_np'
p933
tp934
assstp935
a((I2616
I2652
tp936
(dp937
g3
(dp938
g691
(dp939
S'piece'
p940
(lp941
(S'into the corresponding place on the back of his head'
p942
(I2622
I2631
tp943
S'pp'
p944
tp945
asS'location'
p946
(lp947
g945
asssg65
(dp948
g691
(dp949
S'location'
p950
(lp951
(S'it'
p952
(I2645
I2645
tp953
S'pp'
p954
tp955
assstp956
a((I2653
I2917
tp957
(dp958
g3
(dp959
g336
(dp960
S'part_of_piece'
p961
(lp962
(S'the three'
p963
(I2730
I2731
tp964
S'def_np'
p965
tp966
a(S'the one'
p967
(I2733
I2734
tp968
S'def_np'
p969
tp970
asS'piece'
p971
(lp972
(S'the one that was  the three and the one'
p973
(I2725
I2734
tp974
S'def_np'
p975
tp976
assS'8f'
p977
(dp978
S'part_of_piece'
p979
(lp980
(S'the next one'
p981
(I2703
I2705
tp982
S'def_np'
p983
tp984
a(S'that'
p985
(I2711
I2711
tp986
S'def_np'
p987
tp988
a(S'a tetris piece'
p989
(I2713
I2715
tp990
S'indef_np'
p991
tp992
a(S'it'
p993
(I2758
I2758
tp994
S'pronoun'
p995
tp996
a(S'it'
p997
(I2782
I2782
tp998
S'pronoun'
p999
tp1000
a(S'that shape'
p1001
(I2793
I2794
tp1002
S'pronoun'
p1003
tp1004
a(S'it'
p1005
(I2804
I2804
tp1006
S'pronoun'
p1007
tp1008
a(S'it'
p1009
(I2810
I2810
tp1010
S'pronoun'
p1011
tp1012
a(S'it'
p1013
(I2838
I2838
tp1014
S'pronoun'
p1015
tp1016
a(S'that'
p1017
(I2858
I2858
tp1018
S'def_np'
p1019
tp1020
a(S'it'
p1021
(I2878
I2878
tp1022
S'pronoun'
p1023
tp1024
asS'piece'
p1025
(lp1026
g984
ag988
ag992
ag996
ag1000
ag1004
ag1008
ag1012
ag1016
ag1020
ag1024
asS'comp_piece'
p1027
(lp1028
g984
ag988
ag992
ag996
ag1000
ag1004
ag1008
ag1012
ag1016
ag1020
ag1024
asS'location'
p1029
(lp1030
g984
ag988
ag992
ag996
ag1000
ag1004
ag1008
ag1012
ag1016
ag1020
ag1024
asS'desc_piece'
p1031
(lp1032
g984
ag988
ag992
ag996
ag1000
ag1004
ag1008
ag1012
ag1016
ag1020
ag1024
asssg65
(dp1033
g712
(dp1034
S'piece'
p1035
(lp1036
(S'another one'
p1037
(I2656
I2657
tp1038
S'indef_np'
p1039
tp1040
assg977
(dp1041
S'piece'
p1042
(lp1043
(S'it looks like s seven'
p1044
(I2827
I2831
tp1045
S'comp_sent'
p1046
tp1047
asS'comp_piece'
p1048
(lp1049
g1047
asS'desc_piece'
p1050
(lp1051
g1047
assstp1052
a((I2918
I3021
tp1053
(dp1054
g3
(dp1055
S'9c'
p1056
(dp1057
S'piece'
p1058
(lp1059
(S'the next one'
p1060
(I2919
I2921
tp1061
S'def_np'
p1062
tp1063
a(S'it'
p1064
(I2927
I2927
tp1065
S'pronoun'
p1066
tp1067
a(S'a u'
p1068
(I2929
I2930
tp1069
S'indef_np'
p1070
tp1071
a(S'c'
p1072
(I2932
I2932
tp1073
S'indef_np'
p1074
tp1075
a(S'it'
p1076
(I2957
I2957
tp1077
S'pronoun'
p1078
tp1079
a(S'a c'
p1080
(I2960
I2961
tp1081
S'indef_np'
p1082
tp1083
a(S'it'
p1084
(I2985
I2985
tp1085
S'pronoun'
p1086
tp1087
asS'comp_piece'
p1088
(lp1089
g1063
ag1067
ag1071
ag1075
ag1079
ag1083
ag1087
asS'desc_piece'
p1090
(lp1091
g1063
ag1067
ag1071
ag1075
ag1079
ag1083
ag1087
asssg65
(dp1092
g1056
(dp1093
S'piece'
p1094
(lp1095
(S'it'
p1096
(I2937
I2937
tp1097
S'pronoun'
p1098
tp1099
a(S'a c'
p1100
(I2938
I2939
tp1101
S'indef_np'
p1102
tp1103
a(S'that one'
p1104
(I2994
I2995
tp1105
S'def_np'
p1106
tp1107
asS'location'
p1108
(lp1109
g1099
ag1103
ag1107
asS'desc_piece'
p1110
(lp1111
g1099
ag1103
ag1107
assstp1112
a((I3022
I3129
tp1113
(dp1114
g3
(dp1115
g84
(dp1116
S'part_of_piece'
p1117
(lp1118
(S'the horizontal bit of the original  that was in there'
p1119
(I3096
I3110
tp1120
S'def_np'
p1121
tp1122
asS'piece'
p1123
(lp1124
(S'the original  that was in there'
p1125
(I3100
I3110
tp1126
S'def_np'
p1127
tp1128
assS'10p'
p1129
(dp1130
S'part_of_piece'
p1131
(lp1132
(S'a block of four'
p1133
(I3043
I3046
tp1134
S'indef_np'
p1135
tp1136
a(S'an additional one stock'
p1137
(I3053
I3056
tp1138
S'indef_np'
p1139
tp1140
asS'piece'
p1141
(lp1142
g1136
ag1140
asS'desc_piece'
p1143
(lp1144
g1136
ag1140
asssg65
(dp1145
g1129
(dp1146
S'piece'
p1147
(lp1148
(S'it'
p1149
(I3081
I3081
tp1150
S'pronoun'
p1151
tp1152
assS'11i'
p1153
(dp1154
S'piece'
p1155
(lp1156
(S'the last one'
p1157
(I3126
I3128
tp1158
S'def_np'
p1159
tp1160
assstp1161
a((I3130
I3160
tp1162
(dp1163
g3
(dp1164
g1153
(dp1165
S'piece'
p1166
(lp1167
(S'on his right front'
p1168
(I3136
I3139
tp1169
S'pp'
p1170
tp1171
asS'location'
p1172
(lp1173
g1171
asssg65
(dp1174
g1153
(dp1175
S'piece'
p1176
(lp1177
(S'that'
p1178
(I3145
I3145
tp1179
S'def_np'
p1180
tp1181
assstp1182
a.