(lp0
((I42
I291
tp1
(dp2
S'p-utts'
p3
(dp4
S'1l'
p5
(dp6
S'part_of_piece'
p7
(lp8
(S'piece one'
p9
(I78
I79
tp10
S'def_np'
p11
tp12
a(S'this'
p13
(I85
I85
tp14
S'def_np'
p15
tp16
a(S'an l shaped piece'
p17
(I87
I90
tp18
S'indef_np'
p19
tp20
a(S'that one'
p21
(I129
I130
tp22
S'def_np'
p23
tp24
a(S'its'
p25
(I136
I136
tp26
S'pronoun'
p27
tp28
a(S'it'
p29
(I143
I143
tp30
S'pronoun'
p31
tp32
a(S'it'
p33
(I145
I145
tp34
S'pronoun'
p35
tp36
a(S'its'
p37
(I183
I183
tp38
S'pronoun'
p39
tp40
a(S'it'
p41
(I190
I190
tp42
S'pronoun'
p43
tp44
a(S'an l shape'
p45
(I192
I194
tp46
S'indef_np'
p47
tp48
a(S'a backward l'
p49
(I209
I211
tp50
S'def_np'
p51
tp52
a(S'it'
p53
(I219
I219
tp54
S'pronoun'
p55
tp56
a(S'it'
p57
(I221
I221
tp58
S'pronoun'
p59
tp60
a(S'an backwards l'
p61
(I223
I225
tp62
S'indef_np'
p63
tp64
a(S'that'
p65
(I237
I237
tp66
S'def_np'
p67
tp68
asS'piece'
p69
(lp70
g12
ag16
ag20
ag24
ag28
ag32
ag36
ag40
ag44
ag48
ag52
ag56
ag60
ag64
ag68
asS'location'
p71
(lp72
g12
ag16
ag20
ag24
ag28
ag32
ag36
ag40
ag44
ag48
ag52
ag56
ag60
ag64
ag68
asS'desc_piece'
p73
(lp74
g12
ag16
ag20
ag24
ag28
ag32
ag36
ag40
ag44
ag48
ag52
ag56
ag60
ag64
ag68
asssS'e-utts'
p75
(dp76
S'99'
p77
(dp78
S'piece'
p79
(lp80
(S'the one with the low extra bit'
p81
(I106
I112
tp82
S'def_np'
p83
tp84
assS'2n'
p85
(dp86
S'piece'
p87
(lp88
(S'next one'
p89
(I289
I290
tp90
S'def_np'
p91
tp92
assg5
(dp93
S'piece'
p94
(lp95
(S'the back foot'
p96
(I243
I245
tp97
S'def_np'
p98
tp99
asS'location'
p100
(lp101
g99
assstp102
a((I292
I615
tp103
(dp104
g3
(dp105
g85
(dp106
S'part_of_piece'
p107
(lp108
(S'two blocks'
p109
(I436
I437
tp110
S'quant_np'
p111
tp112
a(S'three blocks'
p113
(I440
I441
tp114
S'quant_np'
p115
tp116
a(S'two at the top'
p117
(I478
I481
tp118
S'quant_np'
p119
tp120
a(S'three at the  bottom'
p121
(I483
I487
tp122
S'quant_np'
p123
tp124
asS'piece'
p125
(lp126
g112
ag116
ag120
ag124
asS'location'
p127
(lp128
g112
ag116
ag120
ag124
asS'desc_piece'
p129
(lp130
g112
ag116
ag120
ag124
asssg75
(dp131
S'0z'
p132
(dp133
S'part_of_piece'
p134
(lp135
(S'the first two of the original shape that is in the middle '
p136
(I572
I584
tp137
S'def_np'
p138
tp139
asS'piece'
p140
(lp141
(S'the original shape that is in the middle '
p142
(I576
I584
tp143
S'def_np'
p144
tp145
asS'location'
p146
(lp147
(S'in the middle '
p148
(I581
I584
tp149
S'pp'
p150
tp151
assg85
(dp152
S'part_of_piece'
p153
(lp154
(S'z shape'
p155
(I343
I344
tp156
S'def_np'
p157
tp158
a(S'it'
p159
(I349
I349
tp160
S'pronoun'
p161
tp162
a(S'the one which has stairs going up'
p163
(I350
I356
tp164
S'def_np'
p165
tp166
a(S'the one'
p167
(I461
I462
tp168
S'def_np'
p169
tp170
a(S'it'
p171
(I557
I557
tp172
S'pronoun'
p173
tp174
a(S'it'
p175
(I598
I598
tp176
S'pronoun'
p177
tp178
asS'piece'
p179
(lp180
g158
ag162
ag166
ag170
ag174
ag178
assstp181
a((I616
I702
tp182
(dp183
g3
(dp184
S'3v'
p185
(dp186
S'piece'
p187
(lp188
(S'part three'
p189
(I619
I620
tp190
S'def_np'
p191
tp192
a(S'part three'
p193
(I622
I623
tp194
S'def_np'
p195
tp196
a(S'an normal l'
p197
(I626
I628
tp198
S'indef_np'
p199
tp200
a(S'uniform one'
p201
(I633
I634
tp202
S'indef_np'
p203
tp204
a(S'an simple l'
p205
(I646
I648
tp206
S'indef_np'
p207
tp208
a(S'it'
p209
(I668
I668
tp210
S'pronoun'
p211
tp212
a(S'it'
p213
(I688
I688
tp214
S'pronoun'
p215
tp216
a(S'that'
p217
(I695
I695
tp218
S'def_np'
p219
tp220
asS'location'
p221
(lp222
g192
ag196
ag200
ag204
ag208
ag212
ag216
ag220
asS'desc_piece'
p223
(lp224
g192
ag196
ag200
ag204
ag208
ag212
ag216
ag220
asssg75
(dp225
S'3v i / 11i u'
p226
(dp227
S'piece'
p228
(lp229
(S'the one with just an l'
p230
(I638
I643
tp231
S'def_np'
p232
tp233
assg185
(dp234
S'piece'
p235
(lp236
(S'that'
p237
(I654
I654
tp238
S'def_np'
p239
tp240
assstp241
a((I703
I833
tp242
(dp243
g3
(dp244
S'4t'
p245
(dp246
S'part_of_piece'
p247
(lp248
(S'the rest of the t'
p249
(I816
I820
tp250
S'def_np'
p251
tp252
a(S'part of the t'
p253
(I792
I795
tp254
S'indef_np'
p255
tp256
a(S'the first bit'
p257
(I801
I803
tp258
S'def_np'
p259
tp260
asS'location'
p261
(lp262
(S"where you've put the first piece"
p263
(I726
I731
tp264
S'other'
p265
tp266
a(S'towards the stomach'
p267
(I830
I832
tp268
S'pp'
p269
tp270
asS'piece'
p271
(lp272
(S'a uniform t'
p273
(I716
I718
tp274
S'indef_np'
p275
tp276
a(S'it'
p277
(I710
I710
tp278
S'pronoun'
p279
tp280
a(S'that'
p281
(I775
I775
tp282
S'pronoun'
p283
tp284
a(S'it-'
p285
(I725
I725
tp286
S'pronoun'
p287
tp288
a(S'number four'
p289
(I703
I704
tp290
S'def_np'
p291
tp292
a(S'a t shape'
p293
(I711
I713
tp294
S'indef_np'
p295
tp296
a(S'it'
p297
(I773
I773
tp298
S'pronoun'
p299
tp300
assg5
(dp301
S'piece'
p302
(lp303
(S'the first piece'
p304
(I729
I731
tp305
S'def_np'
p306
tp307
a(S'the long l'
p308
(I738
I740
tp309
S'def_np'
p310
tp311
asS'location'
p312
(lp313
g307
ag311
asssg75
(dp314
g245
(dp315
S'piece'
p316
(lp317
(S'it'
p318
(I767
I767
tp319
S'pronoun'
p320
tp321
a(S'it'
p322
(I824
I824
tp323
S'pronoun'
p324
tp325
assS'5y'
p326
(dp327
S'piece'
p328
(lp329
(S'next'
p330
(I827
I827
tp331
S'def_np'
p332
tp333
assstp334
a((I834
I1199
tp335
(dp336
g3
(dp337
g326
(dp338
S'part_of_piece'
p339
(lp340
(S'the bottom box'
p341
(I1110
I1112
tp342
S'def_np'
p343
tp344
a(S'one to the side'
p345
(I907
I910
tp346
S'quant_np'
p347
tp348
a(S'four pieces'
p349
(I964
I965
tp350
S'quant_np'
p351
tp352
a(S'four pieces'
p353
(I862
I863
tp354
S'quant_np'
p355
tp356
a(S'number three'
p357
(I1136
I1137
tp358
S'def_np'
p359
tp360
a(S'one piece'
p361
(I973
I974
tp362
S'quant_np'
p363
tp364
a(S'one'
p365
(I865
I865
tp366
S'quant_np'
p367
tp368
asS'piece'
p369
(lp370
(S'it'
p371
(I1060
I1060
tp372
S'pronoun'
p373
tp374
a(S'it'
p375
(I1070
I1070
tp376
S'pronoun'
p377
tp378
a(S'it'
p379
(I847
I847
tp380
S'pronoun'
p381
tp382
a(S'it'
p383
(I1128
I1128
tp384
S'pronoun'
p385
tp386
a(S'number 5'
p387
(I834
I835
tp388
S'def_np'
p389
tp390
a(S'it'
p391
(I932
I932
tp392
S'pronoun'
p393
tp394
a(S'it'
p395
(I960
I960
tp396
S'pronoun'
p397
tp398
a(S'that one'
p399
(I928
I929
tp400
S'def_np'
p401
tp402
a(S'it'
p403
(I1193
I1193
tp404
S'pronoun'
p405
tp406
a(S'another t shaped'
p407
(I838
I840
tp408
S'indef_np'
p409
tp410
a(S'it'
p411
(I858
I858
tp412
S'pronoun'
p413
tp414
a(S'its'
p415
(I980
I980
tp416
S'pronoun'
p417
tp418
a(S'that one'
p419
(I923
I924
tp420
S'def_np'
p421
tp422
asS'location'
p423
(lp424
(S'left   '
p425
(I998
I1008
tp426
S'quant_np'
p427
tp428
a(S'the top   of its back'
p429
(I990
I996
tp430
S'def_np'
p431
tp432
a(S'the top of his back'
p433
(I945
I949
tp434
S'def_np'
p435
tp436
assg185
(dp437
S'piece'
p438
(lp439
(S'the l'
p440
(I1064
I1065
tp441
S'def_np'
p442
tp443
asssg75
(dp444
g326
(dp445
S'part_of_piece'
p446
(lp447
(S'small t'
p448
(I851
I852
tp449
S'def_np'
p450
tp451
a(S'the small t'
p452
(I873
I875
tp453
S'def_np'
p454
tp455
a(S'it'
p456
(I877
I877
tp457
S'pronoun'
p458
tp459
a(S'it'
p460
(I896
I896
tp461
S'pronoun'
p462
tp463
a(S'it'
p464
(I1093
I1093
tp465
S'pronoun'
p466
tp467
a(S'it'
p468
(I1115
I1115
tp469
S'pronoun'
p470
tp471
a(S'it'
p472
(I1144
I1144
tp473
S'pronoun'
p474
tp475
asS'piece'
p476
(lp477
g451
ag455
ag459
ag463
ag467
ag471
ag475
asS'comp_piece'
p478
(lp479
g451
ag455
ag459
ag463
ag467
ag471
ag475
asS'location'
p480
(lp481
g451
ag455
ag459
ag463
ag467
ag471
ag475
asS'desc_piece'
p482
(lp483
g451
ag455
ag459
ag463
ag467
ag471
ag475
assstp484
a((I1200
I1383
tp485
(dp486
g3
(dp487
S'6w'
p488
(dp489
S'piece'
p490
(lp491
(S'box six'
p492
(I1202
I1203
tp493
S'def_np'
p494
tp495
a(S'that'
p496
(I1207
I1207
tp497
S'def_np'
p498
tp499
a(S'the: m shaped one'
p500
(I1208
I1211
tp501
S'def_np'
p502
tp503
a(S'the stairs one'
p504
(I1214
I1216
tp505
S'def_np'
p506
tp507
a(S'that'
p508
(I1231
I1231
tp509
S'def_np'
p510
tp511
a(S'the stairs'
p512
(I1250
I1251
tp513
S'def_np'
p514
tp515
a(S'that'
p516
(I1254
I1254
tp517
S'def_np'
p518
tp519
asS'comp_piece'
p520
(lp521
g495
ag499
ag503
ag507
ag511
ag515
ag519
asS'location'
p522
(lp523
g495
ag499
ag503
ag507
ag511
ag515
ag519
asS'desc_piece'
p524
(lp525
g495
ag499
ag503
ag507
ag511
ag515
ag519
assS'7x'
p526
(dp527
S'part_of_piece'
p528
(lp529
(S'the last box'
p530
(I1304
I1306
tp531
S'def_np'
p532
tp533
asS'piece'
p534
(lp535
(S'that'
p536
(I1290
I1290
tp537
S'def_np'
p538
tp539
a(S'box seven'
p540
(I1274
I1275
tp541
S'def_np'
p542
tp543
a(S'it'
p544
(I1352
I1352
tp545
S'pronoun'
p546
tp547
a(S'the cross'
p548
(I1282
I1283
tp549
S'def_np'
p550
tp551
asS'location'
p552
(lp553
(S'at the back of its head'
p554
(I1354
I1359
tp555
S'pp'
p556
tp557
asssg75
(dp558
g488
(dp559
S'piece'
p560
(lp561
(S'the stairs'
p562
(I1239
I1240
tp563
S'def_np'
p564
tp565
assg326
(dp566
S'piece'
p567
(lp568
(S'the previous one'
p569
(I1372
I1374
tp570
S'def_np'
p571
tp572
assg526
(dp573
S'part_of_piece'
p574
(lp575
(S'the last box'
p576
(I1312
I1314
tp577
S'def_np'
p578
tp579
a(S'the last box'
p580
(I1293
I1295
tp581
S'def_np'
p582
tp583
asS'piece'
p584
(lp585
(S'it'
p586
(I1325
I1325
tp587
S'pronoun'
p588
tp589
assstp590
a((I1384
I1672
tp591
(dp592
g3
(dp593
g326
(dp594
S'part_of_piece'
p595
(lp596
(S'four boxes'
p597
(I1465
I1466
tp598
S'quant_np'
p599
tp600
a(S'one box'
p601
(I1468
I1469
tp602
S'quant_np'
p603
tp604
a(S'it'
p605
(I1499
I1499
tp606
S'pronoun'
p607
tp608
asS'piece'
p609
(lp610
(S'it'
p611
(I1577
I1577
tp612
S'pronoun'
p613
tp614
a(S'that'
p615
(I1510
I1510
tp616
S'def_np'
p617
tp618
a(S'it'
p619
(I1528
I1528
tp620
S'pronoun'
p621
tp622
a(S'it'
p623
(I1662
I1662
tp624
S'pronoun'
p625
tp626
a(S'it'
p627
(I1396
I1396
tp628
S'pronoun'
p629
tp630
a(S'the one with four boxes and one box'
p631
(I1462
I1469
tp632
S'def_np'
p633
tp634
a(S'it'
p635
(I1642
I1642
tp636
S'pronoun'
p637
tp638
a(S'its'
p639
(I1403
I1403
tp640
S'pronoun'
p641
tp642
a(S'it'
p643
(I1411
I1411
tp644
S'pronoun'
p645
tp646
asS'location'
p647
(lp648
(S'to the right more'
p649
(I1397
I1400
tp650
S'pp'
p651
tp652
assg185
(dp653
S'piece'
p654
(lp655
(S'that trunk bit'
p656
(I1515
I1517
tp657
S'def_np'
p658
tp659
a(S'the trunk bit'
p660
(I1532
I1534
tp661
S'def_np'
p662
tp663
a(S'the trunk piece'
p664
(I1544
I1546
tp665
S'def_np'
p666
tp667
a(S'it'
p668
(I1580
I1580
tp669
S'pronoun'
p670
tp671
a(S'the trunk'
p672
(I1667
I1668
tp673
S'def_np'
p674
tp675
asssg75
(dp676
g326
(dp677
S'part_of_piece'
p678
(lp679
(S'one box'
p680
(I1492
I1493
tp681
S'quant_np'
p682
tp683
a(S'four boxes'
p684
(I1478
I1479
tp685
S'quant_np'
p686
tp687
a(S'four boxes in a straight line'
p688
(I1485
I1490
tp689
S'quant_np'
p690
tp691
a(S'the last one'
p692
(I1416
I1418
tp693
S'def_np'
p694
tp695
a(S'one box'
p696
(I1481
I1482
tp697
S'quant_np'
p698
tp699
asS'piece'
p700
(lp701
(S'it'
p702
(I1587
I1587
tp703
S'pronoun'
p704
tp705
a(S'it'
p706
(I1592
I1592
tp707
S'pronoun'
p708
tp709
a(S'its'
p710
(I1425
I1425
tp711
S'pronoun'
p712
tp713
a(S'it'
p714
(I1565
I1565
tp715
S'pronoun'
p716
tp717
a(S'it'
p718
(I1650
I1650
tp719
S'pronoun'
p720
tp721
a(S'it'
p722
(I1619
I1619
tp723
S'pronoun'
p724
tp725
a(S'it'
p726
(I1626
I1626
tp727
S'pronoun'
p728
tp729
a(S'it'
p730
(I1558
I1558
tp731
S'pronoun'
p732
tp733
a(S'it'
p734
(I1505
I1505
tp735
S'pronoun'
p736
tp737
a(S'the previous one'
p738
(I1389
I1391
tp739
S'def_np'
p740
tp741
a(S'it'
p742
(I1654
I1654
tp743
S'pronoun'
p744
tp745
a(S'one with four boxes and one box'
p746
(I1476
I1482
tp747
S'indef_np'
p748
tp749
assg185
(dp750
S'part_of_piece'
p751
(lp752
(S'a part of the trunk'
p753
(I1596
I1600
tp754
S'indef_np'
p755
tp756
a(S'the fourth box'
p757
(I1629
I1631
tp758
S'def_np'
p759
tp760
a(S'the third'
p761
(I1652
I1653
tp762
S'def_np'
p763
tp764
a(S'the third box'
p765
(I1658
I1660
tp766
S'def_np'
p767
tp768
asS'piece'
p769
(lp770
g756
ag760
ag764
ag768
assstp771
a((I1673
I1712
tp772
(dp773
g3
(dp774
g488
(dp775
S'piece'
p776
(lp777
(S'the m'
p778
(I1680
I1681
tp779
S'def_np'
p780
tp781
a(S'the:   arse bit'
p782
(I1706
I1710
tp783
S'pronoun'
p784
tp785
asssg75
(dp786
g488
(dp787
S'piece'
p788
(lp789
(S'the m'
p790
(I1688
I1689
tp791
S'def_np'
p792
tp793
a(S'it'
p794
(I1695
I1695
tp795
S'pronoun'
p796
tp797
a(S'the m'
p798
(I1702
I1703
tp799
S'def_np'
p800
tp801
assstp802
a((I1713
I1844
tp803
(dp804
g3
(dp805
g326
(dp806
S'part_of_piece'
p807
(lp808
(S'four boxes'
p809
(I1816
I1817
tp810
S'quant_np'
p811
tp812
asS'piece'
p813
(lp814
(S'the t bit , that we are talking about'
p815
(I1717
I1725
tp816
S'def_np'
p817
tp818
a(S'that'
p819
(I1734
I1734
tp820
S'def_np'
p821
tp822
asS'location'
p823
(lp824
(S'at the top'
p825
(I1818
I1820
tp826
S'pp'
p827
tp828
assg488
(dp829
S'piece'
p830
(lp831
(S'the m bit'
p832
(I1750
I1752
tp833
S'def_np'
p834
tp835
asssg75
(dp836
g326
(dp837
S'piece'
p838
(lp839
(S'it'
p840
(I1791
I1791
tp841
S'pronoun'
p842
tp843
a(S'it'
p844
(I1830
I1830
tp845
S'pronoun'
p846
tp847
a(S'it'
p848
(I1835
I1835
tp849
S'pronoun'
p850
tp851
assstp852
a((I1845
I1906
tp853
(dp854
g3
(dp855
g526
(dp856
S'piece'
p857
(lp858
(S'the cross piece'
p859
(I1848
I1850
tp860
S'def_np'
p861
tp862
a(S'uniform cross'
p863
(I1867
I1868
tp864
S'def_np'
p865
tp866
a(S'that'
p867
(I1876
I1876
tp868
S'def_np'
p869
tp870
asS'location'
p871
(lp872
g862
ag866
ag870
asssg75
(dp873
g526
(dp874
S'piece'
p875
(lp876
(S'at the back of its head'
p877
(I1878
I1883
tp878
S'pp'
p879
tp880
asS'location'
p881
(lp882
g880
assstp883
a((I1907
I2355
tp884
(dp885
g3
(dp886
g326
(dp887
S'part_of_piece'
p888
(lp889
(S'four blocks on top'
p890
(I2057
I2060
tp891
S'quant_np'
p892
tp893
a(S'the bit on the bottom'
p894
(I2085
I2089
tp895
S'def_np'
p896
tp897
a(S'one block on the bottom'
p898
(I2076
I2080
tp899
S'quant_np'
p900
tp901
a(S'the other one'
p902
(I2256
I2258
tp903
S'def_np'
p904
tp905
a(S'four block   s'
p906
(I2239
I2243
tp907
S'quant_np'
p908
tp909
asS'piece'
p910
(lp911
(S'it'
p912
(I2280
I2280
tp913
S'pronoun'
p914
tp915
a(S'this t piece'
p916
(I2042
I2044
tp917
S'def_np'
p918
tp919
a(S'it'
p920
(I2116
I2116
tp921
S'pronoun'
p922
tp923
a(S'it'
p924
(I2127
I2127
tp925
S'pronoun'
p926
tp927
a(S'it'
p928
(I2132
I2132
tp929
S'pronoun'
p930
tp931
a(S'it'
p932
(I2347
I2347
tp933
S'pronoun'
p934
tp935
a(S'it'
p936
(I2225
I2225
tp937
S'pronoun'
p938
tp939
a(S'this'
p940
(I2062
I2062
tp941
S'def_np'
p942
tp943
a(S'it'
p944
(I2144
I2144
tp945
S'pronoun'
p946
tp947
a(S'it'
p948
(I2119
I2119
tp949
S'pronoun'
p950
tp951
a(S'it'
p952
(I2051
I2051
tp953
S'pronoun'
p954
tp955
a(S'your t piece'
p956
(I2339
I2341
tp957
S'def_np'
p958
tp959
a(S'it'
p960
(I2293
I2293
tp961
S'pronoun'
p962
tp963
a(S'that'
p964
(I2330
I2330
tp965
S'def_np'
p966
tp967
a(S'this   t piece'
p968
(I1909
I1913
tp969
S'def_np'
p970
tp971
assg488
(dp972
S'piece'
p973
(lp974
(S'the m piece'
p975
(I2303
I2305
tp976
S'def_np'
p977
tp978
a(S'the arse piece'
p979
(I2311
I2313
tp980
S'def_np'
p981
tp982
a(S'the m piece'
p983
(I2315
I2317
tp984
S'def_np'
p985
tp986
a(S'that'
p987
(I2337
I2337
tp988
S'def_np'
p989
tp990
asssg75
(dp991
g326
(dp992
S'part_of_piece'
p993
(lp994
(S'four blocks on top'
p995
(I2071
I2074
tp996
S'quant_np'
p997
tp998
a(S'it'
p999
(I2104
I2104
tp1000
S'pronoun'
p1001
tp1002
a(S'it'
p1003
(I2156
I2156
tp1004
S'pronoun'
p1005
tp1006
a(S'it'
p1007
(I2164
I2164
tp1008
S'pronoun'
p1009
tp1010
a(S'it'
p1011
(I2181
I2181
tp1012
S'pronoun'
p1013
tp1014
a(S'a box'
p1015
(I2190
I2191
tp1016
S'indef_np'
p1017
tp1018
asS'piece'
p1019
(lp1020
g998
ag1002
ag1006
ag1010
ag1014
ag1018
assstp1021
a((I2356
I2494
tp1022
(dp1023
g3
(dp1024
g488
(dp1025
S'piece'
p1026
(lp1027
(S'the arse'
p1028
(I2457
I2458
tp1029
S'def_np'
p1030
tp1031
assg526
(dp1032
S'piece'
p1033
(lp1034
(S'the cross'
p1035
(I2425
I2426
tp1036
S'def_np'
p1037
tp1038
a(S'this cross piece'
p1039
(I2362
I2364
tp1040
S'def_np'
p1041
tp1042
a(S'it'
p1043
(I2429
I2429
tp1044
S'pronoun'
p1045
tp1046
asS'location'
p1047
(lp1048
(S'at the back on top of his head'
p1049
(I2432
I2439
tp1050
S'pp'
p1051
tp1052
a(S'the elephants head'
p1053
(I2401
I2403
tp1054
S'def_np'
p1055
tp1056
a(S'at the back of its head'
p1057
(I2368
I2373
tp1058
S'pp'
p1059
tp1060
asssg75
(dp1061
g488
(dp1062
S'piece'
p1063
(lp1064
(S'the arse'
p1065
(I2386
I2387
tp1066
S'def_np'
p1067
tp1068
a(S'the arse bit'
p1069
(I2452
I2454
tp1070
S'def_np'
p1071
tp1072
assg326
(dp1073
S'piece'
p1074
(lp1075
(S'the t'
p1076
(I2389
I2390
tp1077
S'def_np'
p1078
tp1079
assg526
(dp1080
S'piece'
p1081
(lp1082
(S'it'
p1083
(I2448
I2448
tp1084
S'pronoun'
p1085
tp1086
asS'location'
p1087
(lp1088
(S'in the slot between the arse and the t'
p1089
(I2382
I2390
tp1090
S'pp'
p1091
tp1092
assstp1093
a((I2495
I2599
tp1094
(dp1095
g3
(dp1096
g488
(dp1097
S'piece'
p1098
(lp1099
(S'the arse bit'
p1100
(I2503
I2505
tp1101
S'def_np'
p1102
tp1103
a(S'this m piece'
p1104
(I2507
I2509
tp1105
S'def_np'
p1106
tp1107
a(S'backward stairs'
p1108
(I2589
I2590
tp1109
S'def_np'
p1110
tp1111
asS'location'
p1112
(lp1113
g1103
ag1107
ag1111
asssg75
(dp1114
g488
(dp1115
S'piece'
p1116
(lp1117
(S'the arse bit'
p1118
(I2498
I2500
tp1119
S'def_np'
p1120
tp1121
a(S'the arse piece'
p1122
(I2549
I2551
tp1123
S'def_np'
p1124
tp1125
a(S'the arse piece'
p1126
(I2565
I2567
tp1127
S'def_np'
p1128
tp1129
a(S'that'
p1130
(I2575
I2575
tp1131
S'def_np'
p1132
tp1133
a(S'backward stairs'
p1134
(I2584
I2585
tp1135
S'def_np'
p1136
tp1137
assstp1138
a((I2600
I2675
tp1139
(dp1140
g3
(dp1141
g326
(dp1142
S'part_of_piece'
p1143
(lp1144
(S'the top bit of it'
p1145
(I2626
I2630
tp1146
S'def_np'
p1147
tp1148
asS'piece'
p1149
(lp1150
(S'it'
p1151
(I2630
I2630
tp1152
S'pronoun'
p1153
tp1154
a(S'this t piece'
p1155
(I2601
I2603
tp1156
S'def_np'
p1157
tp1158
a(S'it'
p1159
(I2617
I2617
tp1160
S'pronoun'
p1161
tp1162
a(S'it'
p1163
(I2634
I2634
tp1164
S'pronoun'
p1165
tp1166
a(S'that piece'
p1167
(I2666
I2667
tp1168
S'def_np'
p1169
tp1170
a(S'four and one'
p1171
(I2612
I2614
tp1172
S'quant_np'
p1173
tp1174
asS'location'
p1175
(lp1176
(S'at the top of the back'
p1177
(I2642
I2647
tp1178
S'pp'
p1179
tp1180
a(S'one block away from the stair piece'
p1181
(I2635
I2641
tp1182
S'quant_np'
p1183
tp1184
a(S'one space to the left'
p1185
(I2659
I2663
tp1186
S'quant_np'
p1187
tp1188
assg488
(dp1189
S'piece'
p1190
(lp1191
(S'the stair piece'
p1192
(I2639
I2641
tp1193
S'def_np'
p1194
tp1195
asssg75
(dp1196
g326
(dp1197
S'piece'
p1198
(lp1199
(S'it'
p1200
(I2672
I2672
tp1201
S'pronoun'
p1202
tp1203
assg488
(dp1204
S'piece'
p1205
(lp1206
(S'the stairpiece'
p1207
(I2651
I2652
tp1208
S'def_np'
p1209
tp1210
assstp1211
a((I2676
I2706
tp1212
(dp1213
g3
(dp1214
g526
(dp1215
S'piece'
p1216
(lp1217
(S'this cross'
p1218
(I2677
I2678
tp1219
S'def_np'
p1220
tp1221
a(S'it'
p1222
(I2704
I2704
tp1223
S'pronoun'
p1224
tp1225
asssg75
(dp1226
g526
(dp1227
S'piece'
p1228
(lp1229
(S'it'
p1230
(I2694
I2694
tp1231
S'pronoun'
p1232
tp1233
asS'location'
p1234
(lp1235
g1233
assstp1236
a((I2707
I2710
tp1237
(dp1238
g3
(dp1239
S'8f'
p1240
(dp1241
S'piece'
p1242
(lp1243
(S'number eight'
p1244
(I2707
I2708
tp1245
S'def_np'
p1246
tp1247
assstp1248
a((I2711
I3074
tp1249
(dp1250
g3
(dp1251
g326
(dp1252
S'piece'
p1253
(lp1254
(S'the t'
p1255
(I3018
I3019
tp1256
S'def_np'
p1257
tp1258
a(S'it'
p1259
(I3067
I3067
tp1260
S'pronoun'
p1261
tp1262
a(S"the t that you've put there"
p1263
(I2991
I2996
tp1264
S'def_np'
p1265
tp1266
assg1240
(dp1267
S'part_of_piece'
p1268
(lp1269
(S'the: piece that comes out at the top'
p1270
(I2862
I2869
tp1271
S'indef_np'
p1272
tp1273
a(S'three blocks'
p1274
(I2775
I2776
tp1275
S'quant_np'
p1276
tp1277
a(S'the one piece'
p1278
(I2878
I2880
tp1279
S'def_np'
p1280
tp1281
a(S'the top left bit that comes out'
p1282
(I2959
I2965
tp1283
S'def_np'
p1284
tp1285
asS'piece'
p1286
(lp1287
(S'that'
p1288
(I2812
I2812
tp1289
S'def_np'
p1290
tp1291
a(S'that'
p1292
(I2803
I2803
tp1293
S'def_np'
p1294
tp1295
a(S'it'
p1296
(I2824
I2824
tp1297
S'pronoun'
p1298
tp1299
a(S'it'
p1300
(I3059
I3059
tp1301
S'pronoun'
p1302
tp1303
a(S'it'
p1304
(I2721
I2721
tp1305
S'pronoun'
p1306
tp1307
a(S'it'
p1308
(I2906
I2906
tp1309
S'pronoun'
p1310
tp1311
a(S'it'
p1312
(I2711
I2711
tp1313
S'pronoun'
p1314
tp1315
a(S'it'
p1316
(I2731
I2731
tp1317
S'pronoun'
p1318
tp1319
a(S'it'
p1320
(I2972
I2972
tp1321
S'pronoun'
p1322
tp1323
a(S'it'
p1324
(I2987
I2987
tp1325
S'pronoun'
p1326
tp1327
a(S'that-'
p1328
(I2943
I2943
tp1329
S'def_np'
p1330
tp1331
a(S'it'
p1332
(I2936
I2936
tp1333
S'pronoun'
p1334
tp1335
a(S'a really   non uniform piece'
p1336
(I2722
I2728
tp1337
S'indef_np'
p1338
tp1339
a(S'that'
p1340
(I2946
I2946
tp1341
S'def_np'
p1342
tp1343
asS'comp_piece'
p1344
(lp1345
(S'a gun'
p1346
(I2715
I2716
tp1347
S'indef_np'
p1348
tp1349
asS'location'
p1350
(lp1351
(S'next to the cross'
p1352
(I3022
I3025
tp1353
S'pp'
p1354
tp1355
a(S"under the t that you've put there"
p1356
(I2990
I2996
tp1357
S'pp'
p1358
tp1359
a(S'under it'
p1360
(I3066
I3067
tp1361
S'pp'
p1362
tp1363
asS'desc_piece'
p1364
(lp1365
(S'it looks like  a gun'
p1366
(I2711
I2716
tp1367
S'comp_sent'
p1368
tp1369
assg185
(dp1370
S'piece'
p1371
(lp1372
(S"the trunk piece that you've put in"
p1373
(I2948
I2954
tp1374
S'def_np'
p1375
tp1376
a(S'the: trunk piece'
p1377
(I2975
I2977
tp1378
S'def_np'
p1379
tp1380
assg526
(dp1381
S'piece'
p1382
(lp1383
(S'the cross'
p1384
(I3024
I3025
tp1385
S'def_np'
p1386
tp1387
asssg75
(dp1388
g326
(dp1389
S'piece'
p1390
(lp1391
(S'the t'
p1392
(I3002
I3003
tp1393
S'def_np'
p1394
tp1395
a(S'the t'
p1396
(I3054
I3055
tp1397
S'def_np'
p1398
tp1399
a(S'the t'
p1400
(I3046
I3047
tp1401
S'def_np'
p1402
tp1403
assg1240
(dp1404
S'part_of_piece'
p1405
(lp1406
(S'one to the side below it'
p1407
(I2744
I2749
tp1408
S'quant_np'
p1409
tp1410
a(S'an l shape'
p1411
(I2840
I2842
tp1412
S'indef_np'
p1413
tp1414
a(S'the little pieces coming out at the middle'
p1415
(I2909
I2916
tp1416
S'def_np'
p1417
tp1418
a(S'one to the right'
p1419
(I2785
I2788
tp1420
S'quant_np'
p1421
tp1422
a(S'it'
p1423
(I2749
I2749
tp1424
S'pronoun'
p1425
tp1426
a(S'one to the side'
p1427
(I2739
I2742
tp1428
S'quant_np'
p1429
tp1430
a(S'an extra little bit coming out ?'
p1431
(I2844
I2850
tp1432
S'indef_np'
p1433
tp1434
a(S'three up'
p1435
(I2736
I2737
tp1436
S'quant_np'
p1437
tp1438
a(S'three up'
p1439
(I2780
I2781
tp1440
S'quant_np'
p1441
tp1442
a(S'one shooting off from the middle'
p1443
(I2791
I2796
tp1444
S'quant_np'
p1445
tp1446
asS'piece'
p1447
(lp1448
(S'it'
p1449
(I2979
I2979
tp1450
S'pronoun'
p1451
tp1452
a(S'it'
p1453
(I3052
I3052
tp1454
S'pronoun'
p1455
tp1456
a(S'it'
p1457
(I2839
I2839
tp1458
S'pronoun'
p1459
tp1460
a(S'it'
p1461
(I2941
I2941
tp1462
S'pronoun'
p1463
tp1464
a(S'it'
p1465
(I2897
I2897
tp1466
S'pronoun'
p1467
tp1468
a(S'this'
p1469
(I2808
I2808
tp1470
S'def_np'
p1471
tp1472
a(S'it'
p1473
(I2835
I2835
tp1474
S'pronoun'
p1475
tp1476
a(S'an l shape with an extra little bit coming out ?'
p1477
(I2840
I2850
tp1478
S'indef_np'
p1479
tp1480
a(S'that'
p1481
(I2758
I2758
tp1482
S'def_np'
p1483
tp1484
a(S'it'
p1485
(I2815
I2815
tp1486
S'pronoun'
p1487
tp1488
asS'location'
p1489
(lp1490
(S'unnder the uniform cross'
p1491
(I3008
I3011
tp1492
S'pp'
p1493
tp1494
a(S'next to the trunk'
p1495
(I3029
I3032
tp1496
S'pp'
p1497
tp1498
a(S'under the t ?'
p1499
(I3001
I3004
tp1500
S'pp'
p1501
tp1502
assg185
(dp1503
S'piece'
p1504
(lp1505
(S'the trunk'
p1506
(I3031
I3032
tp1507
S'def_np'
p1508
tp1509
a(S'the trunk'
p1510
(I2983
I2984
tp1511
S'def_np'
p1512
tp1513
assg526
(dp1514
S'piece'
p1515
(lp1516
(S'the uniform cross'
p1517
(I3009
I3011
tp1518
S'def_np'
p1519
tp1520
assstp1521
a((I3075
I3225
tp1522
(dp1523
g3
(dp1524
g245
(dp1525
S'piece'
p1526
(lp1527
(S'this t piece'
p1528
(I3131
I3133
tp1529
S'def_np'
p1530
tp1531
assg326
(dp1532
S'part_of_piece'
p1533
(lp1534
(S'one down'
p1535
(I3181
I3182
tp1536
S'quant_np'
p1537
tp1538
a(S'one down'
p1539
(I3157
I3158
tp1540
S'quant_np'
p1541
tp1542
a(S'four on top'
p1543
(I3175
I3177
tp1544
S'quant_np'
p1545
tp1546
a(S'one to the right'
p1547
(I3184
I3187
tp1548
S'quant_np'
p1549
tp1550
asS'piece'
p1551
(lp1552
(S'the one that you put on top of his back'
p1553
(I3137
I3146
tp1554
S'def_np'
p1555
tp1556
a(S'it'
p1557
(I3172
I3172
tp1558
S'pronoun'
p1559
tp1560
a(S'it'
p1561
(I3080
I3080
tp1562
S'pronoun'
p1563
tp1564
a(S'it'
p1565
(I3089
I3089
tp1566
S'pronoun'
p1567
tp1568
a(S'the t piece'
p1569
(I3077
I3079
tp1570
S'def_np'
p1571
tp1572
asS'location'
p1573
(lp1574
(S'on top of his back'
p1575
(I3142
I3146
tp1576
S'pp'
p1577
tp1578
assg526
(dp1579
S'piece'
p1580
(lp1581
(S'the cross'
p1582
(I3084
I3085
tp1583
S'def_np'
p1584
tp1585
a(S'the cross'
p1586
(I3169
I3170
tp1587
S'def_np'
p1588
tp1589
asssg75
(dp1590
g326
(dp1591
S'part_of_piece'
p1592
(lp1593
(S'one down'
p1594
(I3154
I3155
tp1595
S'quant_np'
p1596
tp1597
a(S'four across'
p1598
(I3151
I3152
tp1599
S'quant_np'
p1600
tp1601
asS'piece'
p1602
(lp1603
(S'it'
p1604
(I3221
I3221
tp1605
S'pronoun'
p1606
tp1607
a(S'the previous t piece'
p1608
(I3200
I3203
tp1609
S'def_np'
p1610
tp1611
a(S'that'
p1612
(I3194
I3194
tp1613
S'def_np'
p1614
tp1615
a(S'it'
p1616
(I3216
I3216
tp1617
S'pronoun'
p1618
tp1619
asS'desc_piece'
p1620
(lp1621
(S"that's four across and one down"
p1622
(I3150
I3155
tp1623
S'attribution_sent'
p1624
tp1625
assS'5y i / 4t u'
p1626
(dp1627
S'part_of_piece'
p1628
(lp1629
(S'one out to the right'
p1630
(I3122
I3126
tp1631
S'quant_np'
p1632
tp1633
a(S'two going down from the second one'
p1634
(I3113
I3119
tp1635
S'quant_np'
p1636
tp1637
a(S'two pieces next to each other'
p1638
(I3105
I3110
tp1639
S'quant_np'
p1640
tp1641
a(S'the second one'
p1642
(I3117
I3119
tp1643
S'def_np'
p1644
tp1645
asS'piece'
p1646
(lp1647
(S'it'
p1648
(I3100
I3100
tp1649
S'pronoun'
p1650
tp1651
a(S'it'
p1652
(I3102
I3102
tp1653
S'pronoun'
p1654
tp1655
a(S'it'
p1656
(I3094
I3094
tp1657
S'pronoun'
p1658
tp1659
a(S'it'
p1660
(I3104
I3104
tp1661
S'pronoun'
p1662
tp1663
a(S'it'
p1664
(I3096
I3096
tp1665
S'pronoun'
p1666
tp1667
assg526
(dp1668
S'piece'
p1669
(lp1670
(S'the uniform cross'
p1671
(I3206
I3208
tp1672
S'def_np'
p1673
tp1674
assstp1675
a((I3226
I3259
tp1676
(dp1677
g3
(dp1678
g326
(dp1679
S'piece'
p1680
(lp1681
(S'this t bit'
p1682
(I3247
I3249
tp1683
S'def_np'
p1684
tp1685
assg1240
(dp1686
S'piece'
p1687
(lp1688
(S'this other one'
p1689
(I3240
I3242
tp1690
S'def_np'
p1691
tp1692
asS'location'
p1693
(lp1694
(S'underneath this t bit'
p1695
(I3246
I3249
tp1696
S'pp'
p1697
tp1698
asssg75
(dp1699
g1240
(dp1700
S'piece'
p1701
(lp1702
(S'this fucker'
p1703
(I3233
I3234
tp1704
S'def_np'
p1705
tp1706
a(S'it'
p1707
(I3255
I3255
tp1708
S'pronoun'
p1709
tp1710
assstp1711
a((I3260
I3387
tp1712
(dp1713
g3
(dp1714
S'9c'
p1715
(dp1716
S'piece'
p1717
(lp1718
(S'number nine'
p1719
(I3262
I3263
tp1720
S'def_np'
p1721
tp1722
a(S'it'
p1723
(I3277
I3277
tp1724
S'pronoun'
p1725
tp1726
a(S'it'
p1727
(I3295
I3295
tp1728
S'pronoun'
p1729
tp1730
a(S'it'
p1731
(I3274
I3274
tp1732
S'pronoun'
p1733
tp1734
a(S'that'
p1735
(I3285
I3285
tp1736
S'def_np'
p1737
tp1738
a(S'it'
p1739
(I3330
I3330
tp1740
S'pronoun'
p1741
tp1742
a(S'a u shape'
p1743
(I3265
I3267
tp1744
S'indef_np'
p1745
tp1746
asS'comp_piece'
p1747
(lp1748
(S'a c'
p1749
(I3280
I3281
tp1750
S'indef_np'
p1751
tp1752
asS'location'
p1753
(lp1754
(S'on the top left of his head'
p1755
(I3333
I3339
tp1756
S'pp'
p1757
tp1758
a(S'at top of his head'
p1759
(I3286
I3290
tp1760
S'pp'
p1761
tp1762
asS'desc_piece'
p1763
(lp1764
(S'it looks like a c'
p1765
(I3277
I3281
tp1766
S'comp_sent'
p1767
tp1768
assS'11i'
p1769
(dp1770
S'piece'
p1771
(lp1772
(S'the wrong l'
p1773
(I3384
I3386
tp1774
S'def_np'
p1775
tp1776
assg185
(dp1777
S'piece'
p1778
(lp1779
(S'the: l shape'
p1780
(I3305
I3307
tp1781
S'def_np'
p1782
tp1783
assg526
(dp1784
S'piece'
p1785
(lp1786
(S'the cross'
p1787
(I3300
I3301
tp1788
S'def_np'
p1789
tp1790
asssg75
(dp1791
g1715
(dp1792
S'piece'
p1793
(lp1794
(S'this'
p1795
(I3373
I3373
tp1796
S'def_np'
p1797
tp1798
a(S'it'
p1799
(I3309
I3309
tp1800
S'pronoun'
p1801
tp1802
asS'location'
p1803
(lp1804
(S'the top left of his head'
p1805
(I3346
I3351
tp1806
S'def_np'
p1807
tp1808
assg226
(dp1809
S'piece'
p1810
(lp1811
(S'the l shape of the trunk'
p1812
(I3317
I3322
tp1813
S'def_np'
p1814
tp1815
a(S'the trunk'
p1816
(I3324
I3325
tp1817
S'def_np'
p1818
tp1819
a(S'the trunk'
p1820
(I3367
I3368
tp1821
S'def_np'
p1822
tp1823
assstp1824
a((I3388
I3422
tp1825
(dp1826
g3
(dp1827
g1769
(dp1828
S'piece'
p1829
(lp1830
(S'the wrong l piece'
p1831
(I3391
I3394
tp1832
S'def_np'
p1833
tp1834
assg185
(dp1835
S'piece'
p1836
(lp1837
(S'the trunk'
p1838
(I3402
I3403
tp1839
S'def_np'
p1840
tp1841
a(S'three by three'
p1842
(I3409
I3411
tp1843
S'quant_np'
p1844
tp1845
asssg75
(dp1846
g185
(dp1847
S'piece'
p1848
(lp1849
(S'it'
p1850
(I3416
I3416
tp1851
S'pronoun'
p1852
tp1853
a(S'it'
p1854
(I3422
I3422
tp1855
S'pronoun'
p1856
tp1857
assstp1858
a((I3423
I3475
tp1859
(dp1860
g3
(dp1861
g526
(dp1862
S'piece'
p1863
(lp1864
(S'the c'
p1865
(I3463
I3464
tp1866
S'def_np'
p1867
tp1868
asssg75
(dp1869
S'10p'
p1870
(dp1871
S'piece'
p1872
(lp1873
(S'{the} dodgy shape'
p1874
(I3451
I3453
tp1875
S'def_np'
p1876
tp1877
assg1769
(dp1878
S'piece'
p1879
(lp1880
(S'the l'
p1881
(I3447
I3448
tp1882
S'def_np'
p1883
tp1884
assstp1885
a((I3476
I3505
tp1886
(dp1887
g3
(dp1888
g1870
(dp1889
S'piece'
p1890
(lp1891
(S'the dodgy shape'
p1892
(I3493
I3495
tp1893
S'def_np'
p1894
tp1895
asssg75
(dp1896
g1870
(dp1897
S'piece'
p1898
(lp1899
(S'it'
p1900
(I3505
I3505
tp1901
S'pronoun'
p1902
tp1903
a(S'the dodgy shape'
p1904
(I3485
I3487
tp1905
S'def_np'
p1906
tp1907
a(S'the dodgy shape'
p1908
(I3499
I3501
tp1909
S'def_np'
p1910
tp1911
assg1769
(dp1912
S'piece'
p1913
(lp1914
(S'the l'
p1915
(I3482
I3483
tp1916
S'def_np'
p1917
tp1918
assstp1919
a((I3506
I3584
tp1920
(dp1921
g3
(dp1922
g1769
(dp1923
S'piece'
p1924
(lp1925
(S'front leg'
p1926
(I3562
I3563
tp1927
S'def_np'
p1928
tp1929
asS'location'
p1930
(lp1931
g1929
asssg75
(dp1932
g1769
(dp1933
S'piece'
p1934
(lp1935
(S'the l'
p1936
(I3510
I3511
tp1937
S'def_np'
p1938
tp1939
a(S'that'
p1940
(I3546
I3546
tp1941
S'def_np'
p1942
tp1943
a(S'it'
p1944
(I3574
I3574
tp1945
S'pronoun'
p1946
tp1947
asS'location'
p1948
(lp1949
g1939
ag1943
ag1947
assstp1950
a.