(lp0
((I13
I185
tp1
(dp2
S'p-utts'
p3
(dp4
S'0z'
p5
(dp6
S'piece'
p7
(lp8
(S'your executer piece'
p9
(I17
I19
tp10
S'def_np'
p11
tp12
asS'location'
p13
(lp14
(S'right of center'
p15
(I27
I29
tp16
S'pp'
p17
tp18
a(S'slightly right'
p19
(I62
I63
tp20
S'other'
p21
tp22
asS'desc_piece'
p23
(lp24
(S'zigzaging up'
p25
(I33
I34
tp26
S'other'
p27
tp28
assS'1l'
p29
(dp30
S'piece'
p31
(lp32
(S'piece number one'
p33
(I81
I83
tp34
S'def_np'
p35
tp36
a(S'it'
p37
(I84
I84
tp38
S'pronoun'
p39
tp40
a(S'the: backwards shaped l'
p41
(I85
I88
tp42
S'def_np'
p43
tp44
a(S'that'
p45
(I95
I95
tp46
S'def_np'
p47
tp48
a(S'it'
p49
(I98
I98
tp50
S'pronoun'
p51
tp52
a(S'it'
p53
(I104
I104
tp54
S'pronoun'
p55
tp56
a(S'it'
p57
(I106
I106
tp58
S'pronoun'
p59
tp60
asS'location'
p61
(lp62
g36
ag40
ag44
ag48
ag52
ag56
ag60
asS'desc_piece'
p63
(lp64
g36
ag40
ag44
ag48
ag52
ag56
ag60
asssS'e-utts'
p65
(dp66
g5
(dp67
S'piece'
p68
(lp69
(S'it'
p70
(I58
I58
tp71
S'pronoun'
p72
tp73
asS'location'
p74
(lp75
(S'in the center'
p76
(I48
I50
tp77
S'pp'
p78
tp79
a(S'slightly right center'
p80
(I54
I56
tp81
S'def_np'
p82
tp83
assg29
(dp84
S'part_of_piece'
p85
(lp86
(S'four eh squares right clear'
p87
(I132
I136
tp88
S'quant_np'
p89
tp90
a(S'on to the right'
p91
(I139
I142
tp92
S'quant_np'
p93
tp94
a(S'the two little pieces that are in the bottom right of the grid'
p95
(I157
I169
tp96
S'def_np'
p97
tp98
a(S'this four'
p99
(I171
I172
tp100
S'def_np'
p101
tp102
asS'piece'
p103
(lp104
g90
ag94
ag98
ag102
asS'location'
p105
(lp106
g90
ag94
ag98
ag102
asS'desc_piece'
p107
(lp108
g90
ag94
ag98
ag102
assstp109
a((I186
I742
tp110
(dp111
g3
(dp112
g5
(dp113
S'part_of_piece'
p114
(lp115
(S'the left handside of the executor'
p116
(I717
I722
tp117
S'def_np'
p118
tp119
a(S'left hand piece of the executor'
p120
(I432
I437
tp121
S'def_np'
p122
tp123
asS'piece'
p124
(lp125
(S'the executor'
p126
(I323
I324
tp127
S'def_np'
p128
tp129
a(S'the executor'
p130
(I307
I308
tp131
S'def_np'
p132
tp133
a(S'the executor'
p134
(I721
I722
tp135
S'def_np'
p136
tp137
a(S'the executor'
p138
(I436
I437
tp139
S'def_np'
p140
tp141
assS'2n'
p142
(dp143
S'part_of_piece'
p144
(lp145
(S'three down'
p146
(I472
I473
tp147
S'quant_np'
p148
tp149
a(S'a stem'
p150
(I582
I583
tp151
S'indef_np'
p152
tp153
a(S'the top part of it}'
p154
(I416
I420
tp155
S'def_np'
p156
tp157
a(S'two squares in it downwards'
p158
(I226
I230
tp159
S'quant_np'
p160
tp161
a(S'two squares going downwards'
p162
(I278
I281
tp163
S'quant_np'
p164
tp165
a(S'the long stem'
p166
(I696
I698
tp167
S'def_np'
p168
tp169
a(S'three:  downwards again'
p170
(I232
I235
tp171
S'quant_np'
p172
tp173
a(S'the other leg'
p174
(I327
I329
tp175
S'def_np'
p176
tp177
a(S'one of the right'
p178
(I574
I577
tp179
S'quant_np'
p180
tp181
a(S'three squares'
p182
(I285
I286
tp183
S'quant_np'
p184
tp185
a(S'two squares'
p186
(I644
I645
tp187
S'quant_np'
p188
tp189
a(S'the smaller piece of it'
p190
(I312
I316
tp191
S'def_np'
p192
tp193
asS'piece'
p194
(lp195
(S'it'
p196
(I371
I371
tp197
S'pronoun'
p198
tp199
a(S'it'
p200
(I229
I229
tp201
S'pronoun'
p202
tp203
a(S'that'
p204
(I240
I240
tp205
S'pronoun'
p206
tp207
a(S'it'
p208
(I250
I250
tp209
S'pronoun'
p210
tp211
a(S'it'
p212
(I273
I273
tp213
S'pronoun'
p214
tp215
a(S'its'
p216
(I216
I216
tp217
S'pronoun'
p218
tp219
a(S'it'
p220
(I379
I379
tp221
S'pronoun'
p222
tp223
a(S'it'
p224
(I554
I554
tp225
S'pronoun'
p226
tp227
a(S'it'
p228
(I468
I468
tp229
S'pronoun'
p230
tp231
a(S'this'
p232
(I534
I534
tp233
S'pronoun'
p234
tp235
a(S'it'
p236
(I208
I208
tp237
S'pronoun'
p238
tp239
a(S'it'
p240
(I405
I405
tp241
S'pronoun'
p242
tp243
a(S"it'll"
p244
(I299
I299
tp245
S'pronoun'
p246
tp247
a(S'it'
p248
(I316
I316
tp249
S'pronoun'
p250
tp251
a(S'it'
p252
(I444
I444
tp253
S'pronoun'
p254
tp255
a(S'it'
p256
(I276
I276
tp257
S'pronoun'
p258
tp259
a(S'it'
p260
(I624
I624
tp261
S'pronoun'
p262
tp263
a(S'it'
p264
(I251
I251
tp265
S'pronoun'
p266
tp267
a(S'it'
p268
(I257
I257
tp269
S'pronoun'
p270
tp271
a(S'the shape'
p272
(I366
I367
tp273
S'def_np'
p274
tp275
a(S'that'
p276
(I223
I223
tp277
S'def_np'
p278
tp279
a(S'that'
p280
(I607
I607
tp281
S'def_np'
p282
tp283
a(S'the shape'
p284
(I451
I452
tp285
S'pronoun'
p286
tp287
a(S'it'
p288
(I214
I214
tp289
S'pronoun'
p290
tp291
a(S'it'
p292
(I412
I412
tp293
S'pronoun'
p294
tp295
a(S'it'
p296
(I528
I528
tp297
S'pronoun'
p298
tp299
a(S'it'
p300
(I375
I375
tp301
S'pronoun'
p302
tp303
a(S'it'
p304
(I387
I387
tp305
S'pronoun'
p306
tp307
a(S'it}'
p308
(I420
I420
tp309
S'pronoun'
p310
tp311
a(S'number two'
p312
(I189
I190
tp313
S'def_np'
p314
tp315
a(S'it'
p316
(I296
I296
tp317
S'pronoun'
p318
tp319
a(S'this number two'
p320
(I608
I610
tp321
S'def_np'
p322
tp323
a(S"it'll"
p324
(I302
I302
tp325
S'pronoun'
p326
tp327
a(S'that'
p328
(I715
I715
tp329
S'def_np'
p330
tp331
asS'comp_piece'
p332
(lp333
(S'a zed'
p334
(I254
I255
tp335
S'indef_np'
p336
tp337
a(S'a zed'
p338
(I201
I202
tp339
S'indef_np'
p340
tp341
a(S'squashed up zed'
p342
(I389
I391
tp343
S'indef_np'
p344
tp345
a(S'a zed'
p346
(I210
I211
tp347
S'indef_np'
p348
tp349
asS'location'
p350
(lp351
(S'next to the executor'
p352
(I305
I308
tp353
S'pp'
p354
tp355
a(S'on the left of the executor'
p356
(I319
I324
tp357
S'pp'
p358
tp359
asS'desc_piece'
p360
(lp361
(S"it's got two squares going downwards and then  three squares em right long next sides to to it"
p362
(I276
I294
tp363
S'attribution_sent'
p364
tp365
a(S'it looks like a zed'
p366
(I251
I255
tp367
S'comp_sent'
p368
tp369
a(S"it's like a zed slightly but it's on its side"
p370
(I208
I217
tp371
S'comp_sent'
p372
tp373
a(S"it's like squashed up zed"
p374
(I387
I391
tp375
S'comp_sent'
p376
tp377
assS'8f'
p378
(dp379
S'piece'
p380
(lp381
(S'something else'
p382
(I525
I526
tp383
S'indef_np'
p384
tp385
asssg65
(dp386
g5
(dp387
S'piece'
p388
(lp389
(S'the piece that i told'
p390
(I343
I347
tp391
S'def_np'
p392
tp393
a(S'the executor piece'
p394
(I358
I360
tp395
S'def_np'
p396
tp397
a(S'the executor'
p398
(I594
I595
tp399
S'def_np'
p400
tp401
a(S'the zed'
p402
(I349
I350
tp403
S'def_np'
p404
tp405
assS'99'
p406
(dp407
S'piece'
p408
(lp409
(S'the zed'
p410
(I626
I627
tp411
S'def_np'
p412
tp413
assS'2n i / 8f u'
p414
(dp415
S'part_of_piece'
p416
(lp417
(S'two across'
p418
(I502
I503
tp419
S'quant_np'
p420
tp421
a(S'three down under'
p422
(I506
I508
tp423
S'quant_np'
p424
tp425
asS'piece'
p426
(lp427
(S'little extra bits'
p428
(I509
I511
tp429
S'indef_np'
p430
tp431
asS'comp_piece'
p432
(lp433
(S'a zed'
p434
(I488
I489
tp435
S'indef_np'
p436
tp437
assS'2n i/ 8f u'
p438
(dp439
S'desc_piece'
p440
(lp441
(S'it looks like a zed but with an extra little bit'
p442
(I485
I495
tp443
S'comp_sent'
p444
tp445
assg142
(dp446
S'part_of_piece'
p447
(lp448
(S'it'
p449
(I457
I457
tp450
S'pronoun'
p451
tp452
a(S'it'
p453
(I485
I485
tp454
S'pronoun'
p455
tp456
a(S'it'
p457
(I655
I655
tp458
S'pronoun'
p459
tp460
asS'piece'
p461
(lp462
g452
ag456
ag460
assstp463
a((I743
I823
tp464
(dp465
g3
(dp466
S'3v'
p467
(dp468
S'part_of_piece'
p469
(lp470
(S'number three'
p471
(I745
I746
tp472
S'def_np'
p473
tp474
a(S'number three'
p475
(I750
I751
tp476
S'def_np'
p477
tp478
a(S'that'
p479
(I779
I779
tp480
S'def_np'
p481
tp482
asS'piece'
p483
(lp484
g474
ag478
ag482
asS'comp_piece'
p485
(lp486
g474
ag478
ag482
asS'location'
p487
(lp488
g474
ag478
ag482
asS'desc_piece'
p489
(lp490
g474
ag478
ag482
asssg65
(dp491
g467
(dp492
S'piece'
p493
(lp494
(S'the very left'
p495
(I796
I798
tp496
S'def_np'
p497
tp498
asS'location'
p499
(lp500
g498
assstp501
a((I824
I872
tp502
(dp503
g3
(dp504
g5
(dp505
S'piece'
p506
(lp507
(S'the executor'
p508
(I847
I848
tp509
S'def_np'
p510
tp511
assS'4t'
p512
(dp513
S'piece'
p514
(lp515
(S'thats'
p516
(I841
I841
tp517
S'pronoun'
p518
tp519
a(S'its'
p520
(I835
I835
tp521
S'pronoun'
p522
tp523
a(S'number four'
p524
(I825
I826
tp525
S'def_np'
p526
tp527
a(S'it'
p528
(I855
I855
tp529
S'pronoun'
p530
tp531
asS'location'
p532
(lp533
(S'next to number one'
p534
(I860
I863
tp535
S'pp'
p536
tp537
a(S'under the executor'
p538
(I846
I848
tp539
S'pp'
p540
tp541
asS'desc_piece'
p542
(lp543
(S'ti shaped'
p544
(I829
I830
tp545
S'other'
p546
tp547
a(S'number four is eh: ti shaped'
p548
(I825
I830
tp549
S'comp_sent'
p550
tp551
assg29
(dp552
S'piece'
p553
(lp554
(S'number one'
p555
(I862
I863
tp556
S'def_np'
p557
tp558
assstp559
a((I873
I1884
tp560
(dp561
g3
(dp562
g142
(dp563
S'piece'
p564
(lp565
(S'the zed figure'
p566
(I1738
I1740
tp567
S'def_np'
p568
tp569
assS'5y'
p570
(dp571
S'part_of_piece'
p572
(lp573
(S'that'
p574
(I1313
I1313
tp575
S'def_np'
p576
tp577
a(S'the three'
p578
(I1030
I1031
tp579
S'def_np'
p580
tp581
a(S'the little stem'
p582
(I1597
I1599
tp583
S'def_np'
p584
tp585
a(S'the thing on the top'
p586
(I1222
I1226
tp587
S'def_np'
p588
tp589
a(S'a long bar'
p590
(I884
I886
tp591
S'indef_np'
p592
tp593
a(S'the extra other piece'
p594
(I1367
I1370
tp595
S'def_np'
p596
tp597
a(S'the three of  the fourth square'
p598
(I992
I1004
tp599
S'def_np'
p600
tp601
a(S'one box'
p602
(I902
I903
tp603
S'quant_np'
p604
tp605
a(S'the end of number five'
p606
(I1714
I1718
tp607
S'def_np'
p608
tp609
a(S'{the stem}'
p610
(I1594
I1595
tp611
S'def_np'
p612
tp613
a(S'four along'
p614
(I1089
I1090
tp615
S'quant_np'
p616
tp617
a(S'{the extra square}'
p618
(I1229
I1231
tp619
S'def_np'
p620
tp621
a(S'four squares'
p622
(I889
I890
tp623
S'quant_np'
p624
tp625
a(S'o:ne sticking out'
p626
(I1092
I1094
tp627
S'quant_np'
p628
tp629
a(S'one little guy'
p630
(I893
I895
tp631
S'quant_np'
p632
tp633
asS'location'
p634
(lp635
(S'on the second level'
p636
(I1570
I1573
tp637
S'pp'
p638
tp639
a(S'on the top of the: ehm second level of the grid'
p640
(I1402
I1412
tp641
S'pp'
p642
tp643
a(S'the next level down'
p644
(I965
I968
tp645
S'def_np'
p646
tp647
a(S'the second level down  of the grid'
p648
(I1109
I1116
tp649
S'def_np'
p650
tp651
asS'desc_piece'
p652
(lp653
(S"it's got ehm a long bar  maybe four squares and then  eh one box sticking of the center of it eh of center"
p654
(I881
I912
tp655
S'attribution_sent'
p656
tp657
asS'piece'
p658
(lp659
(S'it'
p660
(I1590
I1590
tp661
S'pronoun'
p662
tp663
a(S'this'
p664
(I1059
I1059
tp665
S'def_np'
p666
tp667
a(S'number f:ive'
p668
(I874
I875
tp669
S'def_np'
p670
tp671
a(S'this'
p672
(I1336
I1336
tp673
S'def_np'
p674
tp675
a(S'this shape'
p676
(I1829
I1830
tp677
S'def_np'
p678
tp679
a(S'it'
p680
(I1398
I1398
tp681
S'pronoun'
p682
tp683
a(S'it'
p684
(I1178
I1178
tp685
S'pronoun'
p686
tp687
a(S'it'
p688
(I881
I881
tp689
S'pronoun'
p690
tp691
a(S'it'
p692
(I1185
I1185
tp693
S'pronoun'
p694
tp695
a(S'number five'
p696
(I1158
I1159
tp697
S'pronoun'
p698
tp699
a(S'the five'
p700
(I971
I972
tp701
S'def_np'
p702
tp703
a(S'it'
p704
(I1104
I1104
tp705
S'pronoun'
p706
tp707
a(S'number five'
p708
(I1061
I1062
tp709
S'def_np'
p710
tp711
a(S'number five'
p712
(I1566
I1567
tp713
S'def_np'
p714
tp715
a(S'number five'
p716
(I1717
I1718
tp717
S'def_np'
p718
tp719
a(S'number five'
p720
(I1831
I1832
tp721
S'def_np'
p722
tp723
a(S'this guy'
p724
(I1354
I1355
tp725
S'def_np'
p726
tp727
a(S'it'
p728
(I1157
I1157
tp729
S'pronoun'
p730
tp731
a(S'that'
p732
(I922
I922
tp733
S'def_np'
p734
tp735
a(S'it'
p736
(I1671
I1671
tp737
S'pronoun'
p738
tp739
a(S'it'
p740
(I1283
I1283
tp741
S'pronoun'
p742
tp743
a(S'number five'
p744
(I1072
I1073
tp745
S'def_np'
p746
tp747
a(S'this'
p748
(I1474
I1474
tp749
S'def_np'
p750
tp751
assg467
(dp752
S'part_of_piece'
p753
(lp754
(S'number three'
p755
(I1187
I1188
tp756
S'def_np'
p757
tp758
a(S'the equal el'
p759
(I1328
I1330
tp760
S'def_np'
p761
tp762
a(S'the equal el'
p763
(I1338
I1340
tp764
S'def_np'
p765
tp766
a(S'it'
p767
(I1359
I1359
tp768
S'pronoun'
p769
tp770
a(S'the equilateral'
p771
(I1821
I1822
tp772
S'def_np'
p773
tp774
a(S'the equilateral el'
p775
(I1825
I1827
tp776
S'def_np'
p777
tp778
asS'piece'
p779
(lp780
g758
ag762
ag766
ag770
ag774
ag778
asS'location'
p781
(lp782
g758
ag762
ag766
ag770
ag774
ag778
asssg65
(dp783
g5
(dp784
S'piece'
p785
(lp786
(S'the backwards zed'
p787
(I1650
I1652
tp788
S'def_np'
p789
tp790
a(S'the executor'
p791
(I1394
I1395
tp792
S'def_np'
p793
tp794
assg512
(dp795
S'piece'
p796
(lp797
(S'the fourth piece'
p798
(I1052
I1054
tp799
S'def_np'
p800
tp801
assg570
(dp802
S'part_of_piece'
p803
(lp804
(S'the little to deepest'
p805
(I1854
I1857
tp806
S'def_np'
p807
tp808
a(S'four across'
p809
(I1126
I1127
tp810
S'quant_np'
p811
tp812
a(S'a little extra bit'
p813
(I1295
I1298
tp814
S'indef_np'
p815
tp816
a(S'top of the equilateral el'
p817
(I1797
I1801
tp818
S'pp'
p819
tp820
a(S'the three'
p821
(I1012
I1013
tp822
S'def_np'
p823
tp824
a(S'four: long squares'
p825
(I1081
I1083
tp826
S'quant_np'
p827
tp828
a(S'the little sticking up two spaces'
p829
(I1445
I1450
tp830
S'def_np'
p831
tp832
a(S'the four bits'
p833
(I1210
I1212
tp834
S'def_np'
p835
tp836
a(S'the little sticky bit'
p837
(I1641
I1644
tp838
S'def_np'
p839
tp840
a(S'one'
p841
(I1086
I1086
tp842
S'quant_np'
p843
tp844
asS'piece'
p845
(lp846
(S'the stone'
p847
(I1786
I1787
tp848
S'def_np'
p849
tp850
a(S'it'
p851
(I1421
I1421
tp852
S'pronoun'
p853
tp854
a(S'it'
p855
(I1273
I1273
tp856
S'pronoun'
p857
tp858
a(S'it'
p859
(I1388
I1388
tp860
S'pronoun'
p861
tp862
a(S'it'
p863
(I1850
I1850
tp864
S'pronoun'
p865
tp866
a(S'it'
p867
(I1246
I1246
tp868
S'pronoun'
p869
tp870
asS'location'
p871
(lp872
(S'on top of the executor'
p873
(I1391
I1395
tp874
S'pp'
p875
tp876
a(S'on top of the backwards zed'
p877
(I1647
I1652
tp878
S'pp'
p879
tp880
a(S'on top of the el'
p881
(I1452
I1456
tp882
S'pp'
p883
tp884
a(S'beside the el'
p885
(I1305
I1307
tp886
S'pp'
p887
tp888
assg142
(dp889
S'part_of_piece'
p890
(lp891
(S'the side of the backwards zed '
p892
(I1861
I1867
tp893
S'def_np'
p894
tp895
asS'piece'
p896
(lp897
(S'the piece that we had a long show was before'
p898
(I1655
I1664
tp899
S'def_np'
p900
tp901
a(S'the backwards zed '
p902
(I1864
I1867
tp903
S'def_np'
p904
tp905
assg467
(dp906
S'piece'
p907
(lp908
(S'the el'
p909
(I1190
I1191
tp910
S'def_np'
p911
tp912
a(S'equilateral el'
p913
(I1202
I1203
tp914
S'def_np'
p915
tp916
a(S'the el'
p917
(I1306
I1307
tp918
S'def_np'
p919
tp920
a(S'the: equal el'
p921
(I1319
I1321
tp922
S'def_np'
p923
tp924
a(S'the el'
p925
(I1455
I1456
tp926
S'def_np'
p927
tp928
a(S'the equilateral el'
p929
(I1799
I1801
tp930
S'def_np'
p931
tp932
asS'desc_piece'
p933
(lp934
g912
ag916
ag920
ag924
ag928
ag932
assstp935
a((I1885
I1925
tp936
(dp937
g3
(dp938
g5
(dp939
S'piece'
p940
(lp941
(S'the executor'
p942
(I1903
I1904
tp943
S'def_np'
p944
tp945
assg142
(dp946
S'piece'
p947
(lp948
(S'it'
p949
(I1898
I1898
tp950
S'pronoun'
p951
tp952
asssg65
(dp953
g5
(dp954
S'piece'
p955
(lp956
(S'the: executor'
p957
(I1894
I1895
tp958
S'def_np'
p959
tp960
assg142
(dp961
S'piece'
p962
(lp963
(S'the backwards zed'
p964
(I1886
I1888
tp965
S'def_np'
p966
tp967
a(S'it'
p968
(I1915
I1915
tp969
S'pronoun'
p970
tp971
asS'comp_piece'
p972
(lp973
g967
ag971
asS'desc_piece'
p974
(lp975
g967
ag971
assstp976
a((I1926
I2080
tp977
(dp978
g3
(dp979
g570
(dp980
S'piece'
p981
(lp982
(S'this number fiver'
p983
(I1981
I1983
tp984
S'def_np'
p985
tp986
a(S'number five'
p987
(I2078
I2079
tp988
S'def_np'
p989
tp990
assg5
(dp991
S'piece'
p992
(lp993
(S'the executor'
p994
(I2007
I2008
tp995
S'def_np'
p996
tp997
a(S'the executor'
p998
(I2061
I2062
tp999
S'def_np'
p1000
tp1001
assg512
(dp1002
S'piece'
p1003
(lp1004
(S'the ti'
p1005
(I2044
I2045
tp1006
S'def_np'
p1007
tp1008
asS'location'
p1009
(lp1010
(S'into the executor '
p1011
(I2060
I2063
tp1012
S'pp'
p1013
tp1014
a(S'in the el'
p1015
(I2055
I2057
tp1016
S'pp'
p1017
tp1018
assg378
(dp1019
S'piece'
p1020
(lp1021
(S'another piece'
p1022
(I1978
I1979
tp1023
S'indef_np'
p1024
tp1025
assg142
(dp1026
S'piece'
p1027
(lp1028
(S'number two'
p1029
(I1985
I1986
tp1030
S'def_np'
p1031
tp1032
assg29
(dp1033
S'piece'
p1034
(lp1035
(S'the el'
p1036
(I2056
I2057
tp1037
S'def_np'
p1038
tp1039
asssg65
(dp1040
g5
(dp1041
S'piece'
p1042
(lp1043
(S'executor'
p1044
(I2015
I2015
tp1045
S'def_np'
p1046
tp1047
asS'location'
p1048
(lp1049
(S'beside the ti'
p1050
(I2022
I2024
tp1051
S'pp'
p1052
tp1053
assg512
(dp1054
S'piece'
p1055
(lp1056
(S'the ti'
p1057
(I2034
I2035
tp1058
S'def_np'
p1059
tp1060
a(S'the ti'
p1061
(I2026
I2027
tp1062
S'def_np'
p1063
tp1064
asS'location'
p1065
(lp1066
(S'on the el'
p1067
(I2040
I2042
tp1068
S'pp'
p1069
tp1070
assg570
(dp1071
S'piece'
p1072
(lp1073
(S'the little sticky bit'
p1074
(I1957
I1960
tp1075
S'def_np'
p1076
tp1077
asS'location'
p1078
(lp1079
(S'on top of the backward zet'
p1080
(I1963
I1968
tp1081
S'pp'
p1082
tp1083
assg142
(dp1084
S'part_of_piece'
p1085
(lp1086
(S'top of it'
p1087
(I1945
I1947
tp1088
S'pronoun'
p1089
tp1090
asS'piece'
p1091
(lp1092
(S'it'
p1093
(I1947
I1947
tp1094
S'pronoun'
p1095
tp1096
a(S'it'
p1097
(I1928
I1928
tp1098
S'pronoun'
p1099
tp1100
a(S'it'
p1101
(I1935
I1935
tp1102
S'pronoun'
p1103
tp1104
a(S'the backward zet'
p1105
(I1966
I1968
tp1106
S'def_np'
p1107
tp1108
assg29
(dp1109
S'piece'
p1110
(lp1111
(S'the el'
p1112
(I2041
I2042
tp1113
S'def_np'
p1114
tp1115
assstp1116
a((I2081
I2177
tp1117
(dp1118
g3
(dp1119
g142
(dp1120
S'piece'
p1121
(lp1122
(S'the zed'
p1123
(I2090
I2091
tp1124
S'def_np'
p1125
tp1126
a(S'number two'
p1127
(I2097
I2098
tp1128
S'def_np'
p1129
tp1130
assg570
(dp1131
S'piece'
p1132
(lp1133
(S'number five'
p1134
(I2173
I2174
tp1135
S'def_np'
p1136
tp1137
asssg65
(dp1138
g142
(dp1139
S'part_of_piece'
p1140
(lp1141
(S'the bottom of the backwards zed'
p1142
(I2148
I2153
tp1143
S'def_np'
p1144
tp1145
asS'piece'
p1146
(lp1147
g1145
assstp1148
a((I2178
I2560
tp1149
(dp1150
g3
(dp1151
g142
(dp1152
S'piece'
p1153
(lp1154
(S'the zed'
p1155
(I2547
I2548
tp1156
S'def_np'
p1157
tp1158
assg570
(dp1159
S'piece'
p1160
(lp1161
(S'it'
p1162
(I2206
I2206
tp1163
S'pronoun'
p1164
tp1165
a(S'it'
p1166
(I2220
I2220
tp1167
S'pronoun'
p1168
tp1169
a(S'it'
p1170
(I2223
I2223
tp1171
S'pronoun'
p1172
tp1173
a(S'this'
p1174
(I2232
I2232
tp1175
S'pronoun'
p1176
tp1177
a(S'number five'
p1178
(I2453
I2454
tp1179
S'def_np'
p1180
tp1181
a(S'number five'
p1182
(I2554
I2555
tp1183
S'def_np'
p1184
tp1185
asS'comp_piece'
p1186
(lp1187
g1165
ag1169
ag1173
ag1177
ag1181
ag1185
asS'location'
p1188
(lp1189
g1165
ag1169
ag1173
ag1177
ag1181
ag1185
asS'desc_piece'
p1190
(lp1191
g1165
ag1169
ag1173
ag1177
ag1181
ag1185
asssg65
(dp1192
g142
(dp1193
S'piece'
p1194
(lp1195
(S'that'
p1196
(I2508
I2508
tp1197
S'def_np'
p1198
tp1199
a(S'the zed'
p1200
(I2475
I2476
tp1201
S'def_np'
p1202
tp1203
assg570
(dp1204
S'piece'
p1205
(lp1206
(S'a ti:'
p1207
(I2202
I2203
tp1208
S'indef_np'
p1209
tp1210
a(S'a short ti '
p1211
(I2211
I2214
tp1212
S'indef_np'
p1213
tp1214
asS'comp_piece'
p1215
(lp1216
g1210
ag1214
asS'location'
p1217
(lp1218
g1210
ag1214
asS'desc_piece'
p1219
(lp1220
g1210
ag1214
assstp1221
a((I2561
I2662
tp1222
(dp1223
g3
(dp1224
g142
(dp1225
S'piece'
p1226
(lp1227
(S'the zed'
p1228
(I2627
I2628
tp1229
S'def_np'
p1230
tp1231
a(S'the zed'
p1232
(I2652
I2653
tp1233
S'def_np'
p1234
tp1235
asssg65
(dp1236
g142
(dp1237
S'piece'
p1238
(lp1239
(S'the zed'
p1240
(I2647
I2648
tp1241
S'def_np'
p1242
tp1243
assstp1244
a((I2663
I2875
tp1245
(dp1246
g3
(dp1247
g142
(dp1248
S'part_of_piece'
p1249
(lp1250
(S'the end of the zed'
p1251
(I2724
I2728
tp1252
S'def_np'
p1253
tp1254
a(S'the end of the zed'
p1255
(I2707
I2711
tp1256
S'def_np'
p1257
tp1258
asS'piece'
p1259
(lp1260
(S'the zed'
p1261
(I2789
I2790
tp1262
S'def_np'
p1263
tp1264
a(S'the zed'
p1265
(I2727
I2728
tp1266
S'def_np'
p1267
tp1268
a(S'the zed'
p1269
(I2710
I2711
tp1270
S'def_np'
p1271
tp1272
a(S'th zed'
p1273
(I2666
I2667
tp1274
S'def_np'
p1275
tp1276
a(S'number two'
p1277
(I2787
I2788
tp1278
S'def_np'
p1279
tp1280
asS'location'
p1281
(lp1282
(S'on the bottom the grid'
p1283
(I2716
I2720
tp1284
S'pp'
p1285
tp1286
assg570
(dp1287
S'piece'
p1288
(lp1289
(S'number five'
p1290
(I2872
I2873
tp1291
S'def_np'
p1292
tp1293
asssg65
(dp1294
g142
(dp1295
S'piece'
p1296
(lp1297
(S'the zed'
p1298
(I2840
I2841
tp1299
S'def_np'
p1300
tp1301
assg29
(dp1302
S'piece'
p1303
(lp1304
(S'the el'
p1305
(I2809
I2810
tp1306
S'def_np'
p1307
tp1308
a(S'the first eh piece'
p1309
(I2816
I2819
tp1310
S'def_np'
p1311
tp1312
assstp1313
a((I2876
I2935
tp1314
(dp1315
g3
(dp1316
g29
(dp1317
S'piece'
p1318
(lp1319
(S'the number one'
p1320
(I2926
I2928
tp1321
S'def_np'
p1322
tp1323
assS'6w'
p1324
(dp1325
S'part_of_piece'
p1326
(lp1327
(S'the stairs'
p1328
(I2904
I2905
tp1329
S'def_np'
p1330
tp1331
asS'piece'
p1332
(lp1333
g1331
asS'comp_piece'
p1334
(lp1335
g1331
asS'location'
p1336
(lp1337
g1331
asS'desc_piece'
p1338
(lp1339
g1331
assstp1340
a((I2936
I3004
tp1341
(dp1342
g3
(dp1343
g570
(dp1344
S'piece'
p1345
(lp1346
(S'number five'
p1347
(I2982
I2983
tp1348
S'pronoun'
p1349
tp1350
assS'7x'
p1351
(dp1352
S'piece'
p1353
(lp1354
(S'number seven'
p1355
(I2937
I2938
tp1356
S'def_np'
p1357
tp1358
a(S'that'
p1359
(I2949
I2949
tp1360
S'def_np'
p1361
tp1362
a(S'it'
p1363
(I2973
I2973
tp1364
S'pronoun'
p1365
tp1366
a(S'number seven'
p1367
(I3002
I3003
tp1368
S'pronoun'
p1369
tp1370
asS'comp_piece'
p1371
(lp1372
g1358
ag1362
ag1366
ag1370
asS'location'
p1373
(lp1374
g1358
ag1362
ag1366
ag1370
asS'desc_piece'
p1375
(lp1376
g1358
ag1362
ag1366
ag1370
asssg65
(dp1377
g1351
(dp1378
S'piece'
p1379
(lp1380
(S'it'
p1381
(I2998
I2998
tp1382
S'pronoun'
p1383
tp1384
assstp1385
a((I3005
I3653
tp1386
(dp1387
g3
(dp1388
g570
(dp1389
S'part_of_piece'
p1390
(lp1391
(S'the extra bar'
p1392
(I3378
I3380
tp1393
S'def_np'
p1394
tp1395
asS'piece'
p1396
(lp1397
(S'number five'
p1398
(I3395
I3396
tp1399
S'def_np'
p1400
tp1401
a(S'number five'
p1402
(I3357
I3358
tp1403
S'def_np'
p1404
tp1405
a(S'this ti: with the extra bar on it'
p1406
(I3375
I3382
tp1407
S'def_np'
p1408
tp1409
a(S'number five'
p1410
(I3239
I3240
tp1411
S'def_np'
p1412
tp1413
a(S'number five'
p1414
(I3193
I3194
tp1415
S'def_np'
p1416
tp1417
a(S'number five'
p1418
(I3174
I3175
tp1419
S'def_np'
p1420
tp1421
a(S'it'
p1422
(I3382
I3382
tp1423
S'pronoun'
p1424
tp1425
a(S'number five'
p1426
(I3372
I3373
tp1427
S'def_np'
p1428
tp1429
assS'9c'
p1430
(dp1431
S'piece'
p1432
(lp1433
(S'the zee:'
p1434
(I3308
I3309
tp1435
S'def_np'
p1436
tp1437
assg378
(dp1438
S'part_of_piece'
p1439
(lp1440
(S'the little piece'
p1441
(I3417
I3419
tp1442
S'def_np'
p1443
tp1444
a(S'the longest piece'
p1445
(I3430
I3432
tp1446
S'def_np'
p1447
tp1448
a(S'two squares'
p1449
(I3044
I3045
tp1450
S'quant_np'
p1451
tp1452
a(S'two squares of the top that will be horizontal'
p1453
(I3441
I3449
tp1454
S'def_np'
p1455
tp1456
a(S'two sticking out in the middle'
p1457
(I3052
I3057
tp1458
S'quant_np'
p1459
tp1460
a(S'the other one here'
p1461
(I3328
I3331
tp1462
S'def_np'
p1463
tp1464
a(S'three down'
p1465
(I3048
I3049
tp1466
S'quant_np'
p1467
tp1468
a(S'whatever little segment sticking o:f'
p1469
(I3595
I3599
tp1470
S'def_np'
p1471
tp1472
a(S'the longest pieces'
p1473
(I3162
I3164
tp1474
S'def_np'
p1475
tp1476
a(S'the one square'
p1477
(I3233
I3235
tp1478
S'def_np'
p1479
tp1480
asS'piece'
p1481
(lp1482
(S'number eight'
p1483
(I3011
I3012
tp1484
S'def_np'
p1485
tp1486
a(S'this '
p1487
(I3336
I3337
tp1488
S'def_np'
p1489
tp1490
a(S'it'
p1491
(I3028
I3028
tp1492
S'pronoun'
p1493
tp1494
a(S'it'
p1495
(I3349
I3349
tp1496
S'pronoun'
p1497
tp1498
a(S'tha:t'
p1499
(I3160
I3160
tp1500
S'def_np'
p1501
tp1502
a(S'it'
p1503
(I3544
I3544
tp1504
S'pronoun'
p1505
tp1506
a(S"he'll"
p1507
(I3171
I3171
tp1508
S'def_np'
p1509
tp1510
a(S'it'
p1511
(I3560
I3560
tp1512
S'pronoun'
p1513
tp1514
a(S'it'
p1515
(I3327
I3327
tp1516
S'pronoun'
p1517
tp1518
a(S'it'
p1519
(I3020
I3020
tp1520
S'pronoun'
p1521
tp1522
a(S'it'
p1523
(I3347
I3347
tp1524
S'pronoun'
p1525
tp1526
a(S'it'
p1527
(I3306
I3306
tp1528
S'pronoun'
p1529
tp1530
a(S'number eight'
p1531
(I3008
I3009
tp1532
S'def_np'
p1533
tp1534
a(S'it'
p1535
(I3391
I3391
tp1536
S'pronoun'
p1537
tp1538
a(S'this'
p1539
(I3180
I3180
tp1540
S'def_np'
p1541
tp1542
a(S'it'
p1543
(I3072
I3072
tp1544
S'pronoun'
p1545
tp1546
asS'comp_piece'
p1547
(lp1548
(S'a ti:'
p1549
(I3030
I3031
tp1550
S'indef_np'
p1551
tp1552
a(S''
p1553
(I3139
I3147
tp1554
S'indef_np'
p1555
tp1556
asS'location'
p1557
(lp1558
(S'under number five'
p1559
(I3173
I3175
tp1560
S'pp'
p1561
tp1562
a(S'between number five and number two'
p1563
(I3356
I3361
tp1564
S'pp'
p1565
tp1566
asS'desc_piece'
p1567
(lp1568
(S"it's like a ti: with another  sticking up out of it"
p1569
(I3028
I3039
tp1570
S'comp_sent'
p1571
tp1572
a(S'so is like one two squares and then three down and then two sticking out in the middle'
p1573
(I3040
I3057
tp1574
S'attribution_sent'
p1575
tp1576
assg142
(dp1577
S'piece'
p1578
(lp1579
(S'number two'
p1580
(I3196
I3197
tp1581
S'def_np'
p1582
tp1583
a(S'number two'
p1584
(I3242
I3243
tp1585
S'def_np'
p1586
tp1587
a(S'number two'
p1588
(I3360
I3361
tp1589
S'def_np'
p1590
tp1591
a(S'number two'
p1592
(I3364
I3365
tp1593
S'def_np'
p1594
tp1595
a(S'the upside down zed'
p1596
(I3367
I3370
tp1597
S'def_np'
p1598
tp1599
a(S'number two'
p1600
(I3398
I3399
tp1601
S'def_np'
p1602
tp1603
asssg65
(dp1604
g570
(dp1605
S'piece'
p1606
(lp1607
(S'five'
p1608
(I3531
I3531
tp1609
S'def_np'
p1610
tp1611
assg378
(dp1612
S'part_of_piece'
p1613
(lp1614
(S'the   long stem in the ti'
p1615
(I3518
I3525
tp1616
S'def_np'
p1617
tp1618
a(S'the cross of it'
p1619
(I3492
I3495
tp1620
S'def_np'
p1621
tp1622
a(S'two squares of the top'
p1623
(I3455
I3459
tp1624
S'def_np'
p1625
tp1626
a(S'a little extra bit'
p1627
(I3502
I3505
tp1628
S'indef_np'
p1629
tp1630
asS'piece'
p1631
(lp1632
(S'it'
p1633
(I3625
I3625
tp1634
S'pronoun'
p1635
tp1636
a(S'it'
p1637
(I3483
I3483
tp1638
S'pronoun'
p1639
tp1640
a(S'it'
p1641
(I3281
I3281
tp1642
S'pronoun'
p1643
tp1644
a(S'it'
p1645
(I3495
I3495
tp1646
S'pronoun'
p1647
tp1648
a(S'it'
p1649
(I3290
I3290
tp1650
S'pronoun'
p1651
tp1652
a(S'it'
p1653
(I3074
I3074
tp1654
S'pronoun'
p1655
tp1656
a(S'it'
p1657
(I3311
I3311
tp1658
S'pronoun'
p1659
tp1660
a(S'it'
p1661
(I3651
I3651
tp1662
S'pronoun'
p1663
tp1664
a(S'the three pieces'
p1665
(I3212
I3214
tp1666
S'def_np'
p1667
tp1668
a(S'the ti'
p1669
(I3524
I3525
tp1670
S'def_np'
p1671
tp1672
a(S'it'
p1673
(I3093
I3093
tp1674
S'pronoun'
p1675
tp1676
a(S'it'
p1677
(I3114
I3114
tp1678
S'pronoun'
p1679
tp1680
asS'comp_piece'
p1681
(lp1682
(S'a ti:'
p1683
(I3129
I3130
tp1684
S'indef_np'
p1685
tp1686
a(S'a zed'
p1687
(I3116
I3117
tp1688
S'indef_np'
p1689
tp1690
a(S'a square but with a little extra bit'
p1691
(I3096
I3103
tp1692
S'indef_np'
p1693
tp1694
asS'desc_piece'
p1695
(lp1696
(S"it's like a zed with an extra little bit"
p1697
(I3114
I3122
tp1698
S'comp_sent'
p1699
tp1700
a(S"it's  like a square but with a little extra bit"
p1701
(I3093
I3103
tp1702
S'comp_sent'
p1703
tp1704
assg1430
(dp1705
S'piece'
p1706
(lp1707
(S'the one it looks like an e:'
p1708
(I3313
I3319
tp1709
S'def_np'
p1710
tp1711
a(S'the zee'
p1712
(I3324
I3325
tp1713
S'def_np'
p1714
tp1715
assS'11i'
p1716
(dp1717
S'piece'
p1718
(lp1719
(S'the long vertical bar'
p1720
(I3283
I3286
tp1721
S'def_np'
p1722
tp1723
assS'10p'
p1724
(dp1725
S'piece'
p1726
(lp1727
(S'the one that is the square with an extra little bit'
p1728
(I3292
I3302
tp1729
S'def_np'
p1730
tp1731
assg142
(dp1732
S'piece'
p1733
(lp1734
(S'two'
p1735
(I3529
I3529
tp1736
S'def_np'
p1737
tp1738
assstp1739
a((I3654
I3704
tp1740
(dp1741
g3
(dp1742
g1430
(dp1743
S'piece'
p1744
(lp1745
(S'the number nine'
p1746
(I3654
I3656
tp1747
S'def_np'
p1748
tp1749
a(S'it'
p1750
(I3687
I3687
tp1751
S'pronoun'
p1752
tp1753
a(S'the shape that looks like a cee'
p1754
(I3662
I3668
tp1755
S'def_np'
p1756
tp1757
a(S'that'
p1758
(I3676
I3676
tp1759
S'def_np'
p1760
tp1761
a(S'it'
p1762
(I3678
I3678
tp1763
S'pronoun'
p1764
tp1765
a(S'a cee'
p1766
(I3682
I3683
tp1767
S'indef_np'
p1768
tp1769
asS'comp_piece'
p1770
(lp1771
(S'a cee'
p1772
(I3667
I3668
tp1773
S'indef_np'
p1774
tp1775
asS'location'
p1776
(lp1777
(S'around number seven'
p1778
(I3691
I3693
tp1779
S'pp'
p1780
tp1781
asS'desc_piece'
p1782
(lp1783
(S'it just looks like a cee'
p1784
(I3678
I3683
tp1785
S'comp_sent'
p1786
tp1787
assg1351
(dp1788
S'piece'
p1789
(lp1790
(S'number seven'
p1791
(I3692
I3693
tp1792
S'def_np'
p1793
tp1794
a(S'the red cross'
p1795
(I3695
I3697
tp1796
S'def_np'
p1797
tp1798
asssg65
(dp1799
g1351
(dp1800
S'piece'
p1801
(lp1802
(S'the cross'
p1803
(I3699
I3700
tp1804
S'def_np'
p1805
tp1806
assstp1807
a((I3705
I3800
tp1808
(dp1809
g3
(dp1810
g1724
(dp1811
S'part_of_piece'
p1812
(lp1813
(S'the little segment'
p1814
(I3743
I3745
tp1815
S'def_np'
p1816
tp1817
a(S'the little segment'
p1818
(I3719
I3721
tp1819
S'def_np'
p1820
tp1821
asS'piece'
p1822
(lp1823
(S'the box with the little segment sticking up over the top of it'
p1824
(I3716
I3728
tp1825
S'def_np'
p1826
tp1827
a(S'number ten'
p1828
(I3705
I3706
tp1829
S'def_np'
p1830
tp1831
a(S'it'
p1832
(I3715
I3715
tp1833
S'pronoun'
p1834
tp1835
a(S'it'
p1836
(I3756
I3756
tp1837
S'pronoun'
p1838
tp1839
a(S'it'
p1840
(I3739
I3739
tp1841
S'pronoun'
p1842
tp1843
asS'location'
p1844
(lp1845
(S'between number six and number five'
p1846
(I3758
I3763
tp1847
S'pp'
p1848
tp1849
asS'desc_piece'
p1850
(lp1851
(S"it's the box with the little segment sticking up over the top of it"
p1852
(I3715
I3728
tp1853
S'attribution_sent'
p1854
tp1855
assg570
(dp1856
S'piece'
p1857
(lp1858
(S'number five'
p1859
(I3762
I3763
tp1860
S'def_np'
p1861
tp1862
a(S'number five'
p1863
(I3777
I3778
tp1864
S'def_np'
p1865
tp1866
assg1324
(dp1867
S'piece'
p1868
(lp1869
(S'number six'
p1870
(I3759
I3760
tp1871
S'def_np'
p1872
tp1873
a(S'number six'
p1874
(I3766
I3767
tp1875
S'def_np'
p1876
tp1877
a(S'the little stair case one'
p1878
(I3769
I3773
tp1879
S'def_np'
p1880
tp1881
asssg65
(dp1882
g1724
(dp1883
S'piece'
p1884
(lp1885
(S'it'
p1886
(I3794
I3794
tp1887
S'pronoun'
p1888
tp1889
assstp1890
a((I3801
I3823
tp1891
(dp1892
g3
(dp1893
g1716
(dp1894
S'piece'
p1895
(lp1896
(S'the bar'
p1897
(I3812
I3813
tp1898
S'def_np'
p1899
tp1900
a(S'it'
p1901
(I3816
I3816
tp1902
S'pronoun'
p1903
tp1904
a(S'number eleven'
p1905
(I3817
I3818
tp1906
S'def_np'
p1907
tp1908
asssg65
(dp1909
g1716
(dp1910
S'piece'
p1911
(lp1912
(S'the bar'
p1913
(I3803
I3804
tp1914
S'def_np'
p1915
tp1916
asS'location'
p1917
(lp1918
g1916
assstp1919
a.