(dp0
(I18
I224
tp1
(S'success'
p2
S'confid'
p3
tp4
s(I462
I529
tp5
(S'success'
p6
S'confid'
p7
tp8
s(I225
I374
tp9
(S'success'
p10
S'confid'
p11
tp12
s(I1408
I1423
tp13
(S'success'
p14
S'confid'
p15
tp16
s(I1094
I1153
tp17
(S'success'
p18
S'confid'
p19
tp20
s(I854
I922
tp21
(S'success'
p22
S'confid'
p23
tp24
s(I1154
I1195
tp25
(S'na'
p26
S'on_hold'
p27
tp28
s(I1196
I1407
tp29
(S'success'
p30
S'confid'
p31
tp32
s(I923
I997
tp33
(S'success'
p34
S'confid'
p35
tp36
s(I1424
I1427
tp37
(S'success'
p38
S'confid'
p39
tp40
s(I375
I461
tp41
(S'success'
p42
S'confid'
p43
tp44
s(I530
I853
tp45
(S'success'
p46
S'confid'
p47
tp48
s(I998
I1093
tp49
(S'wrong'
p50
S'confid'
p51
tp52
s.