(dp0
(I18
I224
tp1
S'success'
p2
s(I462
I529
tp3
S'success'
p4
s(I225
I374
tp5
S'success'
p6
s(I1408
I1423
tp7
S'success'
p8
s(I1094
I1153
tp9
S'success'
p10
s(I854
I922
tp11
S'success'
p12
s(I1154
I1195
tp13
S'na'
p14
s(I1196
I1407
tp15
S'success'
p16
s(I923
I997
tp17
S'success'
p18
s(I1424
I1427
tp19
S'success'
p20
s(I375
I461
tp21
S'success'
p22
s(I530
I853
tp23
S'success'
p24
s(I998
I1093
tp25
S'wrong'
p26
s.