(dp0
(I2351
I2380
tp1
S'not_moved'
p2
s(I3211
I3239
tp3
S'correct'
p4
s(I687
I877
tp5
S'not_moved'
p6
s(I505
I549
tp7
S'correct'
p8
s(I4292
I4878
tp9
S'correct'
p10
s(I5033
I5067
tp11
S'correct'
p12
s(I393
I504
tp13
S'incorrect'
p14
s(I3277
I3285
tp15
S'not_moved'
p16
s(I5068
I5100
tp17
S'correct'
p18
s(I192
I236
tp19
S'correct'
p20
s(I3394
I3671
tp21
S'not_moved'
p22
s(I550
I686
tp23
S'not_moved'
p24
s(I2381
I2763
tp25
S'incorrect'
p26
s(I2820
I3210
tp27
S'correct'
p28
s(I5101
I5143
tp29
S'correct'
p30
s(I1581
I1605
tp31
S'incorrect'
p32
s(I333
I392
tp33
S'correct'
p34
s(I1
I167
tp35
S'incorrect'
p36
s(I3286
I3306
tp37
S'not_moved'
p38
s(I1388
I1416
tp39
S'not_moved'
p40
s(I2004
I2097
tp41
S'not_moved'
p42
s(I261
I332
tp43
S'incorrect'
p44
s(I168
I191
tp45
S'correct'
p46
s(I3672
I4291
tp47
S'not_moved'
p48
s(I4879
I5032
tp49
S'correct'
p50
s(I1521
I1580
tp51
S'not_moved'
p52
s(I922
I1299
tp53
S'not_moved'
p54
s(I237
I260
tp55
S'correct'
p56
s(I2322
I2337
tp57
S'not_moved'
p58
s(I1417
I1479
tp59
S'not_moved'
p60
s.