(dp0
(I2618
I2680
tp1
(S'not_moved'
p2
S'on_hold'
p3
tp4
s(I2342
I2375
tp5
(S'not_moved'
p6
S'reconfirm'
p7
tp8
s(I2813
I2824
tp9
(S'not_moved'
p10
S'reconfirm'
p11
tp12
s(I1438
I1484
tp13
(S'not_moved'
p14
S'on_hold'
p15
tp16
s(I2905
I2931
tp17
(S'not_moved'
p18
S'on_hold'
p19
tp20
s(I527
I892
tp21
(S'not_moved'
p22
S'on_hold'
p23
tp24
s(I276
I453
tp25
(S'incorrect'
p26
S'unconfident'
p27
tp28
s(I1356
I1437
tp29
(S'not_moved'
p30
S'on_hold'
p31
tp32
s(I226
I275
tp33
(S'correct'
p34
S'confident'
p35
tp36
s(I2825
I2867
tp37
(S'not_moved'
p38
S'on_hold'
p39
tp40
s(I3022
I3063
tp41
(S'not_moved'
p42
S'reconfirm'
p43
tp44
s(I1967
I2127
tp45
(S'not_moved'
p46
S'on_hold'
p47
tp48
s(I3441
I3556
tp49
(S'correct'
p50
S'confident'
p51
tp52
s(I2128
I2155
tp53
(S'not_moved'
p54
S'reconfirm'
p55
tp56
s(I2376
I2435
tp57
(S'not_moved'
p58
S'on_hold'
p59
tp60
s(I1485
I1554
tp61
(S'correct'
p62
S'confident'
p63
tp64
s(I893
I939
tp65
(S'correct'
p66
S'confident'
p67
tp68
s(I1945
I1966
tp69
(S'not_moved'
p70
S'reconfirm'
p71
tp72
s(I3234
I3399
tp73
(S'correct'
p74
S'confident'
p75
tp76
s(I1555
I1663
tp77
(S'incorrect'
p78
S'on_hold'
p79
tp80
s(I940
I1355
tp81
(S'incorrect'
p82
S'confident'
p83
tp84
s(I133
I176
tp85
(S'correct'
p86
S'confident'
p87
tp88
s(I1696
I1944
tp89
(S'not_moved'
p90
S'on_hold'
p91
tp92
s(I3557
I3565
tp93
(S'correct'
p94
S'confident'
p95
tp96
s(I1
I132
tp97
(S'incorrect'
p98
S'unconfident'
p99
tp100
s(I177
I225
tp101
(S'correct'
p102
S'confident'
p103
tp104
s(I2156
I2341
tp105
(S'not_moved'
p106
S'on_hold'
p107
tp108
s(I3101
I3233
tp109
(S'correct'
p110
S'confident'
p111
tp112
s(I2543
I2566
tp113
(S'not_moved'
p114
S'on_hold'
p115
tp116
s(I2681
I2723
tp117
(S'not_moved'
p118
S'reconfirm'
p119
tp120
s(I454
I526
tp121
(S'correct'
p122
S'confident'
p123
tp124
s(I2932
I3021
tp125
(S'not_moved'
p126
S'on_hold'
p127
tp128
s(I3064
I3100
tp129
(S'correct'
p130
S'confident'
p131
tp132
s(I2436
I2542
tp133
(S'not_moved'
p134
S'reconfirm'
p135
tp136
s(I2567
I2617
tp137
(S'not_moved'
p138
S'reconfirm'
p139
tp140
s(I2755
I2812
tp141
(S'not_moved'
p142
S'on_hold'
p143
tp144
s(I1664
I1695
tp145
(S'correct'
p146
S'confident'
p147
tp148
s.