ccollections
defaultdict
p0
(c__builtin__
dict
p1
tp2
Rp3
S'alignment e'
p4
(dp5
S'FTT_2006-06-22pair1_refexps.p(2820, 3210)'
p6
(F1.0
S'correct'
p7
tp8
sS'20070201_run1pento_nonoise_refexps.p(4, 251)'
p9
(F0.0
S'correct'
p10
tp11
sS'20070201_run3pento_nonoise_refexps.p(1196, 1407)'
p12
(F1.0
g10
tp13
sS'FTT_2006-03-28pair2_refexps.p(2905, 2931)'
p14
(F1.0
S'not_moved'
p15
tp16
sS'20061123_pento_nonoise_refexps.p(1015, 1397)'
p17
(F1.0
S'not_moved'
p18
tp19
sS'20061123_pento_nonoise_refexps.p(3754, 3811)'
p20
(F1.0
g10
tp21
sS'20070201_run1pento_nonoise_refexps.p(1316, 1491)'
p22
(F0.0
g10
tp23
sS'FTT_2006-03-28pair2_refexps.p(527, 892)'
p24
(F0.0
S'not_moved'
p25
tp26
sS'FTT_2006-03-28pair2_refexps.p(2567, 2617)'
p27
(F0.0
S'not_moved'
p28
tp29
sS'FTT_2006-03-27Pair1_refexps.p(3166, 3426)'
p30
(F1.0
S'not_moved'
p31
tp32
sS'FTT_2006-03-27Pair1_refexps.p(2082, 2354)'
p33
(F1.0
S'correct'
p34
tp35
sS'20070201_run3pento_nonoise_refexps.p(854, 922)'
p36
(F0.0
g10
tp37
sS'FTT_2006-06-22pair1_refexps.p(261, 332)'
p38
(F0.0
S'incorrect'
p39
tp40
sS'FTT_2006-03-28pair2_refexps.p(940, 1355)'
p41
(F0.0
S'incorrect'
p42
tp43
sS'FTT_2006-03-28pair2_refexps.p(2618, 2680)'
p44
(F1.0
S'not_moved'
p45
tp46
sS'FTT_2006-06-22pair1_refexps.p(505, 549)'
p47
(F1.0
S'correct'
p48
tp49
sS'20070201_run4pento_nonoise_refexps.p(1563, 1738)'
p50
(F1.0
g10
tp51
sS'FTT_2006-03-27Pair1_refexps.p(760, 945)'
p52
(F0.0
S'correct'
p53
tp54
sS'FTT_2006-06-22pair2_refexps.p(2583, 2844)'
p55
(F0.6666666666666666
S'correct'
p56
tp57
sS'FTT_2006-03-28pair2_refexps.p(1696, 1944)'
p58
(F0.0
S'not_moved'
p59
tp60
sS'FTT_2006-06-22pair2_refexps.p(3295, 3456)'
p61
(F1.0
S'incorrect'
p62
tp63
sS'FTT_2006-03-27Pair1_refexps.p(2553, 2749)'
p64
(F1.0
S'incorrect'
p65
tp66
sS'FTT_2006-03-27Pair1_refexps.p(1117, 1518)'
p67
(F0.0
S'not_moved'
p68
tp69
sS'FTT_2006-06-22pair2_refexps.p(2845, 3294)'
p70
(F0.0
S'correct'
p71
tp72
sS'FTT_2006-06-22pair1_refexps.p(4879, 5032)'
p73
(F1.0
S'correct'
p74
tp75
sS'20070201_run1pento_nonoise_refexps.p(1786, 2114)'
p76
(F0.5
g10
tp77
sS'FTT_2006-03-28pair2_refexps.p(2681, 2723)'
p78
(F1.0
S'not_moved'
p79
tp80
sS'20070201_run4pento_nonoise_refexps.p(288, 785)'
p81
(F0.25
g10
tp82
sS'FTT_2006-03-28pair2_refexps.p(1967, 2127)'
p83
(F1.0
S'not_moved'
p84
tp85
sS'FTT_2006-03-27Pair1_refexps.p(2022, 2081)'
p86
(F1.0
S'not_moved'
p87
tp88
sS'FTT_2006-03-28pair2_refexps.p(3101, 3233)'
p89
(F0.5
S'correct'
p90
tp91
sS'FTT_2006-03-28pair2_refexps.p(2436, 2542)'
p92
(F0.0
S'not_moved'
p93
tp94
sS'FTT_2006-06-22pair2_refexps.p(5496, 5553)'
p95
(F1.0
S'correct'
p96
tp97
sS'FTT_2006-03-28pair2_refexps.p(1356, 1437)'
p98
(F1.0
S'not_moved'
p99
tp100
sS'20061123_pento_nonoise_refexps.p(1546, 2082)'
p101
(F0.6666666666666666
g10
tp102
sS'FTT_2006-03-27Pair1_refexps.p(2505, 2552)'
p103
(F1.0
S'correct'
p104
tp105
sS'FTT_2006-03-28pair2_refexps.p(1555, 1663)'
p106
(F1.0
S'incorrect'
p107
tp108
sS'FTT_2006-03-27Pair1_refexps.p(946, 1116)'
p109
(F0.0
S'incorrect'
p110
tp111
sS'20070201_run3pento_nonoise_refexps.p(530, 853)'
p112
(F0.0
g10
tp113
sS'FTT_2006-06-22pair2_refexps.p(1622, 2582)'
p114
(F1.0
S'incorrect'
p115
tp116
sS'FTT_2006-06-22pair2_refexps.p(4732, 4881)'
p117
(F1.0
S'correct'
p118
tp119
sS'20070201_run1pento_nonoise_refexps.p(2115, 2406)'
p120
(F1.0
g10
tp121
sS'FTT_2006-06-22pair1_refexps.p(2004, 2097)'
p122
(F0.0
S'not_moved'
p123
tp124
sS'20070201_run1pento_nonoise_refexps.p(596, 657)'
p125
(F1.0
S'not_moved'
p126
tp127
sS'FTT_2006-06-22pair1_refexps.p(1, 167)'
p128
(F0.0
S'incorrect'
p129
tp130
sS'FTT_2006-03-27Pair1_refexps.p(191, 410)'
p131
(F0.0
S'incorrect'
p132
tp133
sS'20061123_pento_nonoise_refexps.p(3008, 3166)'
p134
(F1.0
g10
tp135
sS'FTT_2006-06-22pair1_refexps.p(2351, 2380)'
p136
(F0.0
S'not_moved'
p137
tp138
sS'20070201_run3pento_nonoise_refexps.p(375, 461)'
p139
(F0.0
g10
tp140
sS'20070201_run4pento_nonoise_refexps.p(23, 287)'
p141
(F0.0
g10
tp142
sS'20070201_run1pento_nonoise_refexps.p(252, 595)'
p143
(F0.6666666666666666
S'incorrect'
p144
tp145
sS'FTT_2006-06-22pair2_refexps.p(4938, 5360)'
p146
(F0.5
S'correct'
p147
tp148
sS'20070201_run4pento_nonoise_refexps.p(1002, 1299)'
p149
(F0.0
g10
tp150
sS'FTT_2006-06-22pair2_refexps.p(5361, 5495)'
p151
(F0.3333333333333333
S'correct'
p152
tp153
sS'FTT_2006-03-28pair2_refexps.p(2376, 2435)'
p154
(F1.0
S'not_moved'
p155
tp156
sS'FTT_2006-06-22pair1_refexps.p(1521, 1580)'
p157
(F0.0
S'not_moved'
p158
tp159
sS'20061123_pento_nonoise_refexps.p(187, 397)'
p160
(F0.8
g10
tp161
sS'FTT_2006-03-27Pair1_refexps.p(411, 600)'
p162
(F0.0
S'correct'
p163
tp164
sS'20070201_run4pento_nonoise_refexps.p(786, 893)'
p165
(F1.0
g10
tp166
sS'FTT_2006-06-22pair1_refexps.p(333, 392)'
p167
(F0.0
S'correct'
p168
tp169
sS'FTT_2006-06-22pair1_refexps.p(687, 877)'
p170
(F0.0
S'not_moved'
p171
tp172
sS'FTT_2006-03-28pair2_refexps.p(276, 453)'
p173
(F0.0
S'incorrect'
p174
tp175
sS'FTT_2006-06-22pair2_refexps.p(3764, 3963)'
p176
(F0.0
S'correct'
p177
tp178
sS'20061123_pento_nonoise_refexps.p(3711, 3753)'
p179
(F1.0
g10
tp180
sS'FTT_2006-03-28pair2_refexps.p(1, 132)'
p181
(F0.0
S'incorrect'
p182
tp183
sS'20070201_run4pento_nonoise_refexps.p(894, 1001)'
p184
(F1.0
g10
tp185
sS'20061123_pento_nonoise_refexps.p(756, 825)'
p186
(F1.0
S'not_moved'
p187
tp188
sS'FTT_2006-03-27Pair1_refexps.p(3050, 3165)'
p189
(F0.0
S'not_moved'
p190
tp191
sS'20070201_run1pento_nonoise_refexps.p(1492, 1559)'
p192
(F0.0
g10
tp193
sS'20070201_run4pento_nonoise_refexps.p(1739, 1799)'
p194
(F1.0
g10
tp195
sS'20061123_pento_nonoise_refexps.p(895, 1014)'
p196
(F0.5
g10
tp197
sS'20061123_pento_nonoise_refexps.p(3329, 3710)'
p198
(F0.5
g10
tp199
sS'FTT_2006-06-22pair1_refexps.p(3672, 4291)'
p200
(F0.6666666666666666
S'not_moved'
p201
tp202
sS'20070201_run1pento_nonoise_refexps.p(658, 1315)'
p203
(F0.0
g10
tp204
sS'FTT_2006-03-28pair2_refexps.p(1438, 1484)'
p205
(F1.0
S'not_moved'
p206
tp207
sS'FTT_2006-03-27Pair1_refexps.p(601, 695)'
p208
(F0.0
S'not_moved'
p209
tp210
sS'FTT_2006-03-28pair2_refexps.p(226, 275)'
p211
(F0.0
S'correct'
p212
tp213
sS'20070201_run1pento_nonoise_refexps.p(2593, 2616)'
p214
(F1.0
g10
tp215
sS'FTT_2006-06-22pair2_refexps.p(3965, 4714)'
p216
(F0.0
S'correct'
p217
tp218
sS'FTT_2006-03-28pair2_refexps.p(3234, 3399)'
p219
(F0.5
S'correct'
p220
tp221
sS'20070201_run3pento_nonoise_refexps.p(225, 374)'
p222
(F0.5
g10
tp223
sS'20061123_pento_nonoise_refexps.p(398, 755)'
p224
(F1.0
S'not_moved'
p225
tp226
sS'20070201_run4pento_nonoise_refexps.p(1300, 1422)'
p227
(F0.5
g10
tp228
sS'20061123_pento_nonoise_refexps.p(1502, 1545)'
p229
(F1.0
S'not_moved'
p230
tp231
sS'20070201_run1pento_nonoise_refexps.p(2564, 2592)'
p232
(F0.0
g10
tp233
sS'FTT_2006-06-22pair1_refexps.p(550, 686)'
p234
(F1.0
S'not_moved'
p235
tp236
sS'FTT_2006-06-22pair1_refexps.p(3394, 3671)'
p237
(F1.0
S'not_moved'
p238
tp239
sS'FTT_2006-03-27Pair1_refexps.p(1519, 1710)'
p240
(F1.0
S'not_moved'
p241
tp242
sS'FTT_2006-03-28pair2_refexps.p(1485, 1554)'
p243
(F1.0
S'correct'
p244
tp245
sS'FTT_2006-06-22pair1_refexps.p(4292, 4878)'
p246
(F1.0
S'correct'
p247
tp248
sS'FTT_2006-03-27Pair1_refexps.p(2843, 2973)'
p249
(F0.0
S'not_moved'
p250
tp251
sS'FTT_2006-06-22pair1_refexps.p(3286, 3306)'
p252
(F1.0
S'not_moved'
p253
tp254
sS'20070201_run4pento_nonoise_refexps.p(1423, 1513)'
p255
(F0.0
g10
tp256
sS'FTT_2006-03-28pair2_refexps.p(2755, 2812)'
p257
(F1.0
S'not_moved'
p258
tp259
sS'FTT_2006-03-28pair2_refexps.p(2156, 2341)'
p260
(F0.0
S'not_moved'
p261
tp262
sS'FTT_2006-03-27Pair1_refexps.p(1888, 2021)'
p263
(F0.0
S'correct'
p264
tp265
sS'20070201_run3pento_nonoise_refexps.p(923, 997)'
p266
(F1.0
g10
tp267
sS'FTT_2006-03-27Pair1_refexps.p(2355, 2504)'
p268
(F0.0
S'correct'
p269
tp270
sS'FTT_2006-06-22pair1_refexps.p(2381, 2763)'
p271
(F0.0
S'incorrect'
p272
tp273
sS'20061123_pento_nonoise_refexps.p(3167, 3328)'
p274
(F0.0
g10
tp275
sS'FTT_2006-06-22pair1_refexps.p(922, 1299)'
p276
(F1.0
S'not_moved'
p277
tp278
sS'FTT_2006-03-28pair2_refexps.p(3064, 3100)'
p279
(F0.0
S'correct'
p280
tp281
sS'20061123_pento_nonoise_refexps.p(2083, 3007)'
p282
(F1.0
g10
tp283
sS'FTT_2006-06-22pair2_refexps.p(1, 1621)'
p284
(F0.5714285714285714
S'incorrect'
p285
tp286
sS'20070201_run3pento_nonoise_refexps.p(18, 224)'
p287
(F0.0
g10
tp288
ssS'variation p'
p289
(dp290
g6
(cnumpy.core.multiarray
scalar
p291
(cnumpy
dtype
p292
(S'f8'
p293
I0
I1
tp294
Rp295
(I3
S'<'
p296
NNNI-1
I-1
I0
tp297
bS'\x00\x00\x00\x00\x00\x00\x00\x00'
p298
tp299
Rp300
g7
tp301
sg9
(g291
(g295
S'\x80?\xff<\xb6.\xf0?'
p302
tp303
Rp304
g10
tp305
sg12
(g291
(g295
S'\x00\x00\x00\x00\x00\x00\x00\x00'
p306
tp307
Rp308
g10
tp309
sg14
(g291
(g295
S'\x00\x00\x00\x00\x00\x00\x00\x00'
p310
tp311
Rp312
g15
tp313
sg17
(g291
(g295
S'\x00\x00\x00\x00\x00\x00\x00\x00'
p314
tp315
Rp316
g18
tp317
sg20
(g291
(g295
S'\x00\x00\x00\x00\x00\x00\x00\x00'
p318
tp319
Rp320
g10
tp321
sg22
(g291
(g295
S's\xab;?\xb2\xa2\xf0?'
p322
tp323
Rp324
g10
tp325
sg24
(g291
(g295
S'\x00\x00\x00\x00\x00\x00\x00\x00'
p326
tp327
Rp328
g25
tp329
sg27
(g291
(g295
S' \x8a\x08\xf6R^\xe4?'
p330
tp331
Rp332
g28
tp333
sg30
(g291
(g295
S'\xef9\xfa\xfeB.\xe6?'
p334
tp335
Rp336
g31
tp337
sg33
(g291
(g295
S'!H\xa5C\x06%\xe3?'
p338
tp339
Rp340
g34
tp341
sg67
(g291
(g295
S'W\xb1\xc4T6N\xe8?'
p342
tp343
Rp344
g68
tp345
sg36
(g291
(g295
S'\x00\x00\x00\x00\x00\x00\x00\x00'
p346
tp347
Rp348
g10
tp349
sg38
(g291
(g295
S'\x00\x00\x00\x00\x00\x00\x00\x00'
p350
tp351
Rp352
g39
tp353
sg41
(g291
(g295
S' \x8a\x08\xf6R^\xe4?'
p354
tp355
Rp356
g42
tp357
sg44
(g291
(g295
S'\x00\x00\x00\x00\x00\x00\x00\x00'
p358
tp359
Rp360
g45
tp361
sg47
(g291
(g295
S'\x00\x00\x00\x00\x00\x00\x00\x00'
p362
tp363
Rp364
g48
tp365
sg50
(g291
(g295
S'N\xef\xf0E\xa6\xfe\xe1?'
p366
tp367
Rp368
g10
tp369
sg52
(g291
(g295
S'\x00\x00\x00\x00\x00\x00\x00\x00'
p370
tp371
Rp372
g53
tp373
sg55
(g291
(g295
S'\xd8\x91w\x0f\x18\xee\xe5?'
p374
tp375
Rp376
g56
tp377
sS'FTT_2006-03-27Pair1_refexps.p(3568, 3607)'
p378
(g291
(g295
S' \x8a\x08\xf6R^\xe4?'
p379
tp380
Rp381
S'not_moved'
p382
tp383
sS'20070201_run1pento_nonoise_refexps.p(1560, 1785)'
p384
(g291
(g295
S'+\x91ka"l\xf1?'
p385
tp386
Rp387
g10
tp388
sS'FTT_2006-03-28pair2_refexps.p(177, 225)'
p389
(g291
(g295
S'\n\x03\xadz\xea\x93\xf1?'
p390
tp391
Rp392
S'correct'
p393
tp394
sS'FTT_2006-03-28pair2_refexps.p(2932, 3021)'
p395
(g291
(g295
S'\xef9\xfa\xfeB.\xe6?'
p396
tp397
Rp398
S'not_moved'
p399
tp400
sg58
(g291
(g295
S'\x00\x00\x00\x00\x00\x00\x00\x00'
p401
tp402
Rp403
g59
tp404
sS'FTT_2006-06-22pair1_refexps.p(1388, 1416)'
p405
(g291
(g295
S'\x00\x00\x00\x00\x00\x00\x00\x00'
p406
tp407
Rp408
S'not_moved'
p409
tp410
sS'20070201_run1pento_nonoise_refexps.p(2543, 2563)'
p411
(g291
(g295
S'\xef9\xfa\xfeB.\xe6?'
p412
tp413
Rp414
g10
tp415
sg61
(g291
(g295
S'\x00\x00\x00\x00\x00\x00\x00\x00'
p416
tp417
Rp418
g62
tp419
sg64
(g291
(g295
S'\x00\x00\x00\x00\x00\x00\x00\x00'
p420
tp421
Rp422
g65
tp423
sS'20061123_pento_nonoise_refexps.p(826, 894)'
p424
(g291
(g295
S'\x00\x00\x00\x00\x00\x00\x00\x00'
p425
tp426
Rp427
g10
tp428
sS'FTT_2006-03-27Pair1_refexps.p(2974, 3031)'
p429
(g291
(g295
S'\x00\x00\x00\x00\x00\x00\x00\x00'
p430
tp431
Rp432
S'not_moved'
p433
tp434
sS'FTT_2006-03-28pair2_refexps.p(2543, 2566)'
p435
(g291
(g295
S'\x00\x00\x00\x00\x00\x00\x00\x00'
p436
tp437
Rp438
S'not_moved'
p439
tp440
sg70
(g291
(g295
S'\xb1\xf2\x1a\x9fzh\xf3?'
p441
tp442
Rp443
g71
tp444
sS'FTT_2006-03-28pair2_refexps.p(893, 939)'
p445
(g291
(g295
S'\x00\x00\x00\x00\x00\x00\x00\x00'
p446
tp447
Rp448
S'correct'
p449
tp450
sS'FTT_2006-03-28pair2_refexps.p(1945, 1966)'
p451
(g291
(g295
S'\x00\x00\x00\x00\x00\x00\x00\x00'
p452
tp453
Rp454
S'not_moved'
p455
tp456
sg73
(g291
(g295
S'\x00\x00\x00\x00\x00\x00\x00\x00'
p457
tp458
Rp459
g74
tp460
sg76
(g291
(g295
S'\x00\x00\x00\x00\x00\x00\x00\x00'
p461
tp462
Rp463
g10
tp464
sg114
(g291
(g295
S'\x18\x96I\xf1\xf2r\xe4?'
p465
tp466
Rp467
g115
tp468
sS'FTT_2006-03-27Pair1_refexps.p(1761, 1787)'
p469
(g291
(g295
S'\x00\x00\x00\x00\x00\x00\x00\x00'
p470
tp471
Rp472
S'not_moved'
p473
tp474
sg81
(g291
(g295
S'\xfcc\x0f;\x1f\x01\xee?'
p475
tp476
Rp477
g10
tp478
sS'FTT_2006-03-28pair2_refexps.p(1664, 1695)'
p479
(g291
(g295
S'\xef9\xfa\xfeB.\xe6?'
p480
tp481
Rp482
S'correct'
p483
tp484
sg83
(g291
(g295
S'\x06\xfb\x03\xab\x86+\xe5?'
p485
tp486
Rp487
g84
tp488
sg86
(g291
(g295
S' \x8a\x08\xf6R^\xe4?'
p489
tp490
Rp491
g87
tp492
sS'20070201_run3pento_nonoise_refexps.p(1094, 1153)'
p493
(g291
(g295
S'\x00\x00\x00\x00\x00\x00\x00\x00'
p494
tp495
Rp496
g10
tp497
sg89
(g291
(g295
S'\x00\x00\x00\x00\x00\x00\x00\x00'
p498
tp499
Rp500
g90
tp501
sg92
(g291
(g295
S'\xe4\x02#\xd8\x96\xfb\xe5?'
p502
tp503
Rp504
g93
tp505
sg95
(g291
(g295
S'\x1bH\xb1\xf5\x13\xc3\xeb?'
p506
tp507
Rp508
g96
tp509
sg98
(g291
(g295
S'\x00\x00\x00\x00\x00\x00\x00\x00'
p510
tp511
Rp512
g99
tp513
sg101
(g291
(g295
S'\x00\x00\x00\x00\x00\x00\x00\x00'
p514
tp515
Rp516
g10
tp517
sS'FTT_2006-03-27Pair1_refexps.p(1750, 1760)'
p518
(g291
(g295
S'\x00\x00\x00\x00\x00\x00\x00\x00'
p519
tp520
Rp521
S'not_moved'
p522
tp523
sS'FTT_2006-03-28pair2_refexps.p(2813, 2824)'
p524
(g291
(g295
S'\x00\x00\x00\x00\x00\x00\x00\x00'
p525
tp526
Rp527
S'not_moved'
p528
tp529
sS'FTT_2006-06-22pair1_refexps.p(1417, 1479)'
p530
(g291
(g295
S'\x00\x00\x00\x00\x00\x00\x00\x00'
p531
tp532
Rp533
S'not_moved'
p534
tp535
sS'FTT_2006-03-27Pair1_refexps.p(731, 759)'
p536
(g291
(g295
S'\x00\x00\x00\x00\x00\x00\x00\x00'
p537
tp538
Rp539
S'not_moved'
p540
tp541
sS'FTT_2006-06-22pair1_refexps.p(192, 236)'
p542
(g291
(g295
S'\x00\x00\x00\x00\x00\x00\x00\x00'
p543
tp544
Rp545
S'correct'
p546
tp547
sg103
(g291
(g295
S'\xef9\xfa\xfeB.\xe6?'
p548
tp549
Rp550
g104
tp551
sg106
(g291
(g295
S'\xc82t\xc3O\x89\xe5?'
p552
tp553
Rp554
g107
tp555
sg109
(g291
(g295
S'\xa2\xcf#\xf0\x17\x95\xee?'
p556
tp557
Rp558
g110
tp559
sg112
(g291
(g295
S'\x00\x00\x00\x00\x00\x00\x00\x00'
p560
tp561
Rp562
g10
tp563
sg78
(g291
(g295
S'\x00\x00\x00\x00\x00\x00\x00\x00'
p564
tp565
Rp566
g79
tp567
sg117
(g291
(g295
S'\x00\x00\x00\x00\x00\x00\x00\x00'
p568
tp569
Rp570
g118
tp571
sg120
(g291
(g295
S'\x00\x00\x00\x00\x00\x00\x00\x00'
p572
tp573
Rp574
g10
tp575
sg268
(g291
(g295
S'\x96\xb1\xf2!\x96-\xef?'
p576
tp577
Rp578
g269
tp579
sS'FTT_2006-06-22pair1_refexps.p(3277, 3285)'
p580
(g291
(g295
S'\x00\x00\x00\x00\x00\x00\x00\x00'
p581
tp582
Rp583
S'not_moved'
p584
tp585
sg122
(g291
(g295
S'p\x94\xfb\x18b\xda\xe5?'
p586
tp587
Rp588
g123
tp589
sg125
(g291
(g295
S'\xa2\xcf#\xf0\x17\x95\xee?'
p590
tp591
Rp592
g126
tp593
sg128
(g291
(g295
S' \x8a\x08\xf6R^\xe4?'
p594
tp595
Rp596
g129
tp597
sg131
(g291
(g295
S'\xe4\xeb.\xab\xe0\x1c\xec?'
p598
tp599
Rp600
g132
tp601
sg134
(g291
(g295
S'\x00\x00\x00\x00\x00\x00\x00\x00'
p602
tp603
Rp604
g10
tp605
sg136
(g291
(g295
S'\xef9\xfa\xfeB.\xe6?'
p606
tp607
Rp608
g137
tp609
sg139
(g291
(g295
S'j\xf1\xf3i0\xe1\xe5?'
p610
tp611
Rp612
g10
tp613
sg141
(g291
(g295
S'\xcdP\x1c0\xfd\xfa\xed?'
p614
tp615
Rp616
g10
tp617
sS'20070201_run3pento_nonoise_refexps.p(462, 529)'
p618
(g291
(g295
S'\x00\x00\x00\x00\x00\x00\x00\x00'
p619
tp620
Rp621
g10
tp622
sg143
(g291
(g295
S'\x00\x00\x00\x00\x00\x00\x00\x00'
p623
tp624
Rp625
g144
tp626
sg146
(g291
(g295
S'>\xf3\xeb\xb0\x90\xa6\xec?'
p627
tp628
Rp629
g147
tp630
sg149
(g291
(g295
S'\x00\x00\x00\x00\x00\x00\x00\x00'
p631
tp632
Rp633
g10
tp634
sg151
(g291
(g295
S'\x00\x00\x00\x00\x00\x00\x00\x00'
p635
tp636
Rp637
g152
tp638
sS'FTT_2006-03-28pair2_refexps.p(133, 176)'
p639
(g291
(g295
S'\xef9\xfa\xfeB.\xe6?'
p640
tp641
Rp642
S'correct'
p643
tp644
sg154
(g291
(g295
S'\x00\x00\x00\x00\x00\x00\x00\x00'
p645
tp646
Rp647
g155
tp648
sg157
(g291
(g295
S'\x00\x00\x00\x00\x00\x00\x00\x00'
p649
tp650
Rp651
g158
tp652
sS'FTT_2006-06-22pair2_refexps.p(5640, 5688)'
p653
(g291
(g295
S'\x00\x00\x00\x00\x00\x00\x00\x00'
p654
tp655
Rp656
S'correct'
p657
tp658
sS'FTT_2006-06-22pair1_refexps.p(1581, 1605)'
p659
(g291
(g295
S'\x00\x00\x00\x00\x00\x00\x00\x00'
p660
tp661
Rp662
S'incorrect'
p663
tp664
sg160
(g291
(g295
S'\xb8\xfc\xfe#k\x9a\xf2?'
p665
tp666
Rp667
g10
tp668
sg162
(g291
(g295
S'\xa2\xcf#\xf0\x17\x95\xee?'
p669
tp670
Rp671
g163
tp672
sg165
(g291
(g295
S'N\xef\xf0E\xa6\xfe\xe1?'
p673
tp674
Rp675
g10
tp676
sg167
(g291
(g295
S'\x00\x00\x00\x00\x00\x00\x00\x00'
p677
tp678
Rp679
g168
tp680
sS'FTT_2006-03-27Pair1_refexps.p(3032, 3049)'
p681
(g291
(g295
S'\x00\x00\x00\x00\x00\x00\x00\x00'
p682
tp683
Rp684
S'correct'
p685
tp686
sg170
(g291
(g295
S'\xef9\xfa\xfeB.\xe6?'
p687
tp688
Rp689
g171
tp690
sg173
(g291
(g295
S'\xef9\xfa\xfeB.\xe6?'
p691
tp692
Rp693
g174
tp694
sS'FTT_2006-03-28pair2_refexps.p(2342, 2375)'
p695
(g291
(g295
S'\x00\x00\x00\x00\x00\x00\x00\x00'
p696
tp697
Rp698
S'not_moved'
p699
tp700
sg176
(g291
(g295
S'\xb1\xf2\x1a\x9fzh\xf3?'
p701
tp702
Rp703
g177
tp704
sg179
(g291
(g295
S'\x00\x00\x00\x00\x00\x00\x00\x00'
p705
tp706
Rp707
g10
tp708
sg181
(g291
(g295
S'\xca}\xaf\x057\x8a\xe7?'
p709
tp710
Rp711
g182
tp712
sS'FTT_2006-06-22pair1_refexps.p(5101, 5143)'
p713
(g291
(g295
S'\x00\x00\x00\x00\x00\x00\x00\x00'
p714
tp715
Rp716
S'correct'
p717
tp718
sg184
(g291
(g295
S'\x00\x00\x00\x00\x00\x00\x00\x00'
p719
tp720
Rp721
g10
tp722
sg186
(g291
(g295
S' \x8a\x08\xf6R^\xe4?'
p723
tp724
Rp725
g187
tp726
sg189
(g291
(g295
S'\n\x03\xadz\xea\x93\xf1?'
p727
tp728
Rp729
g190
tp730
sg192
(g291
(g295
S'\x00\x00\x00\x00\x00\x00\x00\x00'
p731
tp732
Rp733
g10
tp734
sg194
(g291
(g295
S'\xef9\xfa\xfeB.\xe6?'
p735
tp736
Rp737
g10
tp738
sg196
(g291
(g295
S' \x8a\x08\xf6R^\xe4?'
p739
tp740
Rp741
g10
tp742
sg198
(g291
(g295
S'\x9e/0E8\x84\xf1?'
p743
tp744
Rp745
g10
tp746
sg200
(g291
(g295
S'\x00\x00\x00\x00\x00\x00\x00\x00'
p747
tp748
Rp749
g201
tp750
sS'FTT_2006-06-22pair1_refexps.p(2322, 2337)'
p751
(g291
(g295
S' \x8a\x08\xf6R^\xe4?'
p752
tp753
Rp754
S'not_moved'
p755
tp756
sg205
(g291
(g295
S' \x8a\x08\xf6R^\xe4?'
p757
tp758
Rp759
g206
tp760
sS'FTT_2006-06-22pair2_refexps.p(3464, 3707)'
p761
(g291
(g295
S's\xab;?\xb2\xa2\xf0?'
p762
tp763
Rp764
S'incorrect'
p765
tp766
sS'FTT_2006-03-28pair2_refexps.p(2825, 2867)'
p767
(g291
(g295
S'\x00\x00\x00\x00\x00\x00\x00\x00'
p768
tp769
Rp770
S'not_moved'
p771
tp772
sg208
(g291
(g295
S'\x06\xc1Uz\xab\xf8\xf8?'
p773
tp774
Rp775
g209
tp776
sg211
(g291
(g295
S'\x00\x00\x00\x00\x00\x00\x00\x00'
p777
tp778
Rp779
g212
tp780
sS'FTT_2006-06-22pair1_refexps.p(237, 260)'
p781
(g291
(g295
S'\x00\x00\x00\x00\x00\x00\x00\x00'
p782
tp783
Rp784
S'correct'
p785
tp786
sg214
(g291
(g295
S'\x00\x00\x00\x00\x00\x00\x00\x00'
p787
tp788
Rp789
g10
tp790
sg216
(g291
(g295
S'\xac\xc9\x0f\xebB\x83\xf4?'
p791
tp792
Rp793
g217
tp794
sS'FTT_2006-06-22pair2_refexps.p(5602, 5639)'
p795
(g291
(g295
S'\xef9\xfa\xfeB.\xe6?'
p796
tp797
Rp798
S'correct'
p799
tp800
sg219
(g291
(g295
S'\xad\x9c\xa9\xc5\xd7\xd9\xf3?'
p801
tp802
Rp803
g220
tp804
sg276
(g291
(g295
S'\xe8\xf0}\xf1K\x03\xe0?'
p805
tp806
Rp807
g277
tp808
sg222
(g291
(g295
S'\x00\x00\x00\x00\x00\x00\x00\x00'
p809
tp810
Rp811
g10
tp812
sS'FTT_2006-03-28pair2_refexps.p(2128, 2155)'
p813
(g291
(g295
S'\x00\x00\x00\x00\x00\x00\x00\x00'
p814
tp815
Rp816
S'not_moved'
p817
tp818
sS'FTT_2006-03-27Pair1_refexps.p(3444, 3495)'
p819
(g291
(g295
S'\xef9\xfa\xfeB.\xe6?'
p820
tp821
Rp822
S'not_moved'
p823
tp824
sg224
(g291
(g295
S'\x00\x00\x00\x00\x00\x00\x00\x00'
p825
tp826
Rp827
g225
tp828
sg227
(g291
(g295
S'\xef9\xfa\xfeB.\xe6?'
p829
tp830
Rp831
g10
tp832
sg229
(g291
(g295
S'\x00\x00\x00\x00\x00\x00\x00\x00'
p833
tp834
Rp835
g230
tp836
sg232
(g291
(g295
S' \x8a\x08\xf6R^\xe4?'
p837
tp838
Rp839
g10
tp840
sg234
(g291
(g295
S'\x00\x00\x00\x00\x00\x00\x00\x00'
p841
tp842
Rp843
g235
tp844
sS'FTT_2006-06-22pair1_refexps.p(5068, 5100)'
p845
(g291
(g295
S'\x00\x00\x00\x00\x00\x00\x00\x00'
p846
tp847
Rp848
S'correct'
p849
tp850
sS'FTT_2006-03-27Pair1_refexps.p(2815, 2842)'
p851
(g291
(g295
S'\xef9\xfa\xfeB.\xe6?'
p852
tp853
Rp854
S'not_moved'
p855
tp856
sg240
(g291
(g295
S'\n\x03\xadz\xea\x93\xf1?'
p857
tp858
Rp859
g241
tp860
sg203
(g291
(g295
S'N\xef\xf0E\xa6\xfe\xe1?'
p861
tp862
Rp863
g10
tp864
sS'FTT_2006-03-27Pair1_refexps.p(704, 730)'
p865
(g291
(g295
S'\x00\x00\x00\x00\x00\x00\x00\x00'
p866
tp867
Rp868
S'not_moved'
p869
tp870
sg243
(g291
(g295
S'\x00\x00\x00\x00\x00\x00\x00\x00'
p871
tp872
Rp873
g244
tp874
sg246
(g291
(g295
S'\x06\xfb\x03\xab\x86+\xe5?'
p875
tp876
Rp877
g247
tp878
sS'FTT_2006-03-28pair2_refexps.p(3022, 3063)'
p879
(g291
(g295
S'\x00\x00\x00\x00\x00\x00\x00\x00'
p880
tp881
Rp882
S'not_moved'
p883
tp884
sg249
(g291
(g295
S' \x8a\x08\xf6R^\xe4?'
p885
tp886
Rp887
g250
tp888
sg252
(g291
(g295
S'\x00\x00\x00\x00\x00\x00\x00\x00'
p889
tp890
Rp891
g253
tp892
sS'20070201_run3pento_nonoise_refexps.p(998, 1093)'
p893
(g291
(g295
S'\x00\x00\x00\x00\x00\x00\x00\x00'
p894
tp895
Rp896
g144
tp897
sg255
(g291
(g295
S'\x00\x00\x00\x00\x00\x00\x00\x00'
p898
tp899
Rp900
g10
tp901
sg257
(g291
(g295
S'\x00\x00\x00\x00\x00\x00\x00\x00'
p902
tp903
Rp904
g258
tp905
sg260
(g291
(g295
S'\x80?\xff<\xb6.\xf0?'
p906
tp907
Rp908
g261
tp909
sg263
(g291
(g295
S's\xab;?\xb2\xa2\xf0?'
p910
tp911
Rp912
g264
tp913
sg266
(g291
(g295
S'\xe8\xf0}\xf1K\x03\xe0?'
p914
tp915
Rp916
g10
tp917
sS'FTT_2006-06-22pair1_refexps.p(393, 504)'
p918
(g291
(g295
S'\xd4BV\xf8\xf3\xe0\xf0?'
p919
tp920
Rp921
S'incorrect'
p922
tp923
sg271
(g291
(g295
S'\xca\xa2e\xfa\xa2}\xef?'
p924
tp925
Rp926
g272
tp927
sg274
(g291
(g295
S'\x00\x00\x00\x00\x00\x00\x00\x00'
p928
tp929
Rp930
g10
tp931
sS'FTT_2006-03-27Pair1_refexps.p(2750, 2814)'
p932
(g291
(g295
S'\x80?\xff<\xb6.\xf0?'
p933
tp934
Rp935
S'correct'
p936
tp937
sS'FTT_2006-06-22pair1_refexps.p(168, 191)'
p938
(g291
(g295
S' \x8a\x08\xf6R^\xe4?'
p939
tp940
Rp941
S'correct'
p942
tp943
sg279
(g291
(g295
S'\x00\x00\x00\x00\x00\x00\x00\x00'
p944
tp945
Rp946
g280
tp947
sg282
(g291
(g295
S'\x1bH\xb1\xf5\x13\xc3\xeb?'
p948
tp949
Rp950
g10
tp951
sS'FTT_2006-03-27Pair1_refexps.p(1788, 1887)'
p952
(g291
(g295
S'N\xef\xf0E\xa6\xfe\xe1?'
p953
tp954
Rp955
S'not_moved'
p956
tp957
sg284
(g291
(g295
S'`m\xd0\xe5\\X\xe3?'
p958
tp959
Rp960
g285
tp961
sS'20070201_run1pento_nonoise_refexps.p(2407, 2542)'
p962
(g291
(g295
S'\x07T;\xae\xfe\xd5\xdc?'
p963
tp964
Rp965
g10
tp966
sg287
(g291
(g295
S'Vmk\x02\xf3@\xf4?'
p967
tp968
Rp969
g10
tp970
sg237
(g291
(g295
S'\x07T;\xae\xfe\xd5\xdc?'
p971
tp972
Rp973
g238
tp974
sS'FTT_2006-03-28pair2_refexps.p(3441, 3556)'
p975
(g291
(g295
S'\x00\x00\x00\x00\x00\x00\x00\x00'
p976
tp977
Rp978
S'correct'
p979
tp980
sS'FTT_2006-03-28pair2_refexps.p(454, 526)'
p981
(g291
(g295
S'\xd4BV\xf8\xf3\xe0\xf0?'
p982
tp983
Rp984
S'correct'
p985
tp986
sS'FTT_2006-06-22pair1_refexps.p(5033, 5067)'
p987
(g291
(g295
S'\x00\x00\x00\x00\x00\x00\x00\x00'
p988
tp989
Rp990
S'correct'
p991
tp992
ssS'variation'
p993
(dp994
g6
(g300
g7
tp995
sg9
(g304
g10
tp996
sg12
(g291
(g295
S'\x00\x00\x00\x00\x00\x00\x00\x00'
p997
tp998
Rp999
g10
tp1000
sg14
(g312
g15
tp1001
sg17
(g316
g18
tp1002
sg20
(g320
g10
tp1003
sS'FTT_2006-03-27Pair1_refexps.p(3427, 3443)'
p1004
(g291
(g295
S'\x00\x00\x00\x00\x00\x00\x00\x00'
p1005
tp1006
Rp1007
S'correct'
p1008
tp1009
sg22
(g324
g10
tp1010
sg24
(g328
g25
tp1011
sg27
(g332
g28
tp1012
sg30
(g336
g31
tp1013
sg33
(g340
g34
tp1014
sg67
(g291
(g295
S'\x00\x00\x00\x00\x00\x00\x00\x00'
p1015
tp1016
Rp1017
g68
tp1018
sg36
(g348
g10
tp1019
sg38
(g352
g39
tp1020
sg41
(g356
g42
tp1021
sg44
(g360
g45
tp1022
sg47
(g364
g48
tp1023
sg50
(g368
g10
tp1024
sg52
(g372
g53
tp1025
sg55
(g376
g56
tp1026
sg378
(g381
g382
tp1027
sg384
(g387
g10
tp1028
sg389
(g392
g393
tp1029
sg395
(g398
g399
tp1030
sg58
(g403
g59
tp1031
sS'FTT_2006-03-27Pair1_refexps.p(696, 703)'
p1032
(g291
(g295
S'\x00\x00\x00\x00\x00\x00\x00\x00'
p1033
tp1034
Rp1035
S'correct'
p1036
tp1037
sg411
(g414
g10
tp1038
sg61
(g418
g62
tp1039
sg64
(g422
g65
tp1040
sg424
(g427
g10
tp1041
sg429
(g432
g433
tp1042
sg435
(g291
(g295
S'\x00\x00\x00\x00\x00\x00\x00\x00'
p1043
tp1044
Rp1045
g439
tp1046
sg249
(g887
g250
tp1047
sg70
(g291
(g295
S' \x8a\x08\xf6R^\xe4?'
p1048
tp1049
Rp1050
g71
tp1051
sg445
(g448
g449
tp1052
sg451
(g454
g455
tp1053
sg405
(g408
g409
tp1054
sg73
(g459
g74
tp1055
sS'FTT_2006-06-22pair2_refexps.p(4882, 4906)'
p1056
(g291
(g295
S'\x00\x00\x00\x00\x00\x00\x00\x00'
p1057
tp1058
Rp1059
S'correct'
p1060
tp1061
sg76
(g463
g10
tp1062
sg114
(g467
g115
tp1063
sg469
(g472
g473
tp1064
sg81
(g291
(g295
S'\x00\x00\x00\x00\x00\x00\x00\x00'
p1065
tp1066
Rp1067
g10
tp1068
sg479
(g482
g483
tp1069
sg83
(g487
g84
tp1070
sg86
(g491
g87
tp1071
sg493
(g496
g10
tp1072
sS'FTT_2006-03-27Pair1_refexps.p(3496, 3533)'
p1073
(g291
(g295
S'\xef9\xfa\xfeB.\xe6?'
p1074
tp1075
Rp1076
S'correct'
p1077
tp1078
sg89
(g500
g90
tp1079
sg92
(g504
g93
tp1080
sS'FTT_2006-06-22pair2_refexps.p(4715, 4731)'
p1081
(g291
(g295
S'\x00\x00\x00\x00\x00\x00\x00\x00'
p1082
tp1083
Rp1084
S'correct'
p1085
tp1086
sg98
(g512
g99
tp1087
sg101
(g516
g10
tp1088
sg518
(g521
g522
tp1089
sg524
(g527
g528
tp1090
sg530
(g533
g534
tp1091
sg536
(g539
g540
tp1092
sg542
(g545
g546
tp1093
sg103
(g550
g104
tp1094
sg106
(g291
(g295
S'N\xef\xf0E\xa6\xfe\xe1?'
p1095
tp1096
Rp1097
g107
tp1098
sg109
(g558
g110
tp1099
sg112
(g562
g10
tp1100
sg78
(g291
(g295
S'\x00\x00\x00\x00\x00\x00\x00\x00'
p1101
tp1102
Rp1103
g79
tp1104
sg117
(g570
g118
tp1105
sg120
(g574
g10
tp1106
sg268
(g578
g269
tp1107
sg580
(g583
g584
tp1108
sg122
(g588
g123
tp1109
sg125
(g592
g126
tp1110
sg128
(g596
g129
tp1111
sg131
(g600
g132
tp1112
sg134
(g604
g10
tp1113
sg136
(g291
(g295
S'\x00\x00\x00\x00\x00\x00\x00\x00'
p1114
tp1115
Rp1116
g137
tp1117
sg139
(g612
g10
tp1118
sg141
(g616
g10
tp1119
sg618
(g621
g10
tp1120
sg143
(g625
g144
tp1121
sg713
(g716
g717
tp1122
sg146
(g629
g147
tp1123
sg149
(g633
g10
tp1124
sg151
(g637
g152
tp1125
sg639
(g642
g643
tp1126
sS'20061123_pento_nonoise_refexps.p(3812, 3908)'
p1127
(g291
(g295
S'\xc82t\xc3O\x89\xe5?'
p1128
tp1129
Rp1130
g10
tp1131
sg154
(g647
g155
tp1132
sg276
(g807
g277
tp1133
sg653
(g656
g657
tp1134
sg659
(g662
g663
tp1135
sg160
(g667
g10
tp1136
sg162
(g671
g163
tp1137
sg165
(g675
g10
tp1138
sg167
(g679
g168
tp1139
sg681
(g684
g685
tp1140
sg170
(g689
g171
tp1141
sg173
(g693
g174
tp1142
sg695
(g698
g699
tp1143
sg176
(g703
g177
tp1144
sg179
(g707
g10
tp1145
sg181
(g711
g182
tp1146
sS'FTT_2006-06-22pair1_refexps.p(3211, 3239)'
p1147
(g291
(g295
S'\x00\x00\x00\x00\x00\x00\x00\x00'
p1148
tp1149
Rp1150
S'correct'
p1151
tp1152
sg184
(g721
g10
tp1153
sg186
(g725
g187
tp1154
sg189
(g729
g190
tp1155
sg192
(g733
g10
tp1156
sg194
(g737
g10
tp1157
sg196
(g741
g10
tp1158
sg198
(g745
g10
tp1159
sg200
(g749
g201
tp1160
sg751
(g754
g755
tp1161
sS'FTT_2006-06-22pair2_refexps.p(3708, 3753)'
p1162
(g291
(g295
S'\x00\x00\x00\x00\x00\x00\x00\x00'
p1163
tp1164
Rp1165
S'not_moved'
p1166
tp1167
sg205
(g759
g206
tp1168
sg761
(g764
g765
tp1169
sg767
(g770
g771
tp1170
sg208
(g775
g209
tp1171
sg95
(g508
g96
tp1172
sg987
(g990
g991
tp1173
sg211
(g779
g212
tp1174
sg781
(g784
g785
tp1175
sg214
(g789
g10
tp1176
sg216
(g793
g217
tp1177
sg795
(g798
g799
tp1178
sg219
(g803
g220
tp1179
sS'FTT_2006-03-27Pair1_refexps.p(1711, 1749)'
p1180
(g291
(g295
S'\x00\x00\x00\x00\x00\x00\x00\x00'
p1181
tp1182
Rp1183
S'not_moved'
p1184
tp1185
sg222
(g811
g10
tp1186
sg813
(g816
g817
tp1187
sg819
(g822
g823
tp1188
sg224
(g827
g225
tp1189
sg227
(g831
g10
tp1190
sg229
(g835
g230
tp1191
sg232
(g839
g10
tp1192
sg234
(g843
g235
tp1193
sg845
(g848
g849
tp1194
sg851
(g854
g855
tp1195
sg240
(g859
g241
tp1196
sS'FTT_2006-03-27Pair1_refexps.p(3534, 3567)'
p1197
(g291
(g295
S'\x00\x00\x00\x00\x00\x00\x00\x00'
p1198
tp1199
Rp1200
S'correct'
p1201
tp1202
sg203
(g863
g10
tp1203
sg865
(g868
g869
tp1204
sg243
(g873
g244
tp1205
sg246
(g877
g247
tp1206
sg879
(g882
g883
tp1207
sS'20070201_run4pento_nonoise_refexps.p(1800, 1816)'
p1208
(g291
(g295
S'\x00\x00\x00\x00\x00\x00\x00\x00'
p1209
tp1210
Rp1211
g10
tp1212
sg252
(g891
g253
tp1213
sg893
(g896
g144
tp1214
sg255
(g900
g10
tp1215
sg257
(g904
g258
tp1216
sg260
(g908
g261
tp1217
sg263
(g912
g264
tp1218
sg266
(g916
g10
tp1219
sg918
(g921
g922
tp1220
sg271
(g926
g272
tp1221
sg274
(g930
g10
tp1222
sg932
(g935
g936
tp1223
sg938
(g941
g942
tp1224
sg279
(g946
g280
tp1225
sg282
(g291
(g295
S'\x00\x00\x00\x00\x00\x00\x00\x00'
p1226
tp1227
Rp1228
g10
tp1229
sg952
(g955
g956
tp1230
sg284
(g960
g285
tp1231
sg962
(g965
g10
tp1232
sg287
(g969
g10
tp1233
sg237
(g973
g238
tp1234
sg975
(g978
g979
tp1235
sg981
(g984
g985
tp1236
sS'20070201_run4pento_nonoise_refexps.p(1514, 1562)'
p1237
(g291
(g295
S's\xab;?\xb2\xa2\xf0?'
p1238
tp1239
Rp1240
g10
tp1241
sg157
(g651
g158
tp1242
ssS'variation e'
p1243
(dp1244
g6
(g291
(g295
S'\x00\x00\x00\x00\x00\x00\x00\x00'
p1245
tp1246
Rp1247
g7
tp1248
sg9
(g304
g10
tp1249
sg12
(g999
g10
tp1250
sg14
(g312
g15
tp1251
sg17
(g316
g18
tp1252
sg20
(g291
(g295
S'N\xef\xf0E\xa6\xfe\xe1?'
p1253
tp1254
Rp1255
g10
tp1256
sg1004
(g1007
g1008
tp1257
sg22
(g324
g10
tp1258
sg24
(g291
(g295
S' \x8a\x08\xf6R^\xe4?'
p1259
tp1260
Rp1261
g25
tp1262
sg27
(g291
(g295
S'\xef9\xfa\xfeB.\xe6?'
p1263
tp1264
Rp1265
g28
tp1266
sg30
(g291
(g295
S'!H\xa5C\x06%\xe3?'
p1267
tp1268
Rp1269
g31
tp1270
sg33
(g340
g34
tp1271
sg67
(g1017
g68
tp1272
sg36
(g291
(g295
S'\xef9\xfa\xfeB.\xe6?'
p1273
tp1274
Rp1275
g10
tp1276
sg38
(g291
(g295
S' \x8a\x08\xf6R^\xe4?'
p1277
tp1278
Rp1279
g39
tp1280
sg41
(g356
g42
tp1281
sg44
(g360
g45
tp1282
sg47
(g291
(g295
S'\x00\x00\x00\x00\x00\x00\x00\x00'
p1283
tp1284
Rp1285
g48
tp1286
sg50
(g368
g10
tp1287
sg52
(g291
(g295
S'\x96\xb1\xf2!\x96-\xef?'
p1288
tp1289
Rp1290
g53
tp1291
sg55
(g376
g56
tp1292
sg384
(g387
g10
tp1293
sg389
(g392
g393
tp1294
sg395
(g398
g399
tp1295
sg58
(g291
(g295
S' \x8a\x08\xf6R^\xe4?'
p1296
tp1297
Rp1298
g59
tp1299
sg1032
(g1035
g1036
tp1300
sg411
(g414
g10
tp1301
sg61
(g418
g62
tp1302
sg64
(g291
(g295
S'N\xef\xf0E\xa6\xfe\xe1?'
p1303
tp1304
Rp1305
g65
tp1306
sg424
(g291
(g295
S'\x00\x00\x00\x00\x00\x00\x00\x00'
p1307
tp1308
Rp1309
g10
tp1310
sg429
(g291
(g295
S'\x07T;\xae\xfe\xd5\xdc?'
p1311
tp1312
Rp1313
g433
tp1314
sg435
(g1045
g439
tp1315
sg249
(g291
(g295
S'\xef9\xfa\xfeB.\xe6?'
p1316
tp1317
Rp1318
g250
tp1319
sg70
(g1050
g71
tp1320
sg73
(g291
(g295
S'\x00\x00\x00\x00\x00\x00\x00\x00'
p1321
tp1322
Rp1323
g74
tp1324
sg1056
(g1059
g1060
tp1325
sg76
(g291
(g295
S'>8e\xd2Xy\xf5?'
p1326
tp1327
Rp1328
g10
tp1329
sg114
(g467
g115
tp1330
sg81
(g1067
g10
tp1331
sg83
(g487
g84
tp1332
sg86
(g291
(g295
S'\x00\x00\x00\x00\x00\x00\x00\x00'
p1333
tp1334
Rp1335
g87
tp1336
sg493
(g291
(g295
S'\x00\x00\x00\x00\x00\x00\x00\x00'
p1337
tp1338
Rp1339
g10
tp1340
sg89
(g291
(g295
S'\xe8\xf0}\xf1K\x03\xe0?'
p1341
tp1342
Rp1343
g90
tp1344
sg92
(g504
g93
tp1345
sg95
(g508
g96
tp1346
sg98
(g291
(g295
S'\x00\x00\x00\x00\x00\x00\x00\x00'
p1347
tp1348
Rp1349
g99
tp1350
sg101
(g516
g10
tp1351
sg103
(g291
(g295
S' \x8a\x08\xf6R^\xe4?'
p1352
tp1353
Rp1354
g104
tp1355
sg106
(g1097
g107
tp1356
sg109
(g558
g110
tp1357
sg112
(g291
(g295
S'\xd4BV\xf8\xf3\xe0\xf0?'
p1358
tp1359
Rp1360
g10
tp1361
sg78
(g1103
g79
tp1362
sg117
(g291
(g295
S'\x00\x00\x00\x00\x00\x00\x00\x00'
p1363
tp1364
Rp1365
g118
tp1366
sg120
(g291
(g295
S'\x00\x00\x00\x00\x00\x00\x00\x00'
p1367
tp1368
Rp1369
g10
tp1370
sg268
(g578
g269
tp1371
sg122
(g291
(g295
S'\x00\x00\x00\x00\x00\x00\x00\x00'
p1372
tp1373
Rp1374
g123
tp1375
sg125
(g592
g126
tp1376
sg128
(g596
g129
tp1377
sg131
(g291
(g295
S'Z\xbc.\xa3\xa2\x87\xf0?'
p1378
tp1379
Rp1380
g132
tp1381
sg134
(g291
(g295
S'\x06\xfb\x03\xab\x86+\xe5?'
p1382
tp1383
Rp1384
g10
tp1385
sg136
(g1116
g137
tp1386
sg139
(g612
g10
tp1387
sg141
(g616
g10
tp1388
sg143
(g291
(g295
S'z\xb2\xa6\x83X?\xda?'
p1389
tp1390
Rp1391
g144
tp1392
sg146
(g629
g147
tp1393
sg149
(g291
(g295
S'\xef9\xfa\xfeB.\xe6?'
p1394
tp1395
Rp1396
g10
tp1397
sg151
(g291
(g295
S'\t\xd4\xf3J3\x8c\xe3?'
p1398
tp1399
Rp1400
g152
tp1401
sg1127
(g1130
g10
tp1402
sg154
(g647
g155
tp1403
sg157
(g291
(g295
S'\xe8\xf0}\xf1K\x03\xe0?'
p1404
tp1405
Rp1406
g158
tp1407
sg160
(g667
g10
tp1408
sg162
(g671
g163
tp1409
sg165
(g675
g10
tp1410
sg167
(g291
(g295
S' \x8a\x08\xf6R^\xe4?'
p1411
tp1412
Rp1413
g168
tp1414
sg1073
(g1076
g1077
tp1415
sg170
(g689
g171
tp1416
sg173
(g693
g174
tp1417
sg176
(g703
g177
tp1418
sg179
(g291
(g295
S'N\xef\xf0E\xa6\xfe\xe1?'
p1419
tp1420
Rp1421
g10
tp1422
sg181
(g291
(g295
S'\x14F\x93N"\x0b\xf0?'
p1423
tp1424
Rp1425
g182
tp1426
sg1147
(g1150
g1151
tp1427
sg184
(g291
(g295
S'\x00\x00\x00\x00\x00\x00\x00\x00'
p1428
tp1429
Rp1430
g10
tp1431
sg186
(g725
g187
tp1432
sg189
(g729
g190
tp1433
sg192
(g291
(g295
S'\xa2\xcf#\xf0\x17\x95\xee?'
p1434
tp1435
Rp1436
g10
tp1437
sg194
(g737
g10
tp1438
sg196
(g291
(g295
S'|\xd1\x93\xb4\x1f\xc0\xe2?'
p1439
tp1440
Rp1441
g10
tp1442
sg198
(g745
g10
tp1443
sg200
(g291
(g295
S'\x00\x00\x00\x00\x00\x00\x00\x00'
p1444
tp1445
Rp1446
g201
tp1447
sg203
(g863
g10
tp1448
sg1162
(g1165
g1166
tp1449
sg205
(g759
g206
tp1450
sg761
(g764
g765
tp1451
sg208
(g291
(g295
S'\xa4v\xc5\x89D\xf7\xfb?'
p1452
tp1453
Rp1454
g209
tp1455
sg1081
(g1084
g1085
tp1456
sg211
(g291
(g295
S' \x8a\x08\xf6R^\xe4?'
p1457
tp1458
Rp1459
g212
tp1460
sg214
(g789
g10
tp1461
sg216
(g793
g217
tp1462
sg219
(g803
g220
tp1463
sg1180
(g1183
g1184
tp1464
sg222
(g291
(g295
S'\xe7\xf8:\xac\xf8\xbb\xec?'
p1465
tp1466
Rp1467
g10
tp1468
sg819
(g291
(g295
S'\x00\x00\x00\x00\x00\x00\x00\x00'
p1469
tp1470
Rp1471
g823
tp1472
sg224
(g827
g225
tp1473
sg227
(g291
(g295
S'!H\xa5C\x06%\xe3?'
p1474
tp1475
Rp1476
g10
tp1477
sg229
(g291
(g295
S'\x00\x00\x00\x00\x00\x00\x00\x00'
p1478
tp1479
Rp1480
g230
tp1481
sg232
(g291
(g295
S's\xab;?\xb2\xa2\xf0?'
p1482
tp1483
Rp1484
g10
tp1485
sg234
(g291
(g295
S'\x00\x00\x00\x00\x00\x00\x00\x00'
p1486
tp1487
Rp1488
g235
tp1489
sg845
(g291
(g295
S'\x00\x00\x00\x00\x00\x00\x00\x00'
p1490
tp1491
Rp1492
g849
tp1493
sg237
(g973
g238
tp1494
sg975
(g291
(g295
S'\x00\x00\x00\x00\x00\x00\x00\x00'
p1495
tp1496
Rp1497
g979
tp1498
sg1197
(g1200
g1201
tp1499
sg243
(g873
g244
tp1500
sg246
(g291
(g295
S'\x8a\xf0\x0b\x9f-@\xeb?'
p1501
tp1502
Rp1503
g247
tp1504
sg1208
(g1211
g10
tp1505
sg252
(g891
g253
tp1506
sg255
(g291
(g295
S'(}\x0b\xc3\x9dh\xee?'
p1507
tp1508
Rp1509
g10
tp1510
sg257
(g904
g258
tp1511
sg260
(g908
g261
tp1512
sg263
(g912
g264
tp1513
sg266
(g291
(g295
S'\x07T;\xae\xfe\xd5\xdc?'
p1514
tp1515
Rp1516
g10
tp1517
sg918
(g291
(g295
S'\x00\x00\x00\x00\x00\x00\x00\x00'
p1518
tp1519
Rp1520
g922
tp1521
sg271
(g926
g272
tp1522
sg274
(g291
(g295
S'`M\x96B\xacP\xf1?'
p1523
tp1524
Rp1525
g10
tp1526
sg276
(g807
g277
tp1527
sg279
(g291
(g295
S'\xef9\xfa\xfeB.\xe6?'
p1528
tp1529
Rp1530
g280
tp1531
sg282
(g1228
g10
tp1532
sg284
(g960
g285
tp1533
sg962
(g291
(g295
S'\x00\x00\x00\x00\x00\x00\x00\x00'
p1534
tp1535
Rp1536
g10
tp1537
sg287
(g969
g10
tp1538
sg240
(g291
(g295
S'}\x9e\xd3\xbc\x16\xe1\xf3?'
p1539
tp1540
Rp1541
g241
tp1542
sg1237
(g1240
g10
tp1543
ssS'alignment p'
p1544
(dp1545
g493
(F1.0
g10
tp1546
sg176
(F0.0
g177
tp1547
sg6
(F1.0
g7
tp1548
sg160
(F0.75
g10
tp1549
sg61
(F1.0
g62
tp1550
sg162
(F0.0
g163
tp1551
sg12
(F1.0
g10
tp1552
sg81
(F0.0
g10
tp1553
sg17
(F1.0
g18
tp1554
sg222
(F0.5
g10
tp1555
sg117
(F1.0
g118
tp1556
sg224
(F0.5
g225
tp1557
sg384
(F0.0
g10
tp1558
sg86
(F1.0
g87
tp1559
sg22
(F0.0
g10
tp1560
sg198
(F0.5
g10
tp1561
sg227
(F0.0
g10
tp1562
sg170
(F0.0
g171
tp1563
sg173
(F0.0
g174
tp1564
sg89
(F1.0
g90
tp1565
sg229
(F1.0
g230
tp1566
sg92
(F0.5
g93
tp1567
sg30
(F0.5
g31
tp1568
sg33
(F1.0
g34
tp1569
sg234
(F1.0
g235
tp1570
sg845
(F1.0
g849
tp1571
sg237
(F1.0
g238
tp1572
sg240
(F0.0
g241
tp1573
sg101
(F1.0
g10
tp1574
sg186
(F0.0
g187
tp1575
sg429
(F0.0
g433
tp1576
sg67
(F0.0
g68
tp1577
sg203
(F0.6666666666666666
g10
tp1578
sg41
(F0.0
g42
tp1579
sg194
(F1.0
g10
tp1580
sg246
(F0.5
g247
tp1581
sg106
(F0.0
g107
tp1582
sg52
(F0.0
g53
tp1583
sg109
(F0.0
g110
tp1584
sg192
(F1.0
g10
tp1585
sg50
(F1.0
g10
tp1586
sg196
(F1.0
g10
tp1587
sg114
(F0.0
g115
tp1588
sg200
(F0.6
g201
tp1589
sg255
(F0.0
g10
tp1590
sg389
(F0.0
g393
tp1591
sg257
(F1.0
g258
tp1592
sg395
(F0.0
g399
tp1593
sg263
(F0.0
g264
tp1594
sg268
(F0.0
g269
tp1595
sg271
(F0.0
g272
tp1596
sg120
(F1.0
g10
tp1597
sg125
(F1.0
g126
tp1598
sg205
(F1.0
g206
tp1599
sg411
(F0.0
g10
tp1600
sg146
(F0.0
g147
tp1601
sg276
(F0.0
g277
tp1602
sg76
(F0.0
g10
tp1603
sg761
(F0.0
g765
tp1604
sg131
(F0.0
g132
tp1605
sg64
(F0.5
g65
tp1606
sg208
(F0.0
g209
tp1607
sg282
(F1.0
g10
tp1608
sg134
(F1.0
g10
tp1609
sg284
(F0.3333333333333333
g285
tp1610
sg139
(F1.0
g10
tp1611
sg141
(F0.0
g10
tp1612
sg287
(F0.5
g10
tp1613
sg143
(F1.0
g144
tp1614
sg167
(F0.0
g168
tp1615
sg70
(F0.0
g71
tp1616
sg149
(F0.0
g10
tp1617
sg151
(F0.5
g152
tp1618
sg216
(F0.0
g217
tp1619
sg55
(F1.0
g56
tp1620
sg219
(F1.0
g220
tp1621
sg73
(F1.0
g74
tp1622
sg157
(F0.0
g158
tp1623
ssS'alignment'
p1624
(dp1625
g6
(F1.0
g7
tp1626
sg9
(F0.0
g10
tp1627
sg12
(F1.0
g10
tp1628
sg14
(F1.0
g15
tp1629
sg17
(F1.0
g18
tp1630
sg20
(F1.0
g10
tp1631
sg22
(F0.0
g10
tp1632
sg24
(F0.0
g25
tp1633
sg27
(F0.0
g28
tp1634
sg30
(F0.6666666666666666
g31
tp1635
sg33
(F1.0
g34
tp1636
sg67
(F0.0
g68
tp1637
sg36
(F0.0
g10
tp1638
sg38
(F0.0
g39
tp1639
sg41
(F0.0
g42
tp1640
sg44
(F1.0
g45
tp1641
sg47
(F1.0
g48
tp1642
sg50
(F1.0
g10
tp1643
sg52
(F0.0
g53
tp1644
sg55
(F0.8
g56
tp1645
sg384
(F0.0
g10
tp1646
sg389
(F0.0
g393
tp1647
sg395
(F0.0
g399
tp1648
sg58
(F0.0
g59
tp1649
sg103
(F1.0
g104
tp1650
sg411
(F0.0
g10
tp1651
sg61
(F1.0
g62
tp1652
sg64
(F1.0
g65
tp1653
sg429
(F0.0
g433
tp1654
sg70
(F0.0
g71
tp1655
sg73
(F1.0
g74
tp1656
sg76
(F0.3333333333333333
g10
tp1657
sg114
(F1.0
g115
tp1658
sg81
(F0.125
g10
tp1659
sg83
(F1.0
g84
tp1660
sg86
(F1.0
g87
tp1661
sg89
(F0.6666666666666666
g90
tp1662
sg92
(F0.25
g93
tp1663
sg95
(F1.0
g96
tp1664
sg98
(F1.0
g99
tp1665
sg101
(F1.0
g10
tp1666
sg493
(F1.0
g10
tp1667
sg106
(F0.5
g107
tp1668
sg109
(F0.0
g110
tp1669
sg112
(F0.0
g10
tp1670
sg78
(F1.0
g79
tp1671
sg117
(F1.0
g118
tp1672
sg120
(F1.0
g10
tp1673
sg122
(F0.0
g123
tp1674
sg125
(F1.0
g126
tp1675
sg128
(F0.0
g129
tp1676
sg131
(F0.0
g132
tp1677
sg134
(F1.0
g10
tp1678
sg136
(F0.0
g137
tp1679
sg139
(F0.5
g10
tp1680
sg141
(F0.0
g10
tp1681
sg143
(F0.8
g144
tp1682
sg146
(F0.2857142857142857
g147
tp1683
sg149
(F0.0
g10
tp1684
sg151
(F0.4
g152
tp1685
sg154
(F1.0
g155
tp1686
sg157
(F0.0
g158
tp1687
sg160
(F0.7777777777777778
g10
tp1688
sg162
(F0.0
g163
tp1689
sg165
(F1.0
g10
tp1690
sg167
(F0.0
g168
tp1691
sg170
(F0.0
g171
tp1692
sg173
(F0.0
g174
tp1693
sg176
(F0.0
g177
tp1694
sg179
(F1.0
g10
tp1695
sg181
(F0.0
g182
tp1696
sg184
(F1.0
g10
tp1697
sg186
(F0.5
g187
tp1698
sg189
(F0.0
g190
tp1699
sg192
(F0.3333333333333333
g10
tp1700
sg194
(F1.0
g10
tp1701
sg196
(F0.6666666666666666
g10
tp1702
sg198
(F0.5
g10
tp1703
sg200
(F0.6363636363636364
g201
tp1704
sg203
(F0.0
g10
tp1705
sg205
(F1.0
g206
tp1706
sg761
(F0.0
g765
tp1707
sg208
(F0.0
g209
tp1708
sg211
(F0.0
g212
tp1709
sg214
(F1.0
g10
tp1710
sg216
(F0.0
g217
tp1711
sg219
(F0.6666666666666666
g220
tp1712
sg222
(F0.5
g10
tp1713
sg224
(F1.0
g225
tp1714
sg227
(F0.3333333333333333
g10
tp1715
sg229
(F1.0
g230
tp1716
sg232
(F0.0
g10
tp1717
sg234
(F1.0
g235
tp1718
sg845
(F1.0
g849
tp1719
sg237
(F1.0
g238
tp1720
sg240
(F0.3333333333333333
g241
tp1721
sg243
(F1.0
g244
tp1722
sg246
(F0.75
g247
tp1723
sg249
(F0.0
g250
tp1724
sg252
(F1.0
g253
tp1725
sg255
(F0.0
g10
tp1726
sg257
(F1.0
g258
tp1727
sg260
(F0.0
g261
tp1728
sg263
(F0.0
g264
tp1729
sg266
(F1.0
g10
tp1730
sg268
(F0.0
g269
tp1731
sg271
(F0.0
g272
tp1732
sg274
(F0.0
g10
tp1733
sg276
(F0.0
g277
tp1734
sg279
(F0.0
g280
tp1735
sg282
(F1.0
g10
tp1736
sg284
(F0.46153846153846156
g285
tp1737
sg287
(F0.25
g10
tp1738
ss.