(dp0
(I3032
I3049
tp1
S'correct'
p2
s(I760
I945
tp3
S'correct'
p4
s(I1888
I2021
tp5
S'correct'
p6
s(I3427
I3443
tp7
S'correct'
p8
s(I3050
I3165
tp9
S'not_moved'
p10
s(I2505
I2552
tp11
S'correct'
p12
s(I2843
I2973
tp13
S'not_moved'
p14
s(I731
I759
tp15
S'not_moved'
p16
s(I1761
I1787
tp17
S'not_moved'
p18
s(I3568
I3607
tp19
S'not_moved'
p20
s(I411
I600
tp21
S'correct'
p22
s(I3534
I3567
tp23
S'correct'
p24
s(I946
I1116
tp25
S'incorrect'
p26
s(I191
I410
tp27
S'incorrect'
p28
s(I601
I695
tp29
S'not_moved'
p30
s(I2553
I2749
tp31
S'incorrect'
p32
s(I3166
I3426
tp33
S'not_moved'
p34
s(I2082
I2354
tp35
S'correct'
p36
s(I1711
I1749
tp37
S'not_moved'
p38
s(I3444
I3495
tp39
S'not_moved'
p40
s(I1117
I1518
tp41
S'not_moved'
p42
s(I1519
I1710
tp43
S'not_moved'
p44
s(I696
I703
tp45
S'correct'
p46
s(I2355
I2504
tp47
S'correct'
p48
s(I1788
I1887
tp49
S'not_moved'
p50
s(I3496
I3533
tp51
S'correct'
p52
s(I704
I730
tp53
S'not_moved'
p54
s(I2022
I2081
tp55
S'not_moved'
p56
s(I2974
I3031
tp57
S'not_moved'
p58
s(I2815
I2842
tp59
S'not_moved'
p60
s(I2750
I2814
tp61
S'correct'
p62
s(I1750
I1760
tp63
S'not_moved'
p64
s.