(dp0
(I3393
I3458
tp1
S'no_video'
p2
s(I1231
I1299
tp3
S'no_video'
p4
s(I3081
I3137
tp5
S'no_video'
p6
s(I3138
I3392
tp7
S'no_video'
p8
s(I1011
I1104
tp9
S'no_video'
p10
s(I2178
I2221
tp11
S'no_video'
p12
s(I3496
I3519
tp13
S'no_video'
p14
s(I1807
I2177
tp15
S'no_video'
p16
s(I2947
I3080
tp17
S'no_video'
p18
s(I2222
I2412
tp19
S'no_video'
p20
s(I2668
I2877
tp21
S'no_video'
p22
s(I1300
I1660
tp23
S'no_video'
p24
s(I20
I1010
tp25
S'no_video'
p26
s(I1661
I1806
tp27
S'no_video'
p28
s(I3459
I3495
tp29
S'no_video'
p30
s(I1105
I1230
tp31
S'no_video'
p32
s(I2916
I2946
tp33
S'no_video'
p34
s(I2878
I2915
tp35
S'no_video'
p36
s(I2413
I2667
tp37
S'no_video'
p38
s.