(dp0
(I1101
I1238
tp1
S'not_moved'
p2
s(I2579
I2623
tp3
S'correct'
p4
s(I1076
I1100
tp5
S'not_moved'
p6
s(I2745
I2877
tp7
S'correct'
p8
s(I1239
I1276
tp9
S'not_moved'
p10
s(I1
I324
tp11
S'incorrect'
p12
s(I1956
I1980
tp13
S'incorrect'
p14
s(I732
I913
tp15
S'incorrect'
p16
s(I1981
I2057
tp17
S'not_moved'
p18
s(I2113
I2254
tp19
S'incorrect'
p20
s(I1497
I1511
tp21
S'correct'
p22
s(I918
I1075
tp23
S'not_moved'
p24
s(I3200
I3289
tp25
S'correct'
p26
s(I2953
I3089
tp27
S'correct'
p28
s(I3116
I3132
tp29
S'correct'
p30
s(I325
I393
tp31
S'correct'
p32
s(I1703
I1728
tp33
S'not_moved'
p34
s(I2624
I2744
tp35
S'not_moved'
p36
s(I1277
I1323
tp37
S'incorrect'
p38
s(I2531
I2578
tp39
S'correct'
p40
s(I1346
I1496
tp41
S'not_moved'
p42
s(I3290
I3353
tp43
S'correct'
p44
s(I1827
I1955
tp45
S'not_moved'
p46
s(I1512
I1635
tp47
S'incorrect'
p48
s(I1324
I1345
tp49
S'not_moved'
p50
s(I1636
I1702
tp51
S'incorrect'
p52
s(I2479
I2530
tp53
S'not_moved'
p54
s(I2878
I2902
tp55
S'correct'
p56
s(I394
I731
tp57
S'incorrect'
p58
s(I2058
I2112
tp59
S'incorrect'
p60
s(I2255
I2478
tp61
S'correct'
p62
s(I3135
I3199
tp63
S'correct'
p64
s.