(dp0
(I705
I793
tp1
S'correct'
p2
s(I1887
I2355
tp3
S'incorrect'
p4
s(I415
I526
tp5
S'correct'
p6
s(I527
I704
tp7
S'correct'
p8
s(I794
I1433
tp9
S'correct'
p10
s(I2417
I2463
tp11
S'not_moved'
p12
s(I1767
I1886
tp13
S'correct'
p14
s(I58
I414
tp15
S'correct'
p16
s(I3027
I3038
tp17
S'correct'
p18
s(I1434
I1610
tp19
S'correct'
p20
s(I2464
I3017
tp21
S'correct'
p22
s(I3018
I3026
tp23
S'correct'
p24
s(I1611
I1766
tp25
S'correct'
p26
s(I2356
I2416
tp27
S'correct'
p28
s.