(dp0
(I830
I923
tp1
S'incorrect'
p2
s(I312
I338
tp3
S'not_moved'
p4
s(I1
I108
tp5
S'incorrect'
p6
s(I1559
I1596
tp7
S'correct'
p8
s(I625
I630
tp9
S'correct'
p10
s(I640
I829
tp11
S'not_moved'
p12
s(I631
I639
tp13
S'correct'
p14
s(I1098
I1119
tp15
S'correct'
p16
s(I1197
I1213
tp17
S'correct'
p18
s(I408
I588
tp19
S'correct'
p20
s(I231
I311
tp21
S'incorrect'
p22
s(I1214
I1296
tp23
S'correct'
p24
s(I1016
I1097
tp25
S'not_moved'
p26
s(I385
I407
tp27
S'incorrect'
p28
s(I1491
I1558
tp29
S'correct'
p30
s(I924
I1015
tp31
S'correct'
p32
s(I589
I624
tp33
S'not_moved'
p34
s(I1366
I1383
tp35
S'not_moved'
p36
s(I1169
I1196
tp37
S'correct'
p38
s(I339
I384
tp39
S'incorrect'
p40
s(I1395
I1451
tp41
S'correct'
p42
s(I128
I174
tp43
S'incorrect'
p44
s(I175
I230
tp45
S'correct'
p46
s(I1120
I1168
tp47
S'correct'
p48
s(I1384
I1394
tp49
S'not_moved'
p50
s(I109
I127
tp51
S'incorrect'
p52
s.