(dp0
(I3513
I3659
tp1
S'correct'
p2
s(I3134
I3351
tp3
S'correct'
p4
s(I1816
I1947
tp5
S'correct'
p6
s(I1397
I1815
tp7
S'incorrect'
p8
s(I258
I843
tp9
S'correct'
p10
s(I2341
I2783
tp11
S'correct'
p12
s(I3352
I3512
tp13
S'correct'
p14
s(I1204
I1396
tp15
S'correct'
p16
s(I3660
I3677
tp17
S'correct'
p18
s(I844
I1034
tp19
S'correct'
p20
s(I1948
I2340
tp21
S'correct'
p22
s(I2784
I3133
tp23
S'correct'
p24
s(I1035
I1203
tp25
S'correct'
p26
s.