(dp0
(I1753
I1776
tp1
S'correct'
p2
s(I1716
I1752
tp3
S'correct'
p4
s(I1582
I1715
tp5
S'correct'
p6
s(I1236
I1355
tp7
S'correct'
p8
s(I1125
I1235
tp9
S'correct'
p10
s(I281
I378
tp11
S'correct'
p12
s(I607
I1124
tp13
S'correct'
p14
s(I379
I497
tp15
S'correct'
p16
s(I1400
I1581
tp17
S'correct'
p18
s(I29
I280
tp19
S'correct'
p20
s(I1356
I1399
tp21
S'correct'
p22
s(I498
I606
tp23
S'correct'
p24
s.