(dp0
(I2083
I3007
tp1
(S'success'
p2
S'confid'
p3
tp4
s(I756
I825
tp5
(S'not_moved'
p6
S'reconf'
p7
tp8
s(I3711
I3753
tp9
(S'success'
p10
S'confid'
p11
tp12
s(I398
I755
tp13
(S'not_moved'
p14
S'on_hold'
p15
tp16
s(I3329
I3710
tp17
(S'success'
p18
S'confid'
p19
tp20
s(I1502
I1545
tp21
(S'not_moved'
p22
S'reconf'
p23
tp24
s(I3812
I3908
tp25
(S'success'
p26
S'confid'
p27
tp28
s(I187
I397
tp29
(S'success'
p30
S'confid'
p31
tp32
s(I826
I894
tp33
(S'success'
p34
S'confid'
p35
tp36
s(I895
I1014
tp37
(S'success'
p38
S'confid'
p39
tp40
s(I1015
I1397
tp41
(S'not_moved'
p42
S'on_hold'
p43
tp44
s(I3008
I3166
tp45
(S'success'
p46
S'confid'
p47
tp48
s(I3167
I3328
tp49
(S'success'
p50
S'confid'
p51
tp52
s(I3754
I3811
tp53
(S'success'
p54
S'confid'
p55
tp56
s(I1546
I2082
tp57
(S'success'
p58
S'confid'
p59
tp60
s.