(dp0
(I1739
I1799
tp1
(S'success'
p2
S'confid'
p3
tp4
s(I1800
I1816
tp5
(S'success'
p6
S'confid'
p7
tp8
s(I23
I287
tp9
(S'success'
p10
S'confid'
p11
tp12
s(I894
I1001
tp13
(S'success'
p14
S'confid'
p15
tp16
s(I1514
I1562
tp17
(S'success'
p18
S'confid'
p19
tp20
s(I1002
I1299
tp21
(S'success'
p22
S'confid'
p23
tp24
s(I786
I893
tp25
(S'success'
p26
S'confid'
p27
tp28
s(I288
I785
tp29
(S'success'
p30
S'confid'
p31
tp32
s(I1563
I1738
tp33
(S'success'
p34
S'confid'
p35
tp36
s(I1423
I1513
tp37
(S'success'
p38
S'confid'
p39
tp40
s(I1300
I1422
tp41
(S'success'
p42
S'confid'
p43
tp44
s.