(dp0
(I1739
I1799
tp1
S'success'
p2
s(I1800
I1816
tp3
S'success'
p4
s(I23
I287
tp5
S'success'
p6
s(I894
I1001
tp7
S'success'
p8
s(I1514
I1562
tp9
S'success'
p10
s(I1002
I1299
tp11
S'success'
p12
s(I786
I893
tp13
S'success'
p14
s(I288
I785
tp15
S'success'
p16
s(I1563
I1738
tp17
S'success'
p18
s(I1423
I1513
tp19
S'success'
p20
s(I1300
I1422
tp21
S'success'
p22
s.