(dp0
(I2593
I2616
tp1
S'success'
p2
s(I2407
I2542
tp3
S'success'
p4
s(I658
I1315
tp5
S'success'
p6
s(I1316
I1491
tp7
S'success'
p8
s(I2543
I2563
tp9
S'success'
p10
s(I1492
I1559
tp11
S'success'
p12
s(I4
I251
tp13
S'success'
p14
s(I1786
I2114
tp15
S'success'
p16
s(I1560
I1785
tp17
S'success'
p18
s(I2115
I2406
tp19
S'success'
p20
s(I596
I657
tp21
S'not_moved'
p22
s(I252
I595
tp23
S'wrong'
p24
s(I2564
I2592
tp25
S'success'
p26
s.