(dp0
(I2593
I2616
tp1
(S'success'
p2
S'confid'
p3
tp4
s(I2407
I2542
tp5
(S'success'
p6
S'confid'
p7
tp8
s(I658
I1315
tp9
(S'success'
p10
S'confid'
p11
tp12
s(I1316
I1491
tp13
(S'success'
p14
S'confid'
p15
tp16
s(I2543
I2563
tp17
(S'success'
p18
S'confid'
p19
tp20
s(I1492
I1559
tp21
(S'success'
p22
S'confid'
p23
tp24
s(I4
I251
tp25
(S'success'
p26
S'confid'
p27
tp28
s(I1786
I2114
tp29
(S'success'
p30
S'confid'
p31
tp32
s(I1560
I1785
tp33
(S'success'
p34
S'confid'
p35
tp36
s(I2115
I2406
tp37
(S'success'
p38
S'confid'
p39
tp40
s(I596
I657
tp41
(S'not_moved'
p42
S'on_hold'
p43
tp44
s(I252
I595
tp45
(S'wrong'
p46
S'confid'
p47
tp48
s(I2564
I2592
tp49
(S'success'
p50
S'confid'
p51
tp52
s.